LIBRARY "nvinfer_11"
EXPORTS
    ?DeserializeContextFromFile@cask6_myelin@@YA?AW4Status@1@AEAVContext@1@VStringView@1@@Z
    ?InitializeAllProviders@cask6_myelin@@YA?AW4Status@1@AEAVContext@1@@Z
    ?InitializeAllResources@cask6_myelin@@YA?AW4Status@1@AEAVContext@1@@Z
    ?InitializeAllResources@cask6_myelin@@YA?AW4Status@1@AEAVContext@1@V?$Span@VSerializedResourceFilenames@cask6_myelin@@@1@@Z
    ?InitializeContext@cask6_myelin@@YA?AW4Status@1@AEAVContext@1@@Z
    ?InitializeDynamicShaders_cutlass3x_common_cutlass3x_conv_fprop_bias_activation_dual_relu_sm100_tensorop_128x128x32_e4m3_e4m3_f32_bf16_bf16_385c3e3fbb83feae@cask6_myelin@@YA?AW4Status@1@AEAVContext@1@@Z
    ?InitializeDynamicShaders_cutlass3x_common_cutlass3x_conv_fprop_bias_activation_dual_relu_sm100_tensorop_128x128x32_e4m3_e4m3_f32_bf16_bf16_d0cfe9cb310efd00@cask6_myelin@@YA?AW4Status@1@AEAVContext@1@@Z
    ?InitializeDynamicShaders_cutlass3x_common_cutlass3x_conv_fprop_bias_activation_dual_relu_sm100_tensorop_128x128x32_e4m3_e4m3_f32_e4m3_e4m3_259d0c3ad9dc7b31@cask6_myelin@@YA?AW4Status@1@AEAVContext@1@@Z
    ?InitializeDynamicShaders_cutlass3x_common_cutlass3x_conv_fprop_bias_activation_dual_relu_sm100_tensorop_128x128x32_e4m3_e4m3_f32_e4m3_e4m3_714578ec94c62560@cask6_myelin@@YA?AW4Status@1@AEAVContext@1@@Z
    ?InitializeDynamicShaders_cutlass3x_common_cutlass3x_conv_fprop_bias_activation_dual_relu_sm100_tensorop_128x128x32_e4m3_e4m3_f32_f16_f16_2147985a844af6f1@cask6_myelin@@YA?AW4Status@1@AEAVContext@1@@Z
    ?InitializeDynamicShaders_cutlass3x_common_cutlass3x_conv_fprop_bias_activation_dual_relu_sm100_tensorop_128x128x32_e4m3_e4m3_f32_f16_f16_29aeda29c87d13b8@cask6_myelin@@YA?AW4Status@1@AEAVContext@1@@Z
    ?InitializeDynamicShaders_cutlass3x_common_cutlass3x_conv_fprop_bias_activation_dual_relu_sm100_tensorop_128x128x32_e4m3_e4m3_f32_f32_f32_6ff71419f7115b02@cask6_myelin@@YA?AW4Status@1@AEAVContext@1@@Z
    ?InitializeDynamicShaders_cutlass3x_common_cutlass3x_conv_fprop_bias_activation_dual_relu_sm100_tensorop_128x128x32_e4m3_e4m3_f32_f32_f32_a330dbed3e610067@cask6_myelin@@YA?AW4Status@1@AEAVContext@1@@Z
    ?InitializeDynamicShaders_cutlass3x_common_cutlass3x_conv_fprop_bias_activation_dual_relu_sm100_tensorop_128x128x32_s8_s8_s32_f16_f16_62e0c599191a8a34@cask6_myelin@@YA?AW4Status@1@AEAVContext@1@@Z
    ?InitializeDynamicShaders_cutlass3x_common_cutlass3x_conv_fprop_bias_activation_dual_relu_sm100_tensorop_128x128x32_s8_s8_s32_f16_f16_b4a6d264aa345909@cask6_myelin@@YA?AW4Status@1@AEAVContext@1@@Z
    ?InitializeDynamicShaders_cutlass3x_common_cutlass3x_conv_fprop_bias_activation_dual_relu_sm100_tensorop_128x128x32_s8_s8_s32_f32_f32_cec090f10d062596@cask6_myelin@@YA?AW4Status@1@AEAVContext@1@@Z
    ?InitializeDynamicShaders_cutlass3x_common_cutlass3x_conv_fprop_bias_activation_dual_relu_sm100_tensorop_128x128x32_s8_s8_s32_f32_f32_d6d437c4990726e7@cask6_myelin@@YA?AW4Status@1@AEAVContext@1@@Z
    ?InitializeDynamicShaders_cutlass3x_common_cutlass3x_conv_fprop_bias_activation_dual_relu_sm100_tensorop_128x128x32_s8_s8_s32_s8_s8_f356dcf8b88de74b@cask6_myelin@@YA?AW4Status@1@AEAVContext@1@@Z
    ?InitializeDynamicShaders_cutlass3x_common_cutlass3x_conv_fprop_bias_activation_dual_relu_sm100_tensorop_128x128x32_s8_s8_s32_s8_s8_f9f0ad8ab7b25a68@cask6_myelin@@YA?AW4Status@1@AEAVContext@1@@Z
    ?InitializeDynamicShaders_cutlass3x_common_cutlass3x_conv_fprop_bias_activation_dual_relu_sm100_tensorop_128x256x32_e4m3_e4m3_f32_bf16_bf16_3c92dc92ac1bc02f@cask6_myelin@@YA?AW4Status@1@AEAVContext@1@@Z
    ?InitializeDynamicShaders_cutlass3x_common_cutlass3x_conv_fprop_bias_activation_dual_relu_sm100_tensorop_128x256x32_e4m3_e4m3_f32_bf16_bf16_5c5ba2db9fa7bf49@cask6_myelin@@YA?AW4Status@1@AEAVContext@1@@Z
    ?InitializeDynamicShaders_cutlass3x_common_cutlass3x_conv_fprop_bias_activation_dual_relu_sm100_tensorop_128x256x32_e4m3_e4m3_f32_e4m3_e4m3_5402f1d2a2340a44@cask6_myelin@@YA?AW4Status@1@AEAVContext@1@@Z
    ?InitializeDynamicShaders_cutlass3x_common_cutlass3x_conv_fprop_bias_activation_dual_relu_sm100_tensorop_128x256x32_e4m3_e4m3_f32_e4m3_e4m3_dd0c19a182329ef8@cask6_myelin@@YA?AW4Status@1@AEAVContext@1@@Z
    ?InitializeDynamicShaders_cutlass3x_common_cutlass3x_conv_fprop_bias_activation_dual_relu_sm100_tensorop_128x256x32_e4m3_e4m3_f32_f16_f16_390d595bb9e71741@cask6_myelin@@YA?AW4Status@1@AEAVContext@1@@Z
    ?InitializeDynamicShaders_cutlass3x_common_cutlass3x_conv_fprop_bias_activation_dual_relu_sm100_tensorop_128x256x32_e4m3_e4m3_f32_f16_f16_9a8a789151373572@cask6_myelin@@YA?AW4Status@1@AEAVContext@1@@Z
    ?InitializeDynamicShaders_cutlass3x_common_cutlass3x_conv_fprop_bias_activation_dual_relu_sm100_tensorop_128x256x32_e4m3_e4m3_f32_f32_f32_83cf96d005962ac6@cask6_myelin@@YA?AW4Status@1@AEAVContext@1@@Z
    ?InitializeDynamicShaders_cutlass3x_common_cutlass3x_conv_fprop_bias_activation_dual_relu_sm100_tensorop_128x256x32_e4m3_e4m3_f32_f32_f32_ade504a4a8aef060@cask6_myelin@@YA?AW4Status@1@AEAVContext@1@@Z
    ?InitializeDynamicShaders_cutlass3x_common_cutlass3x_conv_fprop_bias_activation_dual_relu_sm100_tensorop_128x256x32_s8_s8_s32_f16_f16_21e07a27504e1bba@cask6_myelin@@YA?AW4Status@1@AEAVContext@1@@Z
    ?InitializeDynamicShaders_cutlass3x_common_cutlass3x_conv_fprop_bias_activation_dual_relu_sm100_tensorop_128x256x32_s8_s8_s32_f16_f16_95e4a9e88b13f8b6@cask6_myelin@@YA?AW4Status@1@AEAVContext@1@@Z
    ?InitializeDynamicShaders_cutlass3x_common_cutlass3x_conv_fprop_bias_activation_dual_relu_sm100_tensorop_128x256x32_s8_s8_s32_f32_f32_d1698093a6abc84c@cask6_myelin@@YA?AW4Status@1@AEAVContext@1@@Z
    ?InitializeDynamicShaders_cutlass3x_common_cutlass3x_conv_fprop_bias_activation_dual_relu_sm100_tensorop_128x256x32_s8_s8_s32_f32_f32_d77395cc1d4ccbd7@cask6_myelin@@YA?AW4Status@1@AEAVContext@1@@Z
    ?InitializeDynamicShaders_cutlass3x_common_cutlass3x_conv_fprop_bias_activation_dual_relu_sm100_tensorop_128x256x32_s8_s8_s32_s8_s8_2900e0355924a501@cask6_myelin@@YA?AW4Status@1@AEAVContext@1@@Z
    ?InitializeDynamicShaders_cutlass3x_common_cutlass3x_conv_fprop_bias_activation_dual_relu_sm100_tensorop_128x256x32_s8_s8_s32_s8_s8_f97c4c6c18f5366d@cask6_myelin@@YA?AW4Status@1@AEAVContext@1@@Z
    ?InitializeDynamicShaders_cutlass3x_common_cutlass3x_conv_fprop_bias_activation_dual_relu_sm100_tensorop_128x64x32_e4m3_e4m3_f32_bf16_bf16_9801a4bb2ec93a53@cask6_myelin@@YA?AW4Status@1@AEAVContext@1@@Z
    ?InitializeDynamicShaders_cutlass3x_common_cutlass3x_conv_fprop_bias_activation_dual_relu_sm100_tensorop_128x64x32_e4m3_e4m3_f32_bf16_bf16_caac0bdc85a15939@cask6_myelin@@YA?AW4Status@1@AEAVContext@1@@Z
    ?InitializeDynamicShaders_cutlass3x_common_cutlass3x_conv_fprop_bias_activation_dual_relu_sm100_tensorop_128x64x32_e4m3_e4m3_f32_e4m3_e4m3_4ee3cfe93caa842@cask6_myelin@@YA?AW4Status@1@AEAVContext@1@@Z
    ?InitializeDynamicShaders_cutlass3x_common_cutlass3x_conv_fprop_bias_activation_dual_relu_sm100_tensorop_128x64x32_e4m3_e4m3_f32_e4m3_e4m3_c1f24abfcf2d7785@cask6_myelin@@YA?AW4Status@1@AEAVContext@1@@Z
    ?InitializeDynamicShaders_cutlass3x_common_cutlass3x_conv_fprop_bias_activation_dual_relu_sm100_tensorop_128x64x32_e4m3_e4m3_f32_f16_f16_5cb337a008198e59@cask6_myelin@@YA?AW4Status@1@AEAVContext@1@@Z
    ?InitializeDynamicShaders_cutlass3x_common_cutlass3x_conv_fprop_bias_activation_dual_relu_sm100_tensorop_128x64x32_e4m3_e4m3_f32_f16_f16_789d17f2d5ecaf30@cask6_myelin@@YA?AW4Status@1@AEAVContext@1@@Z
    ?InitializeDynamicShaders_cutlass3x_common_cutlass3x_conv_fprop_bias_activation_dual_relu_sm100_tensorop_128x64x32_e4m3_e4m3_f32_f32_f32_241e4814414661c6@cask6_myelin@@YA?AW4Status@1@AEAVContext@1@@Z
    ?InitializeDynamicShaders_cutlass3x_common_cutlass3x_conv_fprop_bias_activation_dual_relu_sm100_tensorop_128x64x32_e4m3_e4m3_f32_f32_f32_78630efd7e67e491@cask6_myelin@@YA?AW4Status@1@AEAVContext@1@@Z
    ?InitializeDynamicShaders_cutlass3x_common_cutlass3x_conv_fprop_bias_activation_dual_relu_sm100_tensorop_128x64x32_s8_s8_s32_f16_f16_1c19a6179c6d4626@cask6_myelin@@YA?AW4Status@1@AEAVContext@1@@Z
    ?InitializeDynamicShaders_cutlass3x_common_cutlass3x_conv_fprop_bias_activation_dual_relu_sm100_tensorop_128x64x32_s8_s8_s32_f16_f16_a17b30148cf1b39c@cask6_myelin@@YA?AW4Status@1@AEAVContext@1@@Z
    ?InitializeDynamicShaders_cutlass3x_common_cutlass3x_conv_fprop_bias_activation_dual_relu_sm100_tensorop_128x64x32_s8_s8_s32_f32_f32_b5f964b956d28945@cask6_myelin@@YA?AW4Status@1@AEAVContext@1@@Z
    ?InitializeDynamicShaders_cutlass3x_common_cutlass3x_conv_fprop_bias_activation_dual_relu_sm100_tensorop_128x64x32_s8_s8_s32_f32_f32_c2cd1c29e5b76c91@cask6_myelin@@YA?AW4Status@1@AEAVContext@1@@Z
    ?InitializeDynamicShaders_cutlass3x_common_cutlass3x_conv_fprop_bias_activation_dual_relu_sm100_tensorop_128x64x32_s8_s8_s32_s8_s8_6d8c9d932ccecb1e@cask6_myelin@@YA?AW4Status@1@AEAVContext@1@@Z
    ?InitializeDynamicShaders_cutlass3x_common_cutlass3x_conv_fprop_bias_activation_dual_relu_sm100_tensorop_128x64x32_s8_s8_s32_s8_s8_df8f47f764b1269f@cask6_myelin@@YA?AW4Status@1@AEAVContext@1@@Z
    ?InitializeDynamicShaders_cutlass3x_common_cutlass3x_conv_fprop_bias_activation_dual_relu_sm100_tensorop_256x128x32_e4m3_e4m3_f32_bf16_bf16_e4ef57796aa2878c@cask6_myelin@@YA?AW4Status@1@AEAVContext@1@@Z
    ?InitializeDynamicShaders_cutlass3x_common_cutlass3x_conv_fprop_bias_activation_dual_relu_sm100_tensorop_256x128x32_e4m3_e4m3_f32_e4m3_e4m3_cbfd2da1945efd0f@cask6_myelin@@YA?AW4Status@1@AEAVContext@1@@Z
    ?InitializeDynamicShaders_cutlass3x_common_cutlass3x_conv_fprop_bias_activation_dual_relu_sm100_tensorop_256x128x32_e4m3_e4m3_f32_f16_f16_5460031c6c002c67@cask6_myelin@@YA?AW4Status@1@AEAVContext@1@@Z
    ?InitializeDynamicShaders_cutlass3x_common_cutlass3x_conv_fprop_bias_activation_dual_relu_sm100_tensorop_256x128x32_e4m3_e4m3_f32_f32_f32_989f9f58e6cc328b@cask6_myelin@@YA?AW4Status@1@AEAVContext@1@@Z
    ?InitializeDynamicShaders_cutlass3x_common_cutlass3x_conv_fprop_bias_activation_dual_relu_sm100_tensorop_256x128x32_s8_s8_s32_f16_f16_49774f798297ffae@cask6_myelin@@YA?AW4Status@1@AEAVContext@1@@Z
    ?InitializeDynamicShaders_cutlass3x_common_cutlass3x_conv_fprop_bias_activation_dual_relu_sm100_tensorop_256x128x32_s8_s8_s32_f32_f32_e6543e8f08075367@cask6_myelin@@YA?AW4Status@1@AEAVContext@1@@Z
    ?InitializeDynamicShaders_cutlass3x_common_cutlass3x_conv_fprop_bias_activation_dual_relu_sm100_tensorop_256x128x32_s8_s8_s32_s8_s8_e7d58ad1823a748@cask6_myelin@@YA?AW4Status@1@AEAVContext@1@@Z
    ?InitializeDynamicShaders_cutlass3x_common_cutlass3x_conv_fprop_bias_activation_dual_relu_sm100_tensorop_256x256x32_e4m3_e4m3_f32_bf16_bf16_a05c51e4b6b479e@cask6_myelin@@YA?AW4Status@1@AEAVContext@1@@Z
    ?InitializeDynamicShaders_cutlass3x_common_cutlass3x_conv_fprop_bias_activation_dual_relu_sm100_tensorop_256x256x32_e4m3_e4m3_f32_e4m3_e4m3_8df6e0bfe2c5413f@cask6_myelin@@YA?AW4Status@1@AEAVContext@1@@Z
    ?InitializeDynamicShaders_cutlass3x_common_cutlass3x_conv_fprop_bias_activation_dual_relu_sm100_tensorop_256x256x32_e4m3_e4m3_f32_f16_f16_64d2ddb244786538@cask6_myelin@@YA?AW4Status@1@AEAVContext@1@@Z
    ?InitializeDynamicShaders_cutlass3x_common_cutlass3x_conv_fprop_bias_activation_dual_relu_sm100_tensorop_256x256x32_e4m3_e4m3_f32_f32_f32_4e3e5675fd5f32cb@cask6_myelin@@YA?AW4Status@1@AEAVContext@1@@Z
    ?InitializeDynamicShaders_cutlass3x_common_cutlass3x_conv_fprop_bias_activation_dual_relu_sm100_tensorop_256x256x32_s8_s8_s32_f16_f16_f4372432544ff48e@cask6_myelin@@YA?AW4Status@1@AEAVContext@1@@Z
    ?InitializeDynamicShaders_cutlass3x_common_cutlass3x_conv_fprop_bias_activation_dual_relu_sm100_tensorop_256x256x32_s8_s8_s32_f32_f32_e606e322a3109eb6@cask6_myelin@@YA?AW4Status@1@AEAVContext@1@@Z
    ?InitializeDynamicShaders_cutlass3x_common_cutlass3x_conv_fprop_bias_activation_dual_relu_sm100_tensorop_256x256x32_s8_s8_s32_s8_s8_71011440ec95c62c@cask6_myelin@@YA?AW4Status@1@AEAVContext@1@@Z
    ?InitializeDynamicShaders_cutlass3x_common_cutlass3x_conv_fprop_bias_activation_dual_relu_sm100_tensorop_256x64x32_e4m3_e4m3_f32_bf16_bf16_7144520c3b558b88@cask6_myelin@@YA?AW4Status@1@AEAVContext@1@@Z
    ?InitializeDynamicShaders_cutlass3x_common_cutlass3x_conv_fprop_bias_activation_dual_relu_sm100_tensorop_256x64x32_e4m3_e4m3_f32_e4m3_e4m3_371067e8c9a0badd@cask6_myelin@@YA?AW4Status@1@AEAVContext@1@@Z
    ?InitializeDynamicShaders_cutlass3x_common_cutlass3x_conv_fprop_bias_activation_dual_relu_sm100_tensorop_256x64x32_e4m3_e4m3_f32_f16_f16_76e8e5dbdcb3eff0@cask6_myelin@@YA?AW4Status@1@AEAVContext@1@@Z
    ?InitializeDynamicShaders_cutlass3x_common_cutlass3x_conv_fprop_bias_activation_dual_relu_sm100_tensorop_256x64x32_e4m3_e4m3_f32_f32_f32_93e99aed8a2da68d@cask6_myelin@@YA?AW4Status@1@AEAVContext@1@@Z
    ?InitializeDynamicShaders_cutlass3x_common_cutlass3x_conv_fprop_bias_activation_dual_relu_sm100_tensorop_256x64x32_s8_s8_s32_f16_f16_c877bd8961e024e8@cask6_myelin@@YA?AW4Status@1@AEAVContext@1@@Z
    ?InitializeDynamicShaders_cutlass3x_common_cutlass3x_conv_fprop_bias_activation_dual_relu_sm100_tensorop_256x64x32_s8_s8_s32_f32_f32_329a2458d294aab@cask6_myelin@@YA?AW4Status@1@AEAVContext@1@@Z
    ?InitializeDynamicShaders_cutlass3x_common_cutlass3x_conv_fprop_bias_activation_dual_relu_sm100_tensorop_256x64x32_s8_s8_s32_s8_s8_e95de7e2460cd16f@cask6_myelin@@YA?AW4Status@1@AEAVContext@1@@Z
    ?InitializeDynamicShaders_cutlass3x_common_cutlass3x_conv_fprop_bias_activation_dual_relu_sm100_tensorop_64x128x32_e4m3_e4m3_f32_bf16_bf16_3f1c2ddaa3f9f903@cask6_myelin@@YA?AW4Status@1@AEAVContext@1@@Z
    ?InitializeDynamicShaders_cutlass3x_common_cutlass3x_conv_fprop_bias_activation_dual_relu_sm100_tensorop_64x128x32_e4m3_e4m3_f32_e4m3_e4m3_6c19718834b17356@cask6_myelin@@YA?AW4Status@1@AEAVContext@1@@Z
    ?InitializeDynamicShaders_cutlass3x_common_cutlass3x_conv_fprop_bias_activation_dual_relu_sm100_tensorop_64x128x32_e4m3_e4m3_f32_f16_f16_b61713879373d70a@cask6_myelin@@YA?AW4Status@1@AEAVContext@1@@Z
    ?InitializeDynamicShaders_cutlass3x_common_cutlass3x_conv_fprop_bias_activation_dual_relu_sm100_tensorop_64x128x32_e4m3_e4m3_f32_f32_f32_a1f77c6c6b814353@cask6_myelin@@YA?AW4Status@1@AEAVContext@1@@Z
    ?InitializeDynamicShaders_cutlass3x_common_cutlass3x_conv_fprop_bias_activation_dual_relu_sm100_tensorop_64x128x32_s8_s8_s32_f16_f16_c10dd937554be76@cask6_myelin@@YA?AW4Status@1@AEAVContext@1@@Z
    ?InitializeDynamicShaders_cutlass3x_common_cutlass3x_conv_fprop_bias_activation_dual_relu_sm100_tensorop_64x128x32_s8_s8_s32_f32_f32_73a14a9f47a0419a@cask6_myelin@@YA?AW4Status@1@AEAVContext@1@@Z
    ?InitializeDynamicShaders_cutlass3x_common_cutlass3x_conv_fprop_bias_activation_dual_relu_sm100_tensorop_64x128x32_s8_s8_s32_s8_s8_d2655f8ea15af4a4@cask6_myelin@@YA?AW4Status@1@AEAVContext@1@@Z
    ?InitializeDynamicShaders_cutlass3x_common_cutlass3x_conv_fprop_bias_activation_dual_relu_sm100_tensorop_64x64x32_e4m3_e4m3_f32_bf16_bf16_b0628c573102952c@cask6_myelin@@YA?AW4Status@1@AEAVContext@1@@Z
    ?InitializeDynamicShaders_cutlass3x_common_cutlass3x_conv_fprop_bias_activation_dual_relu_sm100_tensorop_64x64x32_e4m3_e4m3_f32_e4m3_e4m3_e8f6138742268dff@cask6_myelin@@YA?AW4Status@1@AEAVContext@1@@Z
    ?InitializeDynamicShaders_cutlass3x_common_cutlass3x_conv_fprop_bias_activation_dual_relu_sm100_tensorop_64x64x32_e4m3_e4m3_f32_f16_f16_5f1f80a8edc8acf9@cask6_myelin@@YA?AW4Status@1@AEAVContext@1@@Z
    ?InitializeDynamicShaders_cutlass3x_common_cutlass3x_conv_fprop_bias_activation_dual_relu_sm100_tensorop_64x64x32_e4m3_e4m3_f32_f32_f32_f91cb8fce97548c7@cask6_myelin@@YA?AW4Status@1@AEAVContext@1@@Z
    ?InitializeDynamicShaders_cutlass3x_common_cutlass3x_conv_fprop_bias_activation_dual_relu_sm100_tensorop_64x64x32_s8_s8_s32_f16_f16_e317d8bb54eea111@cask6_myelin@@YA?AW4Status@1@AEAVContext@1@@Z
    ?InitializeDynamicShaders_cutlass3x_common_cutlass3x_conv_fprop_bias_activation_dual_relu_sm100_tensorop_64x64x32_s8_s8_s32_f32_f32_dcc45db38dd8589@cask6_myelin@@YA?AW4Status@1@AEAVContext@1@@Z
    ?InitializeDynamicShaders_cutlass3x_common_cutlass3x_conv_fprop_bias_activation_dual_relu_sm100_tensorop_64x64x32_s8_s8_s32_s8_s8_d37b8c729e20c655@cask6_myelin@@YA?AW4Status@1@AEAVContext@1@@Z
    ?InitializeDynamicShaders_cutlass3x_common_cutlass3x_conv_fprop_bias_activation_gelu_sm100_tensorop_64x128x32_e4m3_e4m3_f32_bf16_bf16_53895c49de3f4d0e@cask6_myelin@@YA?AW4Status@1@AEAVContext@1@@Z
    ?InitializeDynamicShaders_cutlass3x_common_cutlass3x_conv_fprop_bias_activation_gelu_sm100_tensorop_64x128x32_e4m3_e4m3_f32_e4m3_e4m3_3fbe2aca5712ddc4@cask6_myelin@@YA?AW4Status@1@AEAVContext@1@@Z
    ?InitializeDynamicShaders_cutlass3x_common_cutlass3x_conv_fprop_bias_activation_gelu_sm100_tensorop_64x128x32_e4m3_e4m3_f32_f16_f16_4ed559ae943c6ff6@cask6_myelin@@YA?AW4Status@1@AEAVContext@1@@Z
    ?InitializeDynamicShaders_cutlass3x_common_cutlass3x_conv_fprop_bias_activation_gelu_sm100_tensorop_64x128x32_e4m3_e4m3_f32_f32_f32_594cdd8fc994cd7b@cask6_myelin@@YA?AW4Status@1@AEAVContext@1@@Z
    ?InitializeDynamicShaders_cutlass3x_common_cutlass3x_conv_fprop_bias_activation_gelu_sm100_tensorop_64x128x32_s8_s8_s32_f16_f16_a3fb12a4163f59cf@cask6_myelin@@YA?AW4Status@1@AEAVContext@1@@Z
    ?InitializeDynamicShaders_cutlass3x_common_cutlass3x_conv_fprop_bias_activation_gelu_sm100_tensorop_64x128x32_s8_s8_s32_f32_f32_cc68e9ab6b407041@cask6_myelin@@YA?AW4Status@1@AEAVContext@1@@Z
    ?InitializeDynamicShaders_cutlass3x_common_cutlass3x_conv_fprop_bias_activation_gelu_sm100_tensorop_64x128x32_s8_s8_s32_s8_s8_59503cbf9b389e26@cask6_myelin@@YA?AW4Status@1@AEAVContext@1@@Z
    ?InitializeDynamicShaders_cutlass3x_common_cutlass3x_conv_fprop_bias_activation_gelu_sm100_tensorop_64x128x8_f32_f32_f32_f32_f32_ca48cca2728a8128@cask6_myelin@@YA?AW4Status@1@AEAVContext@1@@Z
    ?InitializeDynamicShaders_cutlass3x_common_cutlass3x_conv_fprop_bias_activation_gelu_sm100_tensorop_64x64x16_bf16_bf16_f32_bf16_bf16_eac4bbc971507e92@cask6_myelin@@YA?AW4Status@1@AEAVContext@1@@Z
    ?InitializeDynamicShaders_cutlass3x_common_cutlass3x_conv_fprop_bias_activation_gelu_sm100_tensorop_64x64x16_f16_f16_f16_f16_f16_d92396cdbe39ee73@cask6_myelin@@YA?AW4Status@1@AEAVContext@1@@Z
    ?InitializeDynamicShaders_cutlass3x_common_cutlass3x_conv_fprop_bias_activation_gelu_sm100_tensorop_64x64x16_f16_f16_f32_f16_f16_ae9cc18c697542ae@cask6_myelin@@YA?AW4Status@1@AEAVContext@1@@Z
    ?InitializeDynamicShaders_cutlass3x_common_cutlass3x_conv_fprop_bias_activation_gelu_sm100_tensorop_64x64x32_e4m3_e4m3_f32_bf16_bf16_4998dcc9c621176f@cask6_myelin@@YA?AW4Status@1@AEAVContext@1@@Z
    ?InitializeDynamicShaders_cutlass3x_common_cutlass3x_conv_fprop_bias_activation_gelu_sm100_tensorop_64x64x32_e4m3_e4m3_f32_e4m3_e4m3_2ef2ceae5013526e@cask6_myelin@@YA?AW4Status@1@AEAVContext@1@@Z
    ?InitializeDynamicShaders_cutlass3x_common_cutlass3x_conv_fprop_bias_activation_gelu_sm100_tensorop_64x64x32_e4m3_e4m3_f32_f16_f16_f71784e4276abb97@cask6_myelin@@YA?AW4Status@1@AEAVContext@1@@Z
    ?InitializeDynamicShaders_cutlass3x_common_cutlass3x_conv_fprop_bias_activation_gelu_sm100_tensorop_64x64x32_e4m3_e4m3_f32_f32_f32_6d1cd24512731e77@cask6_myelin@@YA?AW4Status@1@AEAVContext@1@@Z
    ?InitializeDynamicShaders_cutlass3x_common_cutlass3x_conv_fprop_bias_activation_gelu_sm100_tensorop_64x64x32_s8_s8_s32_f16_f16_481dbfb271dcd841@cask6_myelin@@YA?AW4Status@1@AEAVContext@1@@Z
    ?InitializeDynamicShaders_cutlass3x_common_cutlass3x_conv_fprop_bias_activation_gelu_sm100_tensorop_64x64x32_s8_s8_s32_f32_f32_119d7ac684db5061@cask6_myelin@@YA?AW4Status@1@AEAVContext@1@@Z
    ?InitializeDynamicShaders_cutlass3x_common_cutlass3x_conv_fprop_bias_activation_gelu_sm100_tensorop_64x64x32_s8_s8_s32_s8_s8_f803fbb2ba2ba878@cask6_myelin@@YA?AW4Status@1@AEAVContext@1@@Z
    ?InitializeDynamicShaders_cutlass3x_common_cutlass3x_conv_fprop_bias_activation_hard_swish_sm100_tensorop_128x128x16_bf16_bf16_f32_bf16_bf16_635267b88648408@cask6_myelin@@YA?AW4Status@1@AEAVContext@1@@Z
    ?InitializeDynamicShaders_cutlass3x_common_cutlass3x_conv_fprop_bias_activation_hard_swish_sm100_tensorop_128x128x16_bf16_bf16_f32_bf16_bf16_f29b14297f5fc10a@cask6_myelin@@YA?AW4Status@1@AEAVContext@1@@Z
    ?InitializeDynamicShaders_cutlass3x_common_cutlass3x_conv_fprop_bias_activation_hard_swish_sm100_tensorop_128x128x16_f16_f16_f16_f16_f16_c82e26e0813e9932@cask6_myelin@@YA?AW4Status@1@AEAVContext@1@@Z
    ?InitializeDynamicShaders_cutlass3x_common_cutlass3x_conv_fprop_bias_activation_hard_swish_sm100_tensorop_128x128x16_f16_f16_f16_f16_f16_cf0ecdc69465c676@cask6_myelin@@YA?AW4Status@1@AEAVContext@1@@Z
    ?InitializeDynamicShaders_cutlass3x_common_cutlass3x_conv_fprop_bias_activation_hard_swish_sm100_tensorop_128x128x16_f16_f16_f32_f16_f16_1037373902624d34@cask6_myelin@@YA?AW4Status@1@AEAVContext@1@@Z
    ?InitializeDynamicShaders_cutlass3x_common_cutlass3x_conv_fprop_bias_activation_hard_swish_sm100_tensorop_128x128x16_f16_f16_f32_f16_f16_8328c3a17cd0f670@cask6_myelin@@YA?AW4Status@1@AEAVContext@1@@Z
    ?InitializeDynamicShaders_cutlass3x_common_cutlass3x_conv_fprop_bias_activation_hard_swish_sm100_tensorop_128x128x32_e4m3_e4m3_f32_bf16_bf16_35d35b5a47ce7b5a@cask6_myelin@@YA?AW4Status@1@AEAVContext@1@@Z
    ?InitializeDynamicShaders_cutlass3x_common_cutlass3x_conv_fprop_bias_activation_hard_swish_sm100_tensorop_128x128x32_e4m3_e4m3_f32_bf16_bf16_f514a7be0317db1e@cask6_myelin@@YA?AW4Status@1@AEAVContext@1@@Z
    ?InitializeDynamicShaders_cutlass3x_common_cutlass3x_conv_fprop_bias_activation_hard_swish_sm100_tensorop_128x128x32_e4m3_e4m3_f32_e4m3_e4m3_5c765067bff71e89@cask6_myelin@@YA?AW4Status@1@AEAVContext@1@@Z
    ?InitializeDynamicShaders_cutlass3x_common_cutlass3x_conv_fprop_bias_activation_hard_swish_sm100_tensorop_128x128x32_e4m3_e4m3_f32_e4m3_e4m3_850331eed2661455@cask6_myelin@@YA?AW4Status@1@AEAVContext@1@@Z
    ?InitializeDynamicShaders_cutlass3x_common_cutlass3x_conv_fprop_bias_activation_hard_swish_sm100_tensorop_128x128x32_e4m3_e4m3_f32_f16_f16_36f55369d8789484@cask6_myelin@@YA?AW4Status@1@AEAVContext@1@@Z
    ?InitializeDynamicShaders_cutlass3x_common_cutlass3x_conv_fprop_bias_activation_hard_swish_sm100_tensorop_128x128x32_e4m3_e4m3_f32_f16_f16_f1b1e2c9aad285ce@cask6_myelin@@YA?AW4Status@1@AEAVContext@1@@Z
    ?InitializeDynamicShaders_cutlass3x_common_cutlass3x_conv_fprop_bias_activation_hard_swish_sm100_tensorop_128x128x32_e4m3_e4m3_f32_f32_f32_28a20765da87fd9f@cask6_myelin@@YA?AW4Status@1@AEAVContext@1@@Z
    ?InitializeDynamicShaders_cutlass3x_common_cutlass3x_conv_fprop_bias_activation_hard_swish_sm100_tensorop_128x128x32_e4m3_e4m3_f32_f32_f32_6d3cf94307b8df9f@cask6_myelin@@YA?AW4Status@1@AEAVContext@1@@Z
    ?InitializeDynamicShaders_cutlass3x_common_cutlass3x_conv_fprop_bias_activation_hard_swish_sm100_tensorop_128x128x32_s8_s8_s32_f16_f16_a4d7a0e8023b844a@cask6_myelin@@YA?AW4Status@1@AEAVContext@1@@Z
    ?InitializeDynamicShaders_cutlass3x_common_cutlass3x_conv_fprop_bias_activation_hard_swish_sm100_tensorop_128x128x32_s8_s8_s32_f16_f16_ff1ee4d47bf612e1@cask6_myelin@@YA?AW4Status@1@AEAVContext@1@@Z
    ?InitializeDynamicShaders_cutlass3x_common_cutlass3x_conv_fprop_bias_activation_hard_swish_sm100_tensorop_128x128x32_s8_s8_s32_f32_f32_7adbf99ec011ada5@cask6_myelin@@YA?AW4Status@1@AEAVContext@1@@Z
    ?InitializeDynamicShaders_cutlass3x_common_cutlass3x_conv_fprop_bias_activation_hard_swish_sm100_tensorop_128x128x32_s8_s8_s32_f32_f32_bce13e6795fb3be@cask6_myelin@@YA?AW4Status@1@AEAVContext@1@@Z
    ?InitializeDynamicShaders_cutlass3x_common_cutlass3x_conv_fprop_bias_activation_hard_swish_sm100_tensorop_128x128x32_s8_s8_s32_s8_s8_45f02ed2dc559576@cask6_myelin@@YA?AW4Status@1@AEAVContext@1@@Z
    ?InitializeDynamicShaders_cutlass3x_common_cutlass3x_conv_fprop_bias_activation_hard_swish_sm100_tensorop_128x128x32_s8_s8_s32_s8_s8_69023793bd9cacb9@cask6_myelin@@YA?AW4Status@1@AEAVContext@1@@Z
    ?InitializeDynamicShaders_cutlass3x_common_cutlass3x_conv_fprop_bias_activation_hard_swish_sm100_tensorop_128x256x16_bf16_bf16_f32_bf16_bf16_228b04a3b80116b5@cask6_myelin@@YA?AW4Status@1@AEAVContext@1@@Z
    ?InitializeDynamicShaders_cutlass3x_common_cutlass3x_conv_fprop_bias_activation_hard_swish_sm100_tensorop_128x256x16_bf16_bf16_f32_bf16_bf16_c5feccac79c72919@cask6_myelin@@YA?AW4Status@1@AEAVContext@1@@Z
    ?InitializeDynamicShaders_cutlass3x_common_cutlass3x_conv_fprop_bias_activation_hard_swish_sm100_tensorop_128x256x16_f16_f16_f16_f16_f16_bd8ed3356c2bcc19@cask6_myelin@@YA?AW4Status@1@AEAVContext@1@@Z
    ?InitializeDynamicShaders_cutlass3x_common_cutlass3x_conv_fprop_bias_activation_hard_swish_sm100_tensorop_128x256x16_f16_f16_f16_f16_f16_e1007ae2ec1c28ab@cask6_myelin@@YA?AW4Status@1@AEAVContext@1@@Z
    ?InitializeDynamicShaders_cutlass3x_common_cutlass3x_conv_fprop_bias_activation_hard_swish_sm100_tensorop_128x256x16_f16_f16_f32_f16_f16_7598d7acdfd8b52f@cask6_myelin@@YA?AW4Status@1@AEAVContext@1@@Z
    ?InitializeDynamicShaders_cutlass3x_common_cutlass3x_conv_fprop_bias_activation_hard_swish_sm100_tensorop_128x256x16_f16_f16_f32_f16_f16_8770627cfe05eed@cask6_myelin@@YA?AW4Status@1@AEAVContext@1@@Z
    ?InitializeDynamicShaders_cutlass3x_common_cutlass3x_conv_fprop_bias_activation_hard_swish_sm100_tensorop_128x256x32_e4m3_e4m3_f32_bf16_bf16_3866d2fbc0b414f9@cask6_myelin@@YA?AW4Status@1@AEAVContext@1@@Z
    ?InitializeDynamicShaders_cutlass3x_common_cutlass3x_conv_fprop_bias_activation_hard_swish_sm100_tensorop_128x256x32_e4m3_e4m3_f32_bf16_bf16_91cefcbe1cb3484f@cask6_myelin@@YA?AW4Status@1@AEAVContext@1@@Z
    ?InitializeDynamicShaders_cutlass3x_common_cutlass3x_conv_fprop_bias_activation_hard_swish_sm100_tensorop_128x256x32_e4m3_e4m3_f32_e4m3_e4m3_8fbdd0976054552f@cask6_myelin@@YA?AW4Status@1@AEAVContext@1@@Z
    ?InitializeDynamicShaders_cutlass3x_common_cutlass3x_conv_fprop_bias_activation_hard_swish_sm100_tensorop_128x256x32_e4m3_e4m3_f32_e4m3_e4m3_d2833c90de6026be@cask6_myelin@@YA?AW4Status@1@AEAVContext@1@@Z
    ?InitializeDynamicShaders_cutlass3x_common_cutlass3x_conv_fprop_bias_activation_hard_swish_sm100_tensorop_128x256x32_e4m3_e4m3_f32_f16_f16_a2e760dd7cd297f9@cask6_myelin@@YA?AW4Status@1@AEAVContext@1@@Z
    ?InitializeDynamicShaders_cutlass3x_common_cutlass3x_conv_fprop_bias_activation_hard_swish_sm100_tensorop_128x256x32_e4m3_e4m3_f32_f16_f16_e1d754c0cf7fac50@cask6_myelin@@YA?AW4Status@1@AEAVContext@1@@Z
    ?InitializeDynamicShaders_cutlass3x_common_cutlass3x_conv_fprop_bias_activation_hard_swish_sm100_tensorop_128x256x32_e4m3_e4m3_f32_f32_f32_bd0cec8ad8584dce@cask6_myelin@@YA?AW4Status@1@AEAVContext@1@@Z
    ?InitializeDynamicShaders_cutlass3x_common_cutlass3x_conv_fprop_bias_activation_hard_swish_sm100_tensorop_128x256x32_e4m3_e4m3_f32_f32_f32_d8a972a5747f4b8@cask6_myelin@@YA?AW4Status@1@AEAVContext@1@@Z
    ?InitializeDynamicShaders_cutlass3x_common_cutlass3x_conv_fprop_bias_activation_hard_swish_sm100_tensorop_128x256x32_s8_s8_s32_f16_f16_25b7e6129526a309@cask6_myelin@@YA?AW4Status@1@AEAVContext@1@@Z
    ?InitializeDynamicShaders_cutlass3x_common_cutlass3x_conv_fprop_bias_activation_hard_swish_sm100_tensorop_128x256x32_s8_s8_s32_f16_f16_9e8160290c47d94d@cask6_myelin@@YA?AW4Status@1@AEAVContext@1@@Z
    ?InitializeDynamicShaders_cutlass3x_common_cutlass3x_conv_fprop_bias_activation_hard_swish_sm100_tensorop_128x256x32_s8_s8_s32_f32_f32_506754b78f397faf@cask6_myelin@@YA?AW4Status@1@AEAVContext@1@@Z
    ?InitializeDynamicShaders_cutlass3x_common_cutlass3x_conv_fprop_bias_activation_hard_swish_sm100_tensorop_128x256x32_s8_s8_s32_f32_f32_acbc99927ee1587f@cask6_myelin@@YA?AW4Status@1@AEAVContext@1@@Z
    ?InitializeDynamicShaders_cutlass3x_common_cutlass3x_conv_fprop_bias_activation_hard_swish_sm100_tensorop_128x256x32_s8_s8_s32_s8_s8_659ccafa376bcd93@cask6_myelin@@YA?AW4Status@1@AEAVContext@1@@Z
    ?InitializeDynamicShaders_cutlass3x_common_cutlass3x_conv_fprop_bias_activation_hard_swish_sm100_tensorop_128x256x32_s8_s8_s32_s8_s8_e7097e02f96c64ed@cask6_myelin@@YA?AW4Status@1@AEAVContext@1@@Z
    ?InitializeDynamicShaders_cutlass3x_common_cutlass3x_conv_fprop_bias_activation_hard_swish_sm100_tensorop_128x64x16_bf16_bf16_f32_bf16_bf16_adeed41cb6d6c37c@cask6_myelin@@YA?AW4Status@1@AEAVContext@1@@Z
    ?InitializeDynamicShaders_cutlass3x_common_cutlass3x_conv_fprop_bias_activation_hard_swish_sm100_tensorop_128x64x16_bf16_bf16_f32_bf16_bf16_d7ba9376ad4783ff@cask6_myelin@@YA?AW4Status@1@AEAVContext@1@@Z
    ?InitializeDynamicShaders_cutlass3x_common_cutlass3x_conv_fprop_bias_activation_hard_swish_sm100_tensorop_128x64x16_f16_f16_f16_f16_f16_19054166dde641b7@cask6_myelin@@YA?AW4Status@1@AEAVContext@1@@Z
    ?InitializeDynamicShaders_cutlass3x_common_cutlass3x_conv_fprop_bias_activation_hard_swish_sm100_tensorop_128x64x16_f16_f16_f16_f16_f16_78bc053cffa92043@cask6_myelin@@YA?AW4Status@1@AEAVContext@1@@Z
    ?InitializeDynamicShaders_cutlass3x_common_cutlass3x_conv_fprop_bias_activation_hard_swish_sm100_tensorop_128x64x16_f16_f16_f32_f16_f16_d9e28afd942d56fd@cask6_myelin@@YA?AW4Status@1@AEAVContext@1@@Z
    ?InitializeDynamicShaders_cutlass3x_common_cutlass3x_conv_fprop_bias_activation_hard_swish_sm100_tensorop_128x64x16_f16_f16_f32_f16_f16_e19d71c9a65f4800@cask6_myelin@@YA?AW4Status@1@AEAVContext@1@@Z
    ?InitializeDynamicShaders_cutlass3x_common_cutlass3x_conv_fprop_bias_activation_hard_swish_sm100_tensorop_128x64x32_e4m3_e4m3_f32_bf16_bf16_88aa056764216d67@cask6_myelin@@YA?AW4Status@1@AEAVContext@1@@Z
    ?InitializeDynamicShaders_cutlass3x_common_cutlass3x_conv_fprop_bias_activation_hard_swish_sm100_tensorop_128x64x32_e4m3_e4m3_f32_bf16_bf16_aa33c713a5a426d0@cask6_myelin@@YA?AW4Status@1@AEAVContext@1@@Z
    ?InitializeDynamicShaders_cutlass3x_common_cutlass3x_conv_fprop_bias_activation_hard_swish_sm100_tensorop_128x64x32_e4m3_e4m3_f32_e4m3_e4m3_51fa338cb414e5e0@cask6_myelin@@YA?AW4Status@1@AEAVContext@1@@Z
    ?InitializeDynamicShaders_cutlass3x_common_cutlass3x_conv_fprop_bias_activation_hard_swish_sm100_tensorop_128x64x32_e4m3_e4m3_f32_e4m3_e4m3_72c4c037157c5713@cask6_myelin@@YA?AW4Status@1@AEAVContext@1@@Z
    ?InitializeDynamicShaders_cutlass3x_common_cutlass3x_conv_fprop_bias_activation_hard_swish_sm100_tensorop_128x64x32_e4m3_e4m3_f32_f16_f16_9ac4a55b0c51625f@cask6_myelin@@YA?AW4Status@1@AEAVContext@1@@Z
    ?InitializeDynamicShaders_cutlass3x_common_cutlass3x_conv_fprop_bias_activation_hard_swish_sm100_tensorop_128x64x32_e4m3_e4m3_f32_f16_f16_bc199c90b6c01904@cask6_myelin@@YA?AW4Status@1@AEAVContext@1@@Z
    ?InitializeDynamicShaders_cutlass3x_common_cutlass3x_conv_fprop_bias_activation_hard_swish_sm100_tensorop_128x64x32_e4m3_e4m3_f32_f32_f32_74b6eb9e2db6b349@cask6_myelin@@YA?AW4Status@1@AEAVContext@1@@Z
    ?InitializeDynamicShaders_cutlass3x_common_cutlass3x_conv_fprop_bias_activation_hard_swish_sm100_tensorop_128x64x32_e4m3_e4m3_f32_f32_f32_ae017b7c62489649@cask6_myelin@@YA?AW4Status@1@AEAVContext@1@@Z
    ?InitializeDynamicShaders_cutlass3x_common_cutlass3x_conv_fprop_bias_activation_hard_swish_sm100_tensorop_128x64x32_s8_s8_s32_f16_f16_23f6c948d1d79a7a@cask6_myelin@@YA?AW4Status@1@AEAVContext@1@@Z
    ?InitializeDynamicShaders_cutlass3x_common_cutlass3x_conv_fprop_bias_activation_hard_swish_sm100_tensorop_128x64x32_s8_s8_s32_f16_f16_8729291adca78450@cask6_myelin@@YA?AW4Status@1@AEAVContext@1@@Z
    ?InitializeDynamicShaders_cutlass3x_common_cutlass3x_conv_fprop_bias_activation_hard_swish_sm100_tensorop_128x64x32_s8_s8_s32_f32_f32_ddeecb75118c2651@cask6_myelin@@YA?AW4Status@1@AEAVContext@1@@Z
    ?InitializeDynamicShaders_cutlass3x_common_cutlass3x_conv_fprop_bias_activation_hard_swish_sm100_tensorop_128x64x32_s8_s8_s32_f32_f32_e0744a66174f111a@cask6_myelin@@YA?AW4Status@1@AEAVContext@1@@Z
    ?InitializeDynamicShaders_cutlass3x_common_cutlass3x_conv_fprop_bias_activation_hard_swish_sm100_tensorop_128x64x32_s8_s8_s32_s8_s8_91748e208c035913@cask6_myelin@@YA?AW4Status@1@AEAVContext@1@@Z
    ?InitializeDynamicShaders_cutlass3x_common_cutlass3x_conv_fprop_bias_activation_hard_swish_sm100_tensorop_128x64x32_s8_s8_s32_s8_s8_d581badfb49a655d@cask6_myelin@@YA?AW4Status@1@AEAVContext@1@@Z
    ?InitializeDynamicShaders_cutlass3x_common_cutlass3x_conv_fprop_bias_activation_hard_swish_sm100_tensorop_256x128x16_bf16_bf16_f32_bf16_bf16_4b7fbbe7cb17de4f@cask6_myelin@@YA?AW4Status@1@AEAVContext@1@@Z
    ?InitializeDynamicShaders_cutlass3x_common_cutlass3x_conv_fprop_bias_activation_hard_swish_sm100_tensorop_256x128x16_f16_f16_f16_f16_f16_73c22bde3fbf47b5@cask6_myelin@@YA?AW4Status@1@AEAVContext@1@@Z
    ?InitializeDynamicShaders_cutlass3x_common_cutlass3x_conv_fprop_bias_activation_hard_swish_sm100_tensorop_256x128x16_f16_f16_f32_f16_f16_e27e0ff779a36b0c@cask6_myelin@@YA?AW4Status@1@AEAVContext@1@@Z
    ?InitializeDynamicShaders_cutlass3x_common_cutlass3x_conv_fprop_bias_activation_hard_swish_sm100_tensorop_256x128x32_e4m3_e4m3_f32_bf16_bf16_c475e785cc032e6e@cask6_myelin@@YA?AW4Status@1@AEAVContext@1@@Z
    ?InitializeDynamicShaders_cutlass3x_common_cutlass3x_conv_fprop_bias_activation_hard_swish_sm100_tensorop_256x128x32_e4m3_e4m3_f32_e4m3_e4m3_871a26f2dcd3305f@cask6_myelin@@YA?AW4Status@1@AEAVContext@1@@Z
    ?InitializeDynamicShaders_cutlass3x_common_cutlass3x_conv_fprop_bias_activation_hard_swish_sm100_tensorop_256x128x32_e4m3_e4m3_f32_f16_f16_92940b9a64329216@cask6_myelin@@YA?AW4Status@1@AEAVContext@1@@Z
    ?InitializeDynamicShaders_cutlass3x_common_cutlass3x_conv_fprop_bias_activation_hard_swish_sm100_tensorop_256x128x32_e4m3_e4m3_f32_f32_f32_a47683253bacb4dd@cask6_myelin@@YA?AW4Status@1@AEAVContext@1@@Z
    ?InitializeDynamicShaders_cutlass3x_common_cutlass3x_conv_fprop_bias_activation_hard_swish_sm100_tensorop_256x128x32_s8_s8_s32_f16_f16_e0ba0302a01f2ad@cask6_myelin@@YA?AW4Status@1@AEAVContext@1@@Z
    ?InitializeDynamicShaders_cutlass3x_common_cutlass3x_conv_fprop_bias_activation_hard_swish_sm100_tensorop_256x128x32_s8_s8_s32_f32_f32_8e1eb563040b7e@cask6_myelin@@YA?AW4Status@1@AEAVContext@1@@Z
    ?InitializeDynamicShaders_cutlass3x_common_cutlass3x_conv_fprop_bias_activation_hard_swish_sm100_tensorop_256x128x32_s8_s8_s32_s8_s8_1ea02ab81147e43c@cask6_myelin@@YA?AW4Status@1@AEAVContext@1@@Z
    ?InitializeDynamicShaders_cutlass3x_common_cutlass3x_conv_fprop_bias_activation_hard_swish_sm100_tensorop_256x256x16_bf16_bf16_f32_bf16_bf16_75546570dc569b8f@cask6_myelin@@YA?AW4Status@1@AEAVContext@1@@Z
    ?InitializeDynamicShaders_cutlass3x_common_cutlass3x_conv_fprop_bias_activation_hard_swish_sm100_tensorop_256x256x16_f16_f16_f16_f16_f16_e97547d39539add9@cask6_myelin@@YA?AW4Status@1@AEAVContext@1@@Z
    ?InitializeDynamicShaders_cutlass3x_common_cutlass3x_conv_fprop_bias_activation_hard_swish_sm100_tensorop_256x256x16_f16_f16_f32_f16_f16_4da103ae1243737b@cask6_myelin@@YA?AW4Status@1@AEAVContext@1@@Z
    ?InitializeDynamicShaders_cutlass3x_common_cutlass3x_conv_fprop_bias_activation_hard_swish_sm100_tensorop_256x256x32_e4m3_e4m3_f32_bf16_bf16_c0728b58609954cf@cask6_myelin@@YA?AW4Status@1@AEAVContext@1@@Z
    ?InitializeDynamicShaders_cutlass3x_common_cutlass3x_conv_fprop_bias_activation_hard_swish_sm100_tensorop_256x256x32_e4m3_e4m3_f32_e4m3_e4m3_1c00d788d8832afc@cask6_myelin@@YA?AW4Status@1@AEAVContext@1@@Z
    ?InitializeDynamicShaders_cutlass3x_common_cutlass3x_conv_fprop_bias_activation_hard_swish_sm100_tensorop_256x256x32_e4m3_e4m3_f32_f16_f16_d96f05fe45014ca5@cask6_myelin@@YA?AW4Status@1@AEAVContext@1@@Z
    ?InitializeDynamicShaders_cutlass3x_common_cutlass3x_conv_fprop_bias_activation_hard_swish_sm100_tensorop_256x256x32_e4m3_e4m3_f32_f32_f32_87c57a7cdd04cf24@cask6_myelin@@YA?AW4Status@1@AEAVContext@1@@Z
    ?InitializeDynamicShaders_cutlass3x_common_cutlass3x_conv_fprop_bias_activation_hard_swish_sm100_tensorop_256x256x32_s8_s8_s32_f16_f16_3f55bde0f38b4533@cask6_myelin@@YA?AW4Status@1@AEAVContext@1@@Z
    ?InitializeDynamicShaders_cutlass3x_common_cutlass3x_conv_fprop_bias_activation_hard_swish_sm100_tensorop_256x256x32_s8_s8_s32_f32_f32_df856b2407e43f05@cask6_myelin@@YA?AW4Status@1@AEAVContext@1@@Z
    ?InitializeDynamicShaders_cutlass3x_common_cutlass3x_conv_fprop_bias_activation_hard_swish_sm100_tensorop_256x256x32_s8_s8_s32_s8_s8_dfe46f6feb4129d7@cask6_myelin@@YA?AW4Status@1@AEAVContext@1@@Z
    ?InitializeDynamicShaders_cutlass3x_common_cutlass3x_conv_fprop_bias_activation_hard_swish_sm100_tensorop_256x64x16_bf16_bf16_f32_bf16_bf16_e423d81bc8dd59ce@cask6_myelin@@YA?AW4Status@1@AEAVContext@1@@Z
    ?InitializeDynamicShaders_cutlass3x_common_cutlass3x_conv_fprop_bias_activation_hard_swish_sm100_tensorop_256x64x16_f16_f16_f16_f16_f16_742dfd206145e0b0@cask6_myelin@@YA?AW4Status@1@AEAVContext@1@@Z
    ?InitializeDynamicShaders_cutlass3x_common_cutlass3x_conv_fprop_bias_activation_hard_swish_sm100_tensorop_256x64x16_f16_f16_f32_f16_f16_5e3f25289813a3d2@cask6_myelin@@YA?AW4Status@1@AEAVContext@1@@Z
    ?InitializeDynamicShaders_cutlass3x_common_cutlass3x_conv_fprop_bias_activation_hard_swish_sm100_tensorop_256x64x32_e4m3_e4m3_f32_bf16_bf16_2450f600291942d7@cask6_myelin@@YA?AW4Status@1@AEAVContext@1@@Z
    ?InitializeDynamicShaders_cutlass3x_common_cutlass3x_conv_fprop_bias_activation_hard_swish_sm100_tensorop_256x64x32_e4m3_e4m3_f32_e4m3_e4m3_c9046fd6c4148b8@cask6_myelin@@YA?AW4Status@1@AEAVContext@1@@Z
    ?InitializeDynamicShaders_cutlass3x_common_cutlass3x_conv_fprop_bias_activation_hard_swish_sm100_tensorop_256x64x32_e4m3_e4m3_f32_f16_f16_14618cad239e1f61@cask6_myelin@@YA?AW4Status@1@AEAVContext@1@@Z
    ?InitializeDynamicShaders_cutlass3x_common_cutlass3x_conv_fprop_bias_activation_hard_swish_sm100_tensorop_256x64x32_e4m3_e4m3_f32_f32_f32_672a96a6d19a25c1@cask6_myelin@@YA?AW4Status@1@AEAVContext@1@@Z
    ?InitializeDynamicShaders_cutlass3x_common_cutlass3x_conv_fprop_bias_activation_hard_swish_sm100_tensorop_256x64x32_s8_s8_s32_f16_f16_42a003e156871bb@cask6_myelin@@YA?AW4Status@1@AEAVContext@1@@Z
    ?InitializeDynamicShaders_cutlass3x_common_cutlass3x_conv_fprop_bias_activation_hard_swish_sm100_tensorop_256x64x32_s8_s8_s32_f32_f32_8b07ca4fe7f399a7@cask6_myelin@@YA?AW4Status@1@AEAVContext@1@@Z
    ?InitializeDynamicShaders_cutlass3x_common_cutlass3x_conv_fprop_bias_activation_hard_swish_sm100_tensorop_256x64x32_s8_s8_s32_s8_s8_2a2bb92eccaff68e@cask6_myelin@@YA?AW4Status@1@AEAVContext@1@@Z
    ?InitializeDynamicShaders_cutlass3x_common_cutlass3x_conv_fprop_bias_activation_hard_swish_sm100_tensorop_64x128x16_bf16_bf16_f32_bf16_bf16_c260e7a18a1115c2@cask6_myelin@@YA?AW4Status@1@AEAVContext@1@@Z
    ?InitializeDynamicShaders_cutlass3x_common_cutlass3x_conv_fprop_bias_activation_hard_swish_sm100_tensorop_64x128x16_f16_f16_f16_f16_f16_349fb66607dc9c73@cask6_myelin@@YA?AW4Status@1@AEAVContext@1@@Z
    ?InitializeDynamicShaders_cutlass3x_common_cutlass3x_conv_fprop_bias_activation_hard_swish_sm100_tensorop_64x128x16_f16_f16_f32_f16_f16_a3e21a22c553cca4@cask6_myelin@@YA?AW4Status@1@AEAVContext@1@@Z
    ?InitializeDynamicShaders_cutlass3x_common_cutlass3x_conv_fprop_bias_activation_hard_swish_sm100_tensorop_64x128x32_e4m3_e4m3_f32_bf16_bf16_9e2c71a8b0d5a1e@cask6_myelin@@YA?AW4Status@1@AEAVContext@1@@Z
    ?InitializeDynamicShaders_cutlass3x_common_cutlass3x_conv_fprop_bias_activation_hard_swish_sm100_tensorop_64x128x32_e4m3_e4m3_f32_e4m3_e4m3_c7c0685164cf0618@cask6_myelin@@YA?AW4Status@1@AEAVContext@1@@Z
    ?InitializeDynamicShaders_cutlass3x_common_cutlass3x_conv_fprop_bias_activation_hard_swish_sm100_tensorop_64x128x32_e4m3_e4m3_f32_f16_f16_5a3556dd540b600c@cask6_myelin@@YA?AW4Status@1@AEAVContext@1@@Z
    ?InitializeDynamicShaders_cutlass3x_common_cutlass3x_conv_fprop_bias_activation_hard_swish_sm100_tensorop_64x128x32_e4m3_e4m3_f32_f32_f32_d3a6a23de50d7827@cask6_myelin@@YA?AW4Status@1@AEAVContext@1@@Z
    ?InitializeDynamicShaders_cutlass3x_common_cutlass3x_conv_fprop_bias_activation_hard_swish_sm100_tensorop_64x128x32_s8_s8_s32_f16_f16_40e83c06dd811d94@cask6_myelin@@YA?AW4Status@1@AEAVContext@1@@Z
    ?InitializeDynamicShaders_cutlass3x_common_cutlass3x_conv_fprop_bias_activation_hard_swish_sm100_tensorop_64x128x32_s8_s8_s32_f32_f32_9f838822ac83670b@cask6_myelin@@YA?AW4Status@1@AEAVContext@1@@Z
    ?InitializeDynamicShaders_cutlass3x_common_cutlass3x_conv_fprop_bias_activation_hard_swish_sm100_tensorop_64x128x32_s8_s8_s32_s8_s8_d7e92827c3b11137@cask6_myelin@@YA?AW4Status@1@AEAVContext@1@@Z
    ?InitializeDynamicShaders_cutlass3x_common_cutlass3x_conv_fprop_bias_activation_hard_swish_sm100_tensorop_64x256x16_bf16_bf16_f32_bf16_bf16_86952a4490b68d6f@cask6_myelin@@YA?AW4Status@1@AEAVContext@1@@Z
    ?InitializeDynamicShaders_cutlass3x_common_cutlass3x_conv_fprop_bias_activation_hard_swish_sm100_tensorop_64x256x16_f16_f16_f16_f16_f16_7438392612b43a62@cask6_myelin@@YA?AW4Status@1@AEAVContext@1@@Z
    ?InitializeDynamicShaders_cutlass3x_common_cutlass3x_conv_fprop_bias_activation_hard_swish_sm100_tensorop_64x256x16_f16_f16_f32_f16_f16_4bbea5a9af9371d1@cask6_myelin@@YA?AW4Status@1@AEAVContext@1@@Z
    ?InitializeDynamicShaders_cutlass3x_common_cutlass3x_conv_fprop_bias_activation_hard_swish_sm100_tensorop_64x256x32_e4m3_e4m3_f32_bf16_bf16_dfe85c2a20cbdeac@cask6_myelin@@YA?AW4Status@1@AEAVContext@1@@Z
    ?InitializeDynamicShaders_cutlass3x_common_cutlass3x_conv_fprop_bias_activation_hard_swish_sm100_tensorop_64x64x16_bf16_bf16_f32_bf16_bf16_7d723d92343fcfa@cask6_myelin@@YA?AW4Status@1@AEAVContext@1@@Z
    ?InitializeDynamicShaders_cutlass3x_common_cutlass3x_conv_fprop_bias_activation_hard_swish_sm100_tensorop_64x64x16_f16_f16_f16_f16_f16_bfa4f561f2f10c02@cask6_myelin@@YA?AW4Status@1@AEAVContext@1@@Z
    ?InitializeDynamicShaders_cutlass3x_common_cutlass3x_conv_fprop_bias_activation_hard_swish_sm100_tensorop_64x64x16_f16_f16_f32_f16_f16_d5ff165c890d2c35@cask6_myelin@@YA?AW4Status@1@AEAVContext@1@@Z
    ?InitializeDynamicShaders_cutlass3x_common_cutlass3x_conv_fprop_bias_activation_hard_swish_sm100_tensorop_64x64x32_e4m3_e4m3_f32_bf16_bf16_42aa95d7e9a52b71@cask6_myelin@@YA?AW4Status@1@AEAVContext@1@@Z
    ?InitializeDynamicShaders_cutlass3x_common_cutlass3x_conv_fprop_bias_activation_hard_swish_sm100_tensorop_64x64x32_e4m3_e4m3_f32_e4m3_e4m3_26c8e272a58382da@cask6_myelin@@YA?AW4Status@1@AEAVContext@1@@Z
    ?InitializeDynamicShaders_cutlass3x_common_cutlass3x_conv_fprop_bias_activation_hard_swish_sm100_tensorop_64x64x32_e4m3_e4m3_f32_f16_f16_3c5e7820756fc04c@cask6_myelin@@YA?AW4Status@1@AEAVContext@1@@Z
    ?InitializeDynamicShaders_cutlass3x_common_cutlass3x_conv_fprop_bias_activation_hard_swish_sm100_tensorop_64x64x32_e4m3_e4m3_f32_f32_f32_1eda23b56c226a07@cask6_myelin@@YA?AW4Status@1@AEAVContext@1@@Z
    ?InitializeDynamicShaders_cutlass3x_common_cutlass3x_conv_fprop_bias_activation_hard_swish_sm100_tensorop_64x64x32_s8_s8_s32_f16_f16_c03d7545510520fa@cask6_myelin@@YA?AW4Status@1@AEAVContext@1@@Z
    ?InitializeDynamicShaders_cutlass3x_common_cutlass3x_conv_fprop_bias_activation_hard_swish_sm100_tensorop_64x64x32_s8_s8_s32_f32_f32_14e292020a623f1f@cask6_myelin@@YA?AW4Status@1@AEAVContext@1@@Z
    ?InitializeDynamicShaders_cutlass3x_common_cutlass3x_conv_fprop_bias_activation_hard_swish_sm100_tensorop_64x64x32_s8_s8_s32_s8_s8_db355aece04409a0@cask6_myelin@@YA?AW4Status@1@AEAVContext@1@@Z
    ?InitializeDynamicShaders_cutlass3x_common_cutlass3x_conv_fprop_bias_activation_leaky_relu_resadd_sm100_tensorop_128x128x16_bf16_bf16_f32_bf16_bf16_9d056c19c3766456@cask6_myelin@@YA?AW4Status@1@AEAVContext@1@@Z
    ?InitializeDynamicShaders_cutlass3x_common_cutlass3x_conv_fprop_bias_activation_leaky_relu_resadd_sm100_tensorop_128x128x16_bf16_bf16_f32_bf16_bf16_a8b59088455ac694@cask6_myelin@@YA?AW4Status@1@AEAVContext@1@@Z
    ?InitializeDynamicShaders_cutlass3x_common_cutlass3x_conv_fprop_bias_activation_leaky_relu_resadd_sm100_tensorop_128x128x16_f16_f16_f16_f16_f16_9829dcabab257342@cask6_myelin@@YA?AW4Status@1@AEAVContext@1@@Z
    ?InitializeDynamicShaders_cutlass3x_common_cutlass3x_conv_fprop_bias_activation_leaky_relu_resadd_sm100_tensorop_128x128x16_f16_f16_f16_f16_f16_df8cd6f3330dbbc9@cask6_myelin@@YA?AW4Status@1@AEAVContext@1@@Z
    ?InitializeDynamicShaders_cutlass3x_common_cutlass3x_conv_fprop_bias_activation_leaky_relu_resadd_sm100_tensorop_128x128x16_f16_f16_f32_f16_f16_5095f1ea76b74234@cask6_myelin@@YA?AW4Status@1@AEAVContext@1@@Z
    ?InitializeDynamicShaders_cutlass3x_common_cutlass3x_conv_fprop_bias_activation_leaky_relu_resadd_sm100_tensorop_128x128x16_f16_f16_f32_f16_f16_9f1fd91209e8e32c@cask6_myelin@@YA?AW4Status@1@AEAVContext@1@@Z
    ?InitializeDynamicShaders_cutlass3x_common_cutlass3x_conv_fprop_bias_activation_leaky_relu_resadd_sm100_tensorop_128x128x32_e4m3_e4m3_f32_bf16_bf16_6d8b5161e2dc4f5c@cask6_myelin@@YA?AW4Status@1@AEAVContext@1@@Z
    ?InitializeDynamicShaders_cutlass3x_common_cutlass3x_conv_fprop_bias_activation_leaky_relu_resadd_sm100_tensorop_128x128x32_e4m3_e4m3_f32_bf16_bf16_836a0c408e9caa22@cask6_myelin@@YA?AW4Status@1@AEAVContext@1@@Z
    ?InitializeDynamicShaders_cutlass3x_common_cutlass3x_conv_fprop_bias_activation_leaky_relu_resadd_sm100_tensorop_128x128x32_e4m3_e4m3_f32_bf16_bf16_86a171d2405fd46e@cask6_myelin@@YA?AW4Status@1@AEAVContext@1@@Z
    ?InitializeDynamicShaders_cutlass3x_common_cutlass3x_conv_fprop_bias_activation_leaky_relu_resadd_sm100_tensorop_128x128x32_e4m3_e4m3_f32_bf16_bf16_bc09ee3116e5c907@cask6_myelin@@YA?AW4Status@1@AEAVContext@1@@Z
    ?InitializeDynamicShaders_cutlass3x_common_cutlass3x_conv_fprop_bias_activation_leaky_relu_resadd_sm100_tensorop_128x128x32_e4m3_e4m3_f32_e4m3_e4m3_23bb9ad746454e8f@cask6_myelin@@YA?AW4Status@1@AEAVContext@1@@Z
    ?InitializeDynamicShaders_cutlass3x_common_cutlass3x_conv_fprop_bias_activation_leaky_relu_resadd_sm100_tensorop_128x128x32_e4m3_e4m3_f32_e4m3_e4m3_5b62896c366281f5@cask6_myelin@@YA?AW4Status@1@AEAVContext@1@@Z
    ?InitializeDynamicShaders_cutlass3x_common_cutlass3x_conv_fprop_bias_activation_leaky_relu_resadd_sm100_tensorop_128x128x32_e4m3_e4m3_f32_e4m3_e4m3_90a2835253757b94@cask6_myelin@@YA?AW4Status@1@AEAVContext@1@@Z
    ?InitializeDynamicShaders_cutlass3x_common_cutlass3x_conv_fprop_bias_activation_leaky_relu_resadd_sm100_tensorop_128x128x32_e4m3_e4m3_f32_e4m3_e4m3_ff7d181f1a6213e0@cask6_myelin@@YA?AW4Status@1@AEAVContext@1@@Z
    ?InitializeDynamicShaders_cutlass3x_common_cutlass3x_conv_fprop_bias_activation_leaky_relu_resadd_sm100_tensorop_128x128x32_e4m3_e4m3_f32_f16_f16_26f3a518b3272a9b@cask6_myelin@@YA?AW4Status@1@AEAVContext@1@@Z
    ?InitializeDynamicShaders_cutlass3x_common_cutlass3x_conv_fprop_bias_activation_leaky_relu_resadd_sm100_tensorop_128x128x32_e4m3_e4m3_f32_f16_f16_7c08f72d8574ee32@cask6_myelin@@YA?AW4Status@1@AEAVContext@1@@Z
    ?InitializeDynamicShaders_cutlass3x_common_cutlass3x_conv_fprop_bias_activation_leaky_relu_resadd_sm100_tensorop_128x128x32_e4m3_e4m3_f32_f16_f16_b766db3667429a8d@cask6_myelin@@YA?AW4Status@1@AEAVContext@1@@Z
    ?InitializeDynamicShaders_cutlass3x_common_cutlass3x_conv_fprop_bias_activation_leaky_relu_resadd_sm100_tensorop_128x128x32_e4m3_e4m3_f32_f16_f16_ccd5eac4554f84cc@cask6_myelin@@YA?AW4Status@1@AEAVContext@1@@Z
    ?InitializeDynamicShaders_cutlass3x_common_cutlass3x_conv_fprop_bias_activation_leaky_relu_resadd_sm100_tensorop_128x128x32_e4m3_e4m3_f32_f32_f32_3505b0f45e2e5d58@cask6_myelin@@YA?AW4Status@1@AEAVContext@1@@Z
    ?InitializeDynamicShaders_cutlass3x_common_cutlass3x_conv_fprop_bias_activation_leaky_relu_resadd_sm100_tensorop_128x128x32_e4m3_e4m3_f32_f32_f32_8e3e70aa3050f00c@cask6_myelin@@YA?AW4Status@1@AEAVContext@1@@Z
    ?InitializeDynamicShaders_cutlass3x_common_cutlass3x_conv_fprop_bias_activation_leaky_relu_resadd_sm100_tensorop_128x128x32_e4m3_e4m3_f32_f32_f32_ae1889aa03ad2661@cask6_myelin@@YA?AW4Status@1@AEAVContext@1@@Z
    ?InitializeDynamicShaders_cutlass3x_common_cutlass3x_conv_fprop_bias_activation_leaky_relu_resadd_sm100_tensorop_128x128x32_e4m3_e4m3_f32_f32_f32_c3394939f7691c34@cask6_myelin@@YA?AW4Status@1@AEAVContext@1@@Z
    ?InitializeDynamicShaders_cutlass3x_common_cutlass3x_conv_fprop_bias_activation_leaky_relu_resadd_sm100_tensorop_128x128x32_s8_s8_s32_f16_f16_122ebae51aec315@cask6_myelin@@YA?AW4Status@1@AEAVContext@1@@Z
    ?InitializeDynamicShaders_cutlass3x_common_cutlass3x_conv_fprop_bias_activation_leaky_relu_resadd_sm100_tensorop_128x128x32_s8_s8_s32_f16_f16_d3ac1969808af51@cask6_myelin@@YA?AW4Status@1@AEAVContext@1@@Z
    ?InitializeDynamicShaders_cutlass3x_common_cutlass3x_conv_fprop_bias_activation_leaky_relu_resadd_sm100_tensorop_128x128x32_s8_s8_s32_f32_f32_389d70f88db6e760@cask6_myelin@@YA?AW4Status@1@AEAVContext@1@@Z
    ?InitializeDynamicShaders_cutlass3x_common_cutlass3x_conv_fprop_bias_activation_leaky_relu_resadd_sm100_tensorop_128x128x32_s8_s8_s32_f32_f32_fdfb2384986fda98@cask6_myelin@@YA?AW4Status@1@AEAVContext@1@@Z
    ?InitializeDynamicShaders_cutlass3x_common_cutlass3x_conv_fprop_bias_activation_leaky_relu_resadd_sm100_tensorop_128x128x32_s8_s8_s32_s8_s8_a2070f36f4a093ef@cask6_myelin@@YA?AW4Status@1@AEAVContext@1@@Z
    ?InitializeDynamicShaders_cutlass3x_common_cutlass3x_conv_fprop_bias_activation_leaky_relu_resadd_sm100_tensorop_128x128x32_s8_s8_s32_s8_s8_b27895271b75083c@cask6_myelin@@YA?AW4Status@1@AEAVContext@1@@Z
    ?InitializeDynamicShaders_cutlass3x_common_cutlass3x_conv_fprop_bias_activation_leaky_relu_resadd_sm100_tensorop_128x256x16_bf16_bf16_f32_bf16_bf16_35a2b3f77ec8fde@cask6_myelin@@YA?AW4Status@1@AEAVContext@1@@Z
    ?InitializeDynamicShaders_cutlass3x_common_cutlass3x_conv_fprop_bias_activation_leaky_relu_resadd_sm100_tensorop_128x256x16_bf16_bf16_f32_bf16_bf16_961e165dfa30d94b@cask6_myelin@@YA?AW4Status@1@AEAVContext@1@@Z
    ?InitializeDynamicShaders_cutlass3x_common_cutlass3x_conv_fprop_bias_activation_leaky_relu_resadd_sm100_tensorop_128x256x16_f16_f16_f16_f16_f16_64e57246c3b13d5@cask6_myelin@@YA?AW4Status@1@AEAVContext@1@@Z
    ?InitializeDynamicShaders_cutlass3x_common_cutlass3x_conv_fprop_bias_activation_leaky_relu_resadd_sm100_tensorop_128x256x16_f16_f16_f16_f16_f16_c0d5835a2da2d79@cask6_myelin@@YA?AW4Status@1@AEAVContext@1@@Z
    ?InitializeDynamicShaders_cutlass3x_common_cutlass3x_conv_fprop_bias_activation_leaky_relu_resadd_sm100_tensorop_128x256x16_f16_f16_f32_f16_f16_8acf9cbec2582387@cask6_myelin@@YA?AW4Status@1@AEAVContext@1@@Z
    ?InitializeDynamicShaders_cutlass3x_common_cutlass3x_conv_fprop_bias_activation_leaky_relu_resadd_sm100_tensorop_128x256x16_f16_f16_f32_f16_f16_d02a4e2ba941f61c@cask6_myelin@@YA?AW4Status@1@AEAVContext@1@@Z
    ?InitializeDynamicShaders_cutlass3x_common_cutlass3x_conv_fprop_bias_activation_leaky_relu_resadd_sm100_tensorop_128x256x32_e4m3_e4m3_f32_bf16_bf16_15387b14682d653b@cask6_myelin@@YA?AW4Status@1@AEAVContext@1@@Z
    ?InitializeDynamicShaders_cutlass3x_common_cutlass3x_conv_fprop_bias_activation_leaky_relu_resadd_sm100_tensorop_128x256x32_e4m3_e4m3_f32_bf16_bf16_515b2166fbdcd4ed@cask6_myelin@@YA?AW4Status@1@AEAVContext@1@@Z
    ?InitializeDynamicShaders_cutlass3x_common_cutlass3x_conv_fprop_bias_activation_leaky_relu_resadd_sm100_tensorop_128x256x32_e4m3_e4m3_f32_bf16_bf16_acf9b485559d5b90@cask6_myelin@@YA?AW4Status@1@AEAVContext@1@@Z
    ?InitializeDynamicShaders_cutlass3x_common_cutlass3x_conv_fprop_bias_activation_leaky_relu_resadd_sm100_tensorop_128x256x32_e4m3_e4m3_f32_bf16_bf16_af60cc5d37db6c65@cask6_myelin@@YA?AW4Status@1@AEAVContext@1@@Z
    ?InitializeDynamicShaders_cutlass3x_common_cutlass3x_conv_fprop_bias_activation_leaky_relu_resadd_sm100_tensorop_128x256x32_e4m3_e4m3_f32_e4m3_e4m3_2ac7a7c5c7e91055@cask6_myelin@@YA?AW4Status@1@AEAVContext@1@@Z
    ?InitializeDynamicShaders_cutlass3x_common_cutlass3x_conv_fprop_bias_activation_leaky_relu_resadd_sm100_tensorop_128x256x32_e4m3_e4m3_f32_e4m3_e4m3_81ef99db2fcb497@cask6_myelin@@YA?AW4Status@1@AEAVContext@1@@Z
    ?InitializeDynamicShaders_cutlass3x_common_cutlass3x_conv_fprop_bias_activation_leaky_relu_resadd_sm100_tensorop_128x256x32_e4m3_e4m3_f32_e4m3_e4m3_befbc16a1bec5af6@cask6_myelin@@YA?AW4Status@1@AEAVContext@1@@Z
    ?InitializeDynamicShaders_cutlass3x_common_cutlass3x_conv_fprop_bias_activation_leaky_relu_resadd_sm100_tensorop_128x256x32_e4m3_e4m3_f32_e4m3_e4m3_eb76cc8d34654014@cask6_myelin@@YA?AW4Status@1@AEAVContext@1@@Z
    ?InitializeDynamicShaders_cutlass3x_common_cutlass3x_conv_fprop_bias_activation_leaky_relu_resadd_sm100_tensorop_128x256x32_e4m3_e4m3_f32_f16_f16_1e1500efacb46b5a@cask6_myelin@@YA?AW4Status@1@AEAVContext@1@@Z
    ?InitializeDynamicShaders_cutlass3x_common_cutlass3x_conv_fprop_bias_activation_leaky_relu_resadd_sm100_tensorop_128x256x32_e4m3_e4m3_f32_f16_f16_73414b22b3755a1c@cask6_myelin@@YA?AW4Status@1@AEAVContext@1@@Z
    ?InitializeDynamicShaders_cutlass3x_common_cutlass3x_conv_fprop_bias_activation_leaky_relu_resadd_sm100_tensorop_128x256x32_e4m3_e4m3_f32_f16_f16_c1b44f517537c5ba@cask6_myelin@@YA?AW4Status@1@AEAVContext@1@@Z
    ?InitializeDynamicShaders_cutlass3x_common_cutlass3x_conv_fprop_bias_activation_leaky_relu_resadd_sm100_tensorop_128x256x32_e4m3_e4m3_f32_f16_f16_fedeb305f87207d6@cask6_myelin@@YA?AW4Status@1@AEAVContext@1@@Z
    ?InitializeDynamicShaders_cutlass3x_common_cutlass3x_conv_fprop_bias_activation_leaky_relu_resadd_sm100_tensorop_128x256x32_e4m3_e4m3_f32_f32_f32_8841946b25368f9d@cask6_myelin@@YA?AW4Status@1@AEAVContext@1@@Z
    ?InitializeDynamicShaders_cutlass3x_common_cutlass3x_conv_fprop_bias_activation_leaky_relu_resadd_sm100_tensorop_128x256x32_e4m3_e4m3_f32_f32_f32_89b68803e3bfb602@cask6_myelin@@YA?AW4Status@1@AEAVContext@1@@Z
    ?InitializeDynamicShaders_cutlass3x_common_cutlass3x_conv_fprop_bias_activation_leaky_relu_resadd_sm100_tensorop_128x256x32_e4m3_e4m3_f32_f32_f32_9bf29af396fb5e2e@cask6_myelin@@YA?AW4Status@1@AEAVContext@1@@Z
    ?InitializeDynamicShaders_cutlass3x_common_cutlass3x_conv_fprop_bias_activation_leaky_relu_resadd_sm100_tensorop_128x256x32_e4m3_e4m3_f32_f32_f32_e0b6806725df893b@cask6_myelin@@YA?AW4Status@1@AEAVContext@1@@Z
    ?InitializeDynamicShaders_cutlass3x_common_cutlass3x_conv_fprop_bias_activation_leaky_relu_resadd_sm100_tensorop_128x256x32_s8_s8_s32_f16_f16_b05150c5cd4a0024@cask6_myelin@@YA?AW4Status@1@AEAVContext@1@@Z
    ?InitializeDynamicShaders_cutlass3x_common_cutlass3x_conv_fprop_bias_activation_leaky_relu_resadd_sm100_tensorop_128x256x32_s8_s8_s32_f16_f16_f6406c0df306c07@cask6_myelin@@YA?AW4Status@1@AEAVContext@1@@Z
    ?InitializeDynamicShaders_cutlass3x_common_cutlass3x_conv_fprop_bias_activation_leaky_relu_resadd_sm100_tensorop_128x256x32_s8_s8_s32_f32_f32_60500ab7b2288361@cask6_myelin@@YA?AW4Status@1@AEAVContext@1@@Z
    ?InitializeDynamicShaders_cutlass3x_common_cutlass3x_conv_fprop_bias_activation_leaky_relu_resadd_sm100_tensorop_128x256x32_s8_s8_s32_f32_f32_f7270769af57c6e1@cask6_myelin@@YA?AW4Status@1@AEAVContext@1@@Z
    ?InitializeDynamicShaders_cutlass3x_common_cutlass3x_conv_fprop_bias_activation_leaky_relu_resadd_sm100_tensorop_128x256x32_s8_s8_s32_s8_s8_85c93e5d5009030d@cask6_myelin@@YA?AW4Status@1@AEAVContext@1@@Z
    ?InitializeDynamicShaders_cutlass3x_common_cutlass3x_conv_fprop_bias_activation_leaky_relu_resadd_sm100_tensorop_128x256x32_s8_s8_s32_s8_s8_fd4d04aef980ffb5@cask6_myelin@@YA?AW4Status@1@AEAVContext@1@@Z
    ?InitializeDynamicShaders_cutlass3x_common_cutlass3x_conv_fprop_bias_activation_leaky_relu_resadd_sm100_tensorop_128x64x16_bf16_bf16_f32_bf16_bf16_1b99f880108075d0@cask6_myelin@@YA?AW4Status@1@AEAVContext@1@@Z
    ?InitializeDynamicShaders_cutlass3x_common_cutlass3x_conv_fprop_bias_activation_leaky_relu_resadd_sm100_tensorop_128x64x16_bf16_bf16_f32_bf16_bf16_3437bc69599f33f3@cask6_myelin@@YA?AW4Status@1@AEAVContext@1@@Z
    ?InitializeDynamicShaders_cutlass3x_common_cutlass3x_conv_fprop_bias_activation_leaky_relu_resadd_sm100_tensorop_128x64x16_f16_f16_f16_f16_f16_11f51a2c0d77e09b@cask6_myelin@@YA?AW4Status@1@AEAVContext@1@@Z
    ?InitializeDynamicShaders_cutlass3x_common_cutlass3x_conv_fprop_bias_activation_leaky_relu_resadd_sm100_tensorop_128x64x16_f16_f16_f16_f16_f16_47a90f98487546d9@cask6_myelin@@YA?AW4Status@1@AEAVContext@1@@Z
    ?InitializeDynamicShaders_cutlass3x_common_cutlass3x_conv_fprop_bias_activation_leaky_relu_resadd_sm100_tensorop_128x64x16_f16_f16_f32_f16_f16_65b89338848c1c7a@cask6_myelin@@YA?AW4Status@1@AEAVContext@1@@Z
    ?InitializeDynamicShaders_cutlass3x_common_cutlass3x_conv_fprop_bias_activation_leaky_relu_resadd_sm100_tensorop_128x64x16_f16_f16_f32_f16_f16_e298e375e0668e70@cask6_myelin@@YA?AW4Status@1@AEAVContext@1@@Z
    ?InitializeDynamicShaders_cutlass3x_common_cutlass3x_conv_fprop_bias_activation_leaky_relu_resadd_sm100_tensorop_128x64x32_e4m3_e4m3_f32_bf16_bf16_7cfd2eeea43bec19@cask6_myelin@@YA?AW4Status@1@AEAVContext@1@@Z
    ?InitializeDynamicShaders_cutlass3x_common_cutlass3x_conv_fprop_bias_activation_leaky_relu_resadd_sm100_tensorop_128x64x32_e4m3_e4m3_f32_bf16_bf16_99125463ffc3dcc8@cask6_myelin@@YA?AW4Status@1@AEAVContext@1@@Z
    ?InitializeDynamicShaders_cutlass3x_common_cutlass3x_conv_fprop_bias_activation_leaky_relu_resadd_sm100_tensorop_128x64x32_e4m3_e4m3_f32_bf16_bf16_a8a256e6d920f8a@cask6_myelin@@YA?AW4Status@1@AEAVContext@1@@Z
    ?InitializeDynamicShaders_cutlass3x_common_cutlass3x_conv_fprop_bias_activation_leaky_relu_resadd_sm100_tensorop_128x64x32_e4m3_e4m3_f32_bf16_bf16_f4b1bd2d0e4719a9@cask6_myelin@@YA?AW4Status@1@AEAVContext@1@@Z
    ?InitializeDynamicShaders_cutlass3x_common_cutlass3x_conv_fprop_bias_activation_leaky_relu_resadd_sm100_tensorop_128x64x32_e4m3_e4m3_f32_e4m3_e4m3_19fb7cce54900a5c@cask6_myelin@@YA?AW4Status@1@AEAVContext@1@@Z
    ?InitializeDynamicShaders_cutlass3x_common_cutlass3x_conv_fprop_bias_activation_leaky_relu_resadd_sm100_tensorop_128x64x32_e4m3_e4m3_f32_e4m3_e4m3_5a09863f1abe0395@cask6_myelin@@YA?AW4Status@1@AEAVContext@1@@Z
    ?InitializeDynamicShaders_cutlass3x_common_cutlass3x_conv_fprop_bias_activation_leaky_relu_resadd_sm100_tensorop_128x64x32_e4m3_e4m3_f32_e4m3_e4m3_6c4ec6f82e487508@cask6_myelin@@YA?AW4Status@1@AEAVContext@1@@Z
    ?InitializeDynamicShaders_cutlass3x_common_cutlass3x_conv_fprop_bias_activation_leaky_relu_resadd_sm100_tensorop_128x64x32_e4m3_e4m3_f32_e4m3_e4m3_7a69d07969da79fd@cask6_myelin@@YA?AW4Status@1@AEAVContext@1@@Z
    ?InitializeDynamicShaders_cutlass3x_common_cutlass3x_conv_fprop_bias_activation_leaky_relu_resadd_sm100_tensorop_128x64x32_e4m3_e4m3_f32_f16_f16_48ffc871826a8cc6@cask6_myelin@@YA?AW4Status@1@AEAVContext@1@@Z
    ?InitializeDynamicShaders_cutlass3x_common_cutlass3x_conv_fprop_bias_activation_leaky_relu_resadd_sm100_tensorop_128x64x32_e4m3_e4m3_f32_f16_f16_4e1701628181fb06@cask6_myelin@@YA?AW4Status@1@AEAVContext@1@@Z
    ?InitializeDynamicShaders_cutlass3x_common_cutlass3x_conv_fprop_bias_activation_leaky_relu_resadd_sm100_tensorop_128x64x32_e4m3_e4m3_f32_f16_f16_729fe852b311d901@cask6_myelin@@YA?AW4Status@1@AEAVContext@1@@Z
    ?InitializeDynamicShaders_cutlass3x_common_cutlass3x_conv_fprop_bias_activation_leaky_relu_resadd_sm100_tensorop_128x64x32_e4m3_e4m3_f32_f16_f16_a94de2af6c0fe6dd@cask6_myelin@@YA?AW4Status@1@AEAVContext@1@@Z
    ?InitializeDynamicShaders_cutlass3x_common_cutlass3x_conv_fprop_bias_activation_leaky_relu_resadd_sm100_tensorop_128x64x32_e4m3_e4m3_f32_f32_f32_2043b93731574f0e@cask6_myelin@@YA?AW4Status@1@AEAVContext@1@@Z
    ?InitializeDynamicShaders_cutlass3x_common_cutlass3x_conv_fprop_bias_activation_leaky_relu_resadd_sm100_tensorop_128x64x32_e4m3_e4m3_f32_f32_f32_86d9e345d844a26b@cask6_myelin@@YA?AW4Status@1@AEAVContext@1@@Z
    ?InitializeDynamicShaders_cutlass3x_common_cutlass3x_conv_fprop_bias_activation_leaky_relu_resadd_sm100_tensorop_128x64x32_e4m3_e4m3_f32_f32_f32_b7a8ac446838b8cf@cask6_myelin@@YA?AW4Status@1@AEAVContext@1@@Z
    ?InitializeDynamicShaders_cutlass3x_common_cutlass3x_conv_fprop_bias_activation_leaky_relu_resadd_sm100_tensorop_128x64x32_e4m3_e4m3_f32_f32_f32_bfdd05b9ae4da2f0@cask6_myelin@@YA?AW4Status@1@AEAVContext@1@@Z
    ?InitializeDynamicShaders_cutlass3x_common_cutlass3x_conv_fprop_bias_activation_leaky_relu_resadd_sm100_tensorop_128x64x32_s8_s8_s32_f16_f16_e1b5b68c470d3b4e@cask6_myelin@@YA?AW4Status@1@AEAVContext@1@@Z
    ?InitializeDynamicShaders_cutlass3x_common_cutlass3x_conv_fprop_bias_activation_leaky_relu_resadd_sm100_tensorop_128x64x32_s8_s8_s32_f16_f16_e5a6b95e78a412e3@cask6_myelin@@YA?AW4Status@1@AEAVContext@1@@Z
    ?InitializeDynamicShaders_cutlass3x_common_cutlass3x_conv_fprop_bias_activation_leaky_relu_resadd_sm100_tensorop_128x64x32_s8_s8_s32_f32_f32_17ca1845852fe899@cask6_myelin@@YA?AW4Status@1@AEAVContext@1@@Z
    ?InitializeDynamicShaders_cutlass3x_common_cutlass3x_conv_fprop_bias_activation_leaky_relu_resadd_sm100_tensorop_128x64x32_s8_s8_s32_f32_f32_5aadbc4817ab37c2@cask6_myelin@@YA?AW4Status@1@AEAVContext@1@@Z
    ?InitializeDynamicShaders_cutlass3x_common_cutlass3x_conv_fprop_bias_activation_leaky_relu_resadd_sm100_tensorop_128x64x32_s8_s8_s32_s8_s8_69ada57a2a32d074@cask6_myelin@@YA?AW4Status@1@AEAVContext@1@@Z
    ?InitializeDynamicShaders_cutlass3x_common_cutlass3x_conv_fprop_bias_activation_leaky_relu_resadd_sm100_tensorop_128x64x32_s8_s8_s32_s8_s8_e1abd43302204d19@cask6_myelin@@YA?AW4Status@1@AEAVContext@1@@Z
    ?InitializeDynamicShaders_cutlass3x_common_cutlass3x_conv_fprop_bias_activation_leaky_relu_resadd_sm100_tensorop_256x128x16_bf16_bf16_f32_bf16_bf16_b03141d62f7a22a4@cask6_myelin@@YA?AW4Status@1@AEAVContext@1@@Z
    ?InitializeDynamicShaders_cutlass3x_common_cutlass3x_conv_fprop_bias_activation_leaky_relu_resadd_sm100_tensorop_256x128x16_f16_f16_f16_f16_f16_29b41e5cfd3438ad@cask6_myelin@@YA?AW4Status@1@AEAVContext@1@@Z
    ?InitializeDynamicShaders_cutlass3x_common_cutlass3x_conv_fprop_bias_activation_leaky_relu_resadd_sm100_tensorop_256x128x16_f16_f16_f32_f16_f16_39317d80ef1cc0ed@cask6_myelin@@YA?AW4Status@1@AEAVContext@1@@Z
    ?InitializeDynamicShaders_cutlass3x_common_cutlass3x_conv_fprop_bias_activation_leaky_relu_resadd_sm100_tensorop_256x128x32_e4m3_e4m3_f32_bf16_bf16_cc4bca20347aa058@cask6_myelin@@YA?AW4Status@1@AEAVContext@1@@Z
    ?InitializeDynamicShaders_cutlass3x_common_cutlass3x_conv_fprop_bias_activation_leaky_relu_resadd_sm100_tensorop_256x128x32_e4m3_e4m3_f32_bf16_bf16_e8e69e89837b2a35@cask6_myelin@@YA?AW4Status@1@AEAVContext@1@@Z
    ?InitializeDynamicShaders_cutlass3x_common_cutlass3x_conv_fprop_bias_activation_leaky_relu_resadd_sm100_tensorop_256x128x32_e4m3_e4m3_f32_e4m3_e4m3_4cc0429629e098ab@cask6_myelin@@YA?AW4Status@1@AEAVContext@1@@Z
    ?InitializeDynamicShaders_cutlass3x_common_cutlass3x_conv_fprop_bias_activation_leaky_relu_resadd_sm100_tensorop_256x128x32_e4m3_e4m3_f32_e4m3_e4m3_bf8bb564befb569f@cask6_myelin@@YA?AW4Status@1@AEAVContext@1@@Z
    ?InitializeDynamicShaders_cutlass3x_common_cutlass3x_conv_fprop_bias_activation_leaky_relu_resadd_sm100_tensorop_256x128x32_e4m3_e4m3_f32_f16_f16_3ae9c2dd393f59a3@cask6_myelin@@YA?AW4Status@1@AEAVContext@1@@Z
    ?InitializeDynamicShaders_cutlass3x_common_cutlass3x_conv_fprop_bias_activation_leaky_relu_resadd_sm100_tensorop_256x128x32_e4m3_e4m3_f32_f16_f16_bbdd8453ec0ec9ce@cask6_myelin@@YA?AW4Status@1@AEAVContext@1@@Z
    ?InitializeDynamicShaders_cutlass3x_common_cutlass3x_conv_fprop_bias_activation_leaky_relu_resadd_sm100_tensorop_256x128x32_e4m3_e4m3_f32_f32_f32_5991b98a9daf5587@cask6_myelin@@YA?AW4Status@1@AEAVContext@1@@Z
    ?InitializeDynamicShaders_cutlass3x_common_cutlass3x_conv_fprop_bias_activation_leaky_relu_resadd_sm100_tensorop_256x128x32_e4m3_e4m3_f32_f32_f32_bf1881643e725e99@cask6_myelin@@YA?AW4Status@1@AEAVContext@1@@Z
    ?InitializeDynamicShaders_cutlass3x_common_cutlass3x_conv_fprop_bias_activation_leaky_relu_resadd_sm100_tensorop_256x128x32_s8_s8_s32_f16_f16_6ab7509a6dfa6cf9@cask6_myelin@@YA?AW4Status@1@AEAVContext@1@@Z
    ?InitializeDynamicShaders_cutlass3x_common_cutlass3x_conv_fprop_bias_activation_leaky_relu_resadd_sm100_tensorop_256x128x32_s8_s8_s32_f32_f32_d5fda34df896d0b9@cask6_myelin@@YA?AW4Status@1@AEAVContext@1@@Z
    ?InitializeDynamicShaders_cutlass3x_common_cutlass3x_conv_fprop_bias_activation_leaky_relu_resadd_sm100_tensorop_256x128x32_s8_s8_s32_s8_s8_68fa0c6119b3b371@cask6_myelin@@YA?AW4Status@1@AEAVContext@1@@Z
    ?InitializeDynamicShaders_cutlass3x_common_cutlass3x_conv_fprop_bias_activation_leaky_relu_resadd_sm100_tensorop_256x256x16_bf16_bf16_f32_bf16_bf16_4e53068d2cd8a3e8@cask6_myelin@@YA?AW4Status@1@AEAVContext@1@@Z
    ?InitializeDynamicShaders_cutlass3x_common_cutlass3x_conv_fprop_bias_activation_leaky_relu_resadd_sm100_tensorop_256x256x16_f16_f16_f16_f16_f16_e9c3ae870809395c@cask6_myelin@@YA?AW4Status@1@AEAVContext@1@@Z
    ?InitializeDynamicShaders_cutlass3x_common_cutlass3x_conv_fprop_bias_activation_leaky_relu_resadd_sm100_tensorop_256x256x16_f16_f16_f32_f16_f16_22da6961c302b5b2@cask6_myelin@@YA?AW4Status@1@AEAVContext@1@@Z
    ?InitializeDynamicShaders_cutlass3x_common_cutlass3x_conv_fprop_bias_activation_leaky_relu_resadd_sm100_tensorop_256x256x32_e4m3_e4m3_f32_bf16_bf16_464c601ab6268b15@cask6_myelin@@YA?AW4Status@1@AEAVContext@1@@Z
    ?InitializeDynamicShaders_cutlass3x_common_cutlass3x_conv_fprop_bias_activation_leaky_relu_resadd_sm100_tensorop_256x256x32_e4m3_e4m3_f32_bf16_bf16_93030c759b79b43b@cask6_myelin@@YA?AW4Status@1@AEAVContext@1@@Z
    ?InitializeDynamicShaders_cutlass3x_common_cutlass3x_conv_fprop_bias_activation_leaky_relu_resadd_sm100_tensorop_256x256x32_e4m3_e4m3_f32_e4m3_e4m3_16e5ad71273be5f0@cask6_myelin@@YA?AW4Status@1@AEAVContext@1@@Z
    ?InitializeDynamicShaders_cutlass3x_common_cutlass3x_conv_fprop_bias_activation_leaky_relu_resadd_sm100_tensorop_256x256x32_e4m3_e4m3_f32_e4m3_e4m3_f4ccca2bc70389df@cask6_myelin@@YA?AW4Status@1@AEAVContext@1@@Z
    ?InitializeDynamicShaders_cutlass3x_common_cutlass3x_conv_fprop_bias_activation_leaky_relu_resadd_sm100_tensorop_256x256x32_e4m3_e4m3_f32_f16_f16_128c11a15c70b3d6@cask6_myelin@@YA?AW4Status@1@AEAVContext@1@@Z
    ?InitializeDynamicShaders_cutlass3x_common_cutlass3x_conv_fprop_bias_activation_leaky_relu_resadd_sm100_tensorop_256x256x32_e4m3_e4m3_f32_f16_f16_81f36f212cb3c290@cask6_myelin@@YA?AW4Status@1@AEAVContext@1@@Z
    ?InitializeDynamicShaders_cutlass3x_common_cutlass3x_conv_fprop_bias_activation_leaky_relu_resadd_sm100_tensorop_256x256x32_e4m3_e4m3_f32_f32_f32_93d4628927e4d429@cask6_myelin@@YA?AW4Status@1@AEAVContext@1@@Z
    ?InitializeDynamicShaders_cutlass3x_common_cutlass3x_conv_fprop_bias_activation_leaky_relu_resadd_sm100_tensorop_256x256x32_e4m3_e4m3_f32_f32_f32_f64348760cf30d0e@cask6_myelin@@YA?AW4Status@1@AEAVContext@1@@Z
    ?InitializeDynamicShaders_cutlass3x_common_cutlass3x_conv_fprop_bias_activation_leaky_relu_resadd_sm100_tensorop_256x256x32_s8_s8_s32_f16_f16_821945619d6b3cec@cask6_myelin@@YA?AW4Status@1@AEAVContext@1@@Z
    ?InitializeDynamicShaders_cutlass3x_common_cutlass3x_conv_fprop_bias_activation_leaky_relu_resadd_sm100_tensorop_256x256x32_s8_s8_s32_f32_f32_4283f7a07e1a82cb@cask6_myelin@@YA?AW4Status@1@AEAVContext@1@@Z
    ?InitializeDynamicShaders_cutlass3x_common_cutlass3x_conv_fprop_bias_activation_leaky_relu_resadd_sm100_tensorop_256x256x32_s8_s8_s32_s8_s8_91ac5959230acedc@cask6_myelin@@YA?AW4Status@1@AEAVContext@1@@Z
    ?InitializeDynamicShaders_cutlass3x_common_cutlass3x_conv_fprop_bias_activation_leaky_relu_resadd_sm100_tensorop_256x64x16_bf16_bf16_f32_bf16_bf16_1c818ae9d043933d@cask6_myelin@@YA?AW4Status@1@AEAVContext@1@@Z
    ?InitializeDynamicShaders_cutlass3x_common_cutlass3x_conv_fprop_bias_activation_leaky_relu_resadd_sm100_tensorop_256x64x16_f16_f16_f16_f16_f16_f8397499ca2291c4@cask6_myelin@@YA?AW4Status@1@AEAVContext@1@@Z
    ?InitializeDynamicShaders_cutlass3x_common_cutlass3x_conv_fprop_bias_activation_leaky_relu_resadd_sm100_tensorop_256x64x16_f16_f16_f32_f16_f16_19270fe3c22a74a1@cask6_myelin@@YA?AW4Status@1@AEAVContext@1@@Z
    ?InitializeDynamicShaders_cutlass3x_common_cutlass3x_conv_fprop_bias_activation_leaky_relu_resadd_sm100_tensorop_256x64x32_e4m3_e4m3_f32_bf16_bf16_5d2b1045d6758f7d@cask6_myelin@@YA?AW4Status@1@AEAVContext@1@@Z
    ?InitializeDynamicShaders_cutlass3x_common_cutlass3x_conv_fprop_bias_activation_leaky_relu_resadd_sm100_tensorop_256x64x32_e4m3_e4m3_f32_bf16_bf16_f5b1daaae4ca2097@cask6_myelin@@YA?AW4Status@1@AEAVContext@1@@Z
    ?InitializeDynamicShaders_cutlass3x_common_cutlass3x_conv_fprop_bias_activation_leaky_relu_resadd_sm100_tensorop_256x64x32_e4m3_e4m3_f32_e4m3_e4m3_8a897a459aa5db41@cask6_myelin@@YA?AW4Status@1@AEAVContext@1@@Z
    ?InitializeDynamicShaders_cutlass3x_common_cutlass3x_conv_fprop_bias_activation_leaky_relu_resadd_sm100_tensorop_256x64x32_e4m3_e4m3_f32_e4m3_e4m3_ebad220c773f780e@cask6_myelin@@YA?AW4Status@1@AEAVContext@1@@Z
    ?InitializeDynamicShaders_cutlass3x_common_cutlass3x_conv_fprop_bias_activation_leaky_relu_resadd_sm100_tensorop_256x64x32_e4m3_e4m3_f32_f16_f16_266e663a9a353baf@cask6_myelin@@YA?AW4Status@1@AEAVContext@1@@Z
    ?InitializeDynamicShaders_cutlass3x_common_cutlass3x_conv_fprop_bias_activation_leaky_relu_resadd_sm100_tensorop_256x64x32_e4m3_e4m3_f32_f16_f16_39398998886ef4c8@cask6_myelin@@YA?AW4Status@1@AEAVContext@1@@Z
    ?InitializeDynamicShaders_cutlass3x_common_cutlass3x_conv_fprop_bias_activation_leaky_relu_resadd_sm100_tensorop_256x64x32_e4m3_e4m3_f32_f32_f32_8aa20fafa545e730@cask6_myelin@@YA?AW4Status@1@AEAVContext@1@@Z
    ?InitializeDynamicShaders_cutlass3x_common_cutlass3x_conv_fprop_bias_activation_leaky_relu_resadd_sm100_tensorop_256x64x32_e4m3_e4m3_f32_f32_f32_b9c5a7c940f4e97f@cask6_myelin@@YA?AW4Status@1@AEAVContext@1@@Z
    ?InitializeDynamicShaders_cutlass3x_common_cutlass3x_conv_fprop_bias_activation_leaky_relu_resadd_sm100_tensorop_256x64x32_s8_s8_s32_f16_f16_2d29473d973786b7@cask6_myelin@@YA?AW4Status@1@AEAVContext@1@@Z
    ?InitializeDynamicShaders_cutlass3x_common_cutlass3x_conv_fprop_bias_activation_leaky_relu_resadd_sm100_tensorop_256x64x32_s8_s8_s32_f32_f32_48c543b8c3f84118@cask6_myelin@@YA?AW4Status@1@AEAVContext@1@@Z
    ?InitializeDynamicShaders_cutlass3x_common_cutlass3x_conv_fprop_bias_activation_leaky_relu_resadd_sm100_tensorop_256x64x32_s8_s8_s32_s8_s8_676cfb014ef003b8@cask6_myelin@@YA?AW4Status@1@AEAVContext@1@@Z
    ?InitializeDynamicShaders_cutlass3x_common_cutlass3x_conv_fprop_bias_activation_leaky_relu_resadd_sm100_tensorop_64x128x16_bf16_bf16_f32_bf16_bf16_1562fc0291ab01a1@cask6_myelin@@YA?AW4Status@1@AEAVContext@1@@Z
    ?InitializeDynamicShaders_cutlass3x_common_cutlass3x_conv_fprop_bias_activation_leaky_relu_resadd_sm100_tensorop_64x128x16_f16_f16_f16_f16_f16_457e10d7d39d7f43@cask6_myelin@@YA?AW4Status@1@AEAVContext@1@@Z
    ?InitializeDynamicShaders_cutlass3x_common_cutlass3x_conv_fprop_bias_activation_leaky_relu_resadd_sm100_tensorop_64x128x16_f16_f16_f32_f16_f16_a8862f05347bc192@cask6_myelin@@YA?AW4Status@1@AEAVContext@1@@Z
    ?InitializeDynamicShaders_cutlass3x_common_cutlass3x_conv_fprop_bias_activation_leaky_relu_resadd_sm100_tensorop_64x128x32_e4m3_e4m3_f32_bf16_bf16_1c216fc03afeb068@cask6_myelin@@YA?AW4Status@1@AEAVContext@1@@Z
    ?InitializeDynamicShaders_cutlass3x_common_cutlass3x_conv_fprop_bias_activation_leaky_relu_resadd_sm100_tensorop_64x128x32_e4m3_e4m3_f32_bf16_bf16_d0facee08a80eb10@cask6_myelin@@YA?AW4Status@1@AEAVContext@1@@Z
    ?InitializeDynamicShaders_cutlass3x_common_cutlass3x_conv_fprop_bias_activation_leaky_relu_resadd_sm100_tensorop_64x128x32_e4m3_e4m3_f32_e4m3_e4m3_4fb3a5ceb67a7b8c@cask6_myelin@@YA?AW4Status@1@AEAVContext@1@@Z
    ?InitializeDynamicShaders_cutlass3x_common_cutlass3x_conv_fprop_bias_activation_leaky_relu_resadd_sm100_tensorop_64x128x32_e4m3_e4m3_f32_e4m3_e4m3_e872823bfceb0ce4@cask6_myelin@@YA?AW4Status@1@AEAVContext@1@@Z
    ?InitializeDynamicShaders_cutlass3x_common_cutlass3x_conv_fprop_bias_activation_leaky_relu_resadd_sm100_tensorop_64x128x32_e4m3_e4m3_f32_f16_f16_2cebbfe6409a44b6@cask6_myelin@@YA?AW4Status@1@AEAVContext@1@@Z
    ?InitializeDynamicShaders_cutlass3x_common_cutlass3x_conv_fprop_bias_activation_leaky_relu_resadd_sm100_tensorop_64x128x32_e4m3_e4m3_f32_f16_f16_9239b52d2386bdda@cask6_myelin@@YA?AW4Status@1@AEAVContext@1@@Z
    ?InitializeDynamicShaders_cutlass3x_common_cutlass3x_conv_fprop_bias_activation_leaky_relu_resadd_sm100_tensorop_64x128x32_e4m3_e4m3_f32_f32_f32_57293e4c8a636409@cask6_myelin@@YA?AW4Status@1@AEAVContext@1@@Z
    ?InitializeDynamicShaders_cutlass3x_common_cutlass3x_conv_fprop_bias_activation_leaky_relu_resadd_sm100_tensorop_64x128x32_e4m3_e4m3_f32_f32_f32_ead9c86f6a8076e5@cask6_myelin@@YA?AW4Status@1@AEAVContext@1@@Z
    ?InitializeDynamicShaders_cutlass3x_common_cutlass3x_conv_fprop_bias_activation_leaky_relu_resadd_sm100_tensorop_64x128x32_s8_s8_s32_f16_f16_642f76d9c1694fe3@cask6_myelin@@YA?AW4Status@1@AEAVContext@1@@Z
    ?InitializeDynamicShaders_cutlass3x_common_cutlass3x_conv_fprop_bias_activation_leaky_relu_resadd_sm100_tensorop_64x128x32_s8_s8_s32_f32_f32_4ac41933b40545dd@cask6_myelin@@YA?AW4Status@1@AEAVContext@1@@Z
    ?InitializeDynamicShaders_cutlass3x_common_cutlass3x_conv_fprop_bias_activation_leaky_relu_resadd_sm100_tensorop_64x128x32_s8_s8_s32_s8_s8_e17fa4985740945d@cask6_myelin@@YA?AW4Status@1@AEAVContext@1@@Z
    ?InitializeDynamicShaders_cutlass3x_common_cutlass3x_conv_fprop_bias_activation_leaky_relu_resadd_sm100_tensorop_64x256x16_bf16_bf16_f32_bf16_bf16_1cd2d998710715d9@cask6_myelin@@YA?AW4Status@1@AEAVContext@1@@Z
    ?InitializeDynamicShaders_cutlass3x_common_cutlass3x_conv_fprop_bias_activation_leaky_relu_resadd_sm100_tensorop_64x256x16_f16_f16_f16_f16_f16_92c62564c4917ebc@cask6_myelin@@YA?AW4Status@1@AEAVContext@1@@Z
    ?InitializeDynamicShaders_cutlass3x_common_cutlass3x_conv_fprop_bias_activation_leaky_relu_resadd_sm100_tensorop_64x256x16_f16_f16_f32_f16_f16_5ea77f727577fb1e@cask6_myelin@@YA?AW4Status@1@AEAVContext@1@@Z
    ?InitializeDynamicShaders_cutlass3x_common_cutlass3x_conv_fprop_bias_activation_leaky_relu_resadd_sm100_tensorop_64x256x32_e4m3_e4m3_f32_bf16_bf16_71a36f57956905e2@cask6_myelin@@YA?AW4Status@1@AEAVContext@1@@Z
    ?InitializeDynamicShaders_cutlass3x_common_cutlass3x_conv_fprop_bias_activation_leaky_relu_resadd_sm100_tensorop_64x256x32_e4m3_e4m3_f32_bf16_bf16_f16afdd9468484bb@cask6_myelin@@YA?AW4Status@1@AEAVContext@1@@Z
    ?InitializeDynamicShaders_cutlass3x_common_cutlass3x_conv_fprop_bias_activation_leaky_relu_resadd_sm100_tensorop_64x256x32_e4m3_e4m3_f32_e4m3_e4m3_265368ccb2b3c9e7@cask6_myelin@@YA?AW4Status@1@AEAVContext@1@@Z
    ?InitializeDynamicShaders_cutlass3x_common_cutlass3x_conv_fprop_bias_activation_leaky_relu_resadd_sm100_tensorop_64x256x32_e4m3_e4m3_f32_e4m3_e4m3_847990573032d6c7@cask6_myelin@@YA?AW4Status@1@AEAVContext@1@@Z
    ?InitializeDynamicShaders_cutlass3x_common_cutlass3x_conv_fprop_bias_activation_leaky_relu_resadd_sm100_tensorop_64x256x32_e4m3_e4m3_f32_f16_f16_1cd4c0f5ebd0aff8@cask6_myelin@@YA?AW4Status@1@AEAVContext@1@@Z
    ?InitializeDynamicShaders_cutlass3x_common_cutlass3x_conv_fprop_bias_activation_leaky_relu_resadd_sm100_tensorop_64x256x32_e4m3_e4m3_f32_f16_f16_33f1c13284a81bd6@cask6_myelin@@YA?AW4Status@1@AEAVContext@1@@Z
    ?InitializeDynamicShaders_cutlass3x_common_cutlass3x_conv_fprop_bias_activation_leaky_relu_resadd_sm100_tensorop_64x256x32_e4m3_e4m3_f32_f32_f32_d15728d065e7b33d@cask6_myelin@@YA?AW4Status@1@AEAVContext@1@@Z
    ?InitializeDynamicShaders_cutlass3x_common_cutlass3x_conv_fprop_bias_activation_leaky_relu_resadd_sm100_tensorop_64x256x32_e4m3_e4m3_f32_f32_f32_d85c9addbef52cc9@cask6_myelin@@YA?AW4Status@1@AEAVContext@1@@Z
    ?InitializeDynamicShaders_cutlass3x_common_cutlass3x_conv_fprop_bias_activation_leaky_relu_resadd_sm100_tensorop_64x64x16_bf16_bf16_f32_bf16_bf16_4a13b1e7f5f2eb71@cask6_myelin@@YA?AW4Status@1@AEAVContext@1@@Z
    ?InitializeDynamicShaders_cutlass3x_common_cutlass3x_conv_fprop_bias_activation_leaky_relu_resadd_sm100_tensorop_64x64x16_f16_f16_f16_f16_f16_77ba8962096a8436@cask6_myelin@@YA?AW4Status@1@AEAVContext@1@@Z
    ?InitializeDynamicShaders_cutlass3x_common_cutlass3x_conv_fprop_bias_activation_leaky_relu_resadd_sm100_tensorop_64x64x16_f16_f16_f32_f16_f16_908f96391fb41c6b@cask6_myelin@@YA?AW4Status@1@AEAVContext@1@@Z
    ?InitializeDynamicShaders_cutlass3x_common_cutlass3x_conv_fprop_bias_activation_leaky_relu_resadd_sm100_tensorop_64x64x32_e4m3_e4m3_f32_bf16_bf16_5d943416a6d0bbe2@cask6_myelin@@YA?AW4Status@1@AEAVContext@1@@Z
    ?InitializeDynamicShaders_cutlass3x_common_cutlass3x_conv_fprop_bias_activation_leaky_relu_resadd_sm100_tensorop_64x64x32_e4m3_e4m3_f32_bf16_bf16_957a556292f1c1bf@cask6_myelin@@YA?AW4Status@1@AEAVContext@1@@Z
    ?InitializeDynamicShaders_cutlass3x_common_cutlass3x_conv_fprop_bias_activation_leaky_relu_resadd_sm100_tensorop_64x64x32_e4m3_e4m3_f32_e4m3_e4m3_478f368dafca40d3@cask6_myelin@@YA?AW4Status@1@AEAVContext@1@@Z
    ?InitializeDynamicShaders_cutlass3x_common_cutlass3x_conv_fprop_bias_activation_leaky_relu_resadd_sm100_tensorop_64x64x32_e4m3_e4m3_f32_e4m3_e4m3_605b26b7bf379915@cask6_myelin@@YA?AW4Status@1@AEAVContext@1@@Z
    ?InitializeDynamicShaders_cutlass3x_common_cutlass3x_conv_fprop_bias_activation_leaky_relu_resadd_sm100_tensorop_64x64x32_e4m3_e4m3_f32_f16_f16_a953dc9416b76920@cask6_myelin@@YA?AW4Status@1@AEAVContext@1@@Z
    ?InitializeDynamicShaders_cutlass3x_common_cutlass3x_conv_fprop_bias_activation_leaky_relu_resadd_sm100_tensorop_64x64x32_e4m3_e4m3_f32_f16_f16_fe9783da60c14046@cask6_myelin@@YA?AW4Status@1@AEAVContext@1@@Z
    ?InitializeDynamicShaders_cutlass3x_common_cutlass3x_conv_fprop_bias_activation_leaky_relu_resadd_sm100_tensorop_64x64x32_e4m3_e4m3_f32_f32_f32_a4073553b820c965@cask6_myelin@@YA?AW4Status@1@AEAVContext@1@@Z
    ?InitializeDynamicShaders_cutlass3x_common_cutlass3x_conv_fprop_bias_activation_leaky_relu_resadd_sm100_tensorop_64x64x32_e4m3_e4m3_f32_f32_f32_e10e9d2ccc9d2d45@cask6_myelin@@YA?AW4Status@1@AEAVContext@1@@Z
    ?InitializeDynamicShaders_cutlass3x_common_cutlass3x_conv_fprop_bias_activation_leaky_relu_resadd_sm100_tensorop_64x64x32_s8_s8_s32_f16_f16_8627fe21827c6638@cask6_myelin@@YA?AW4Status@1@AEAVContext@1@@Z
    ?InitializeDynamicShaders_cutlass3x_common_cutlass3x_conv_fprop_bias_activation_leaky_relu_resadd_sm100_tensorop_64x64x32_s8_s8_s32_f32_f32_61d4ef85ba5f6a82@cask6_myelin@@YA?AW4Status@1@AEAVContext@1@@Z
    ?InitializeDynamicShaders_cutlass3x_common_cutlass3x_conv_fprop_bias_activation_leaky_relu_resadd_sm100_tensorop_64x64x32_s8_s8_s32_s8_s8_2d7def1c490b01db@cask6_myelin@@YA?AW4Status@1@AEAVContext@1@@Z
    ?InitializeDynamicShaders_cutlass3x_common_cutlass3x_conv_fprop_bias_activation_leaky_relu_sm100_tensorop_128x128x16_bf16_bf16_f32_bf16_bf16_e6784b4d986bf96c@cask6_myelin@@YA?AW4Status@1@AEAVContext@1@@Z
    ?InitializeDynamicShaders_cutlass3x_common_cutlass3x_conv_fprop_bias_activation_leaky_relu_sm100_tensorop_128x128x16_bf16_bf16_f32_bf16_bf16_f121f7729d192c2b@cask6_myelin@@YA?AW4Status@1@AEAVContext@1@@Z
    ?InitializeDynamicShaders_cutlass3x_common_cutlass3x_conv_fprop_bias_activation_leaky_relu_sm100_tensorop_128x128x16_f16_f16_f16_f16_f16_3778a17d9749c84f@cask6_myelin@@YA?AW4Status@1@AEAVContext@1@@Z
    ?InitializeDynamicShaders_cutlass3x_common_cutlass3x_conv_fprop_bias_activation_leaky_relu_sm100_tensorop_128x128x16_f16_f16_f16_f16_f16_bccf0e7667d251a8@cask6_myelin@@YA?AW4Status@1@AEAVContext@1@@Z
    ?InitializeDynamicShaders_cutlass3x_common_cutlass3x_conv_fprop_bias_activation_leaky_relu_sm100_tensorop_128x128x16_f16_f16_f32_f16_f16_5d348bacb5727cd5@cask6_myelin@@YA?AW4Status@1@AEAVContext@1@@Z
    ?InitializeDynamicShaders_cutlass3x_common_cutlass3x_conv_fprop_bias_activation_leaky_relu_sm100_tensorop_128x128x16_f16_f16_f32_f16_f16_ae4ed50728fa7e6d@cask6_myelin@@YA?AW4Status@1@AEAVContext@1@@Z
    ?InitializeDynamicShaders_cutlass3x_common_cutlass3x_conv_fprop_bias_activation_leaky_relu_sm100_tensorop_128x128x32_e4m3_e4m3_f32_bf16_bf16_decbb0af234cc7af@cask6_myelin@@YA?AW4Status@1@AEAVContext@1@@Z
    ?InitializeDynamicShaders_cutlass3x_common_cutlass3x_conv_fprop_bias_activation_leaky_relu_sm100_tensorop_128x128x32_e4m3_e4m3_f32_bf16_bf16_e6d0969a4f142c1b@cask6_myelin@@YA?AW4Status@1@AEAVContext@1@@Z
    ?InitializeDynamicShaders_cutlass3x_common_cutlass3x_conv_fprop_bias_activation_leaky_relu_sm100_tensorop_128x128x32_e4m3_e4m3_f32_e4m3_e4m3_406954f40692e92d@cask6_myelin@@YA?AW4Status@1@AEAVContext@1@@Z
    ?InitializeDynamicShaders_cutlass3x_common_cutlass3x_conv_fprop_bias_activation_leaky_relu_sm100_tensorop_128x128x32_e4m3_e4m3_f32_e4m3_e4m3_a24e356f5a94a1b4@cask6_myelin@@YA?AW4Status@1@AEAVContext@1@@Z
    ?InitializeDynamicShaders_cutlass3x_common_cutlass3x_conv_fprop_bias_activation_leaky_relu_sm100_tensorop_128x128x32_e4m3_e4m3_f32_f16_f16_30fe46b8717c98e9@cask6_myelin@@YA?AW4Status@1@AEAVContext@1@@Z
    ?InitializeDynamicShaders_cutlass3x_common_cutlass3x_conv_fprop_bias_activation_leaky_relu_sm100_tensorop_128x128x32_e4m3_e4m3_f32_f16_f16_d330656a1b4e4783@cask6_myelin@@YA?AW4Status@1@AEAVContext@1@@Z
    ?InitializeDynamicShaders_cutlass3x_common_cutlass3x_conv_fprop_bias_activation_leaky_relu_sm100_tensorop_128x128x32_e4m3_e4m3_f32_f32_f32_279e61f40f9214b@cask6_myelin@@YA?AW4Status@1@AEAVContext@1@@Z
    ?InitializeDynamicShaders_cutlass3x_common_cutlass3x_conv_fprop_bias_activation_leaky_relu_sm100_tensorop_128x128x32_e4m3_e4m3_f32_f32_f32_c3cc0aaf08d5a23b@cask6_myelin@@YA?AW4Status@1@AEAVContext@1@@Z
    ?InitializeDynamicShaders_cutlass3x_common_cutlass3x_conv_fprop_bias_activation_leaky_relu_sm100_tensorop_128x128x32_s8_s8_s32_f16_f16_7d2bd012660b381a@cask6_myelin@@YA?AW4Status@1@AEAVContext@1@@Z
    ?InitializeDynamicShaders_cutlass3x_common_cutlass3x_conv_fprop_bias_activation_leaky_relu_sm100_tensorop_128x128x32_s8_s8_s32_f16_f16_9c851b5a9a6b7642@cask6_myelin@@YA?AW4Status@1@AEAVContext@1@@Z
    ?InitializeDynamicShaders_cutlass3x_common_cutlass3x_conv_fprop_bias_activation_leaky_relu_sm100_tensorop_128x128x32_s8_s8_s32_f32_f32_64b878708973243@cask6_myelin@@YA?AW4Status@1@AEAVContext@1@@Z
    ?InitializeDynamicShaders_cutlass3x_common_cutlass3x_conv_fprop_bias_activation_leaky_relu_sm100_tensorop_128x128x32_s8_s8_s32_f32_f32_e8d64e8ad597b7d4@cask6_myelin@@YA?AW4Status@1@AEAVContext@1@@Z
    ?InitializeDynamicShaders_cutlass3x_common_cutlass3x_conv_fprop_bias_activation_leaky_relu_sm100_tensorop_128x128x32_s8_s8_s32_s8_s8_30937485a7a56c12@cask6_myelin@@YA?AW4Status@1@AEAVContext@1@@Z
    ?InitializeDynamicShaders_cutlass3x_common_cutlass3x_conv_fprop_bias_activation_leaky_relu_sm100_tensorop_128x128x32_s8_s8_s32_s8_s8_726eec29251a0287@cask6_myelin@@YA?AW4Status@1@AEAVContext@1@@Z
    ?InitializeDynamicShaders_cutlass3x_common_cutlass3x_conv_fprop_bias_activation_leaky_relu_sm100_tensorop_128x256x16_bf16_bf16_f32_bf16_bf16_1488c8585a53b252@cask6_myelin@@YA?AW4Status@1@AEAVContext@1@@Z
    ?InitializeDynamicShaders_cutlass3x_common_cutlass3x_conv_fprop_bias_activation_leaky_relu_sm100_tensorop_128x256x16_bf16_bf16_f32_bf16_bf16_4d3f56912d731d40@cask6_myelin@@YA?AW4Status@1@AEAVContext@1@@Z
    ?InitializeDynamicShaders_cutlass3x_common_cutlass3x_conv_fprop_bias_activation_leaky_relu_sm100_tensorop_128x256x16_f16_f16_f16_f16_f16_259903b76516952a@cask6_myelin@@YA?AW4Status@1@AEAVContext@1@@Z
    ?InitializeDynamicShaders_cutlass3x_common_cutlass3x_conv_fprop_bias_activation_leaky_relu_sm100_tensorop_128x256x16_f16_f16_f16_f16_f16_eaec5d3fcf648842@cask6_myelin@@YA?AW4Status@1@AEAVContext@1@@Z
    ?InitializeDynamicShaders_cutlass3x_common_cutlass3x_conv_fprop_bias_activation_leaky_relu_sm100_tensorop_128x256x16_f16_f16_f32_f16_f16_726505e2fa78998f@cask6_myelin@@YA?AW4Status@1@AEAVContext@1@@Z
    ?InitializeDynamicShaders_cutlass3x_common_cutlass3x_conv_fprop_bias_activation_leaky_relu_sm100_tensorop_128x256x16_f16_f16_f32_f16_f16_81fb457fc8add0a5@cask6_myelin@@YA?AW4Status@1@AEAVContext@1@@Z
    ?InitializeDynamicShaders_cutlass3x_common_cutlass3x_conv_fprop_bias_activation_leaky_relu_sm100_tensorop_128x256x32_e4m3_e4m3_f32_bf16_bf16_938962be8f68ee74@cask6_myelin@@YA?AW4Status@1@AEAVContext@1@@Z
    ?InitializeDynamicShaders_cutlass3x_common_cutlass3x_conv_fprop_bias_activation_leaky_relu_sm100_tensorop_128x256x32_e4m3_e4m3_f32_bf16_bf16_fe16f137be7ce6e9@cask6_myelin@@YA?AW4Status@1@AEAVContext@1@@Z
    ?InitializeDynamicShaders_cutlass3x_common_cutlass3x_conv_fprop_bias_activation_leaky_relu_sm100_tensorop_128x256x32_e4m3_e4m3_f32_e4m3_e4m3_30bb66663ead5ac6@cask6_myelin@@YA?AW4Status@1@AEAVContext@1@@Z
    ?InitializeDynamicShaders_cutlass3x_common_cutlass3x_conv_fprop_bias_activation_leaky_relu_sm100_tensorop_128x256x32_e4m3_e4m3_f32_e4m3_e4m3_a15e95779bb02f69@cask6_myelin@@YA?AW4Status@1@AEAVContext@1@@Z
    ?InitializeDynamicShaders_cutlass3x_common_cutlass3x_conv_fprop_bias_activation_leaky_relu_sm100_tensorop_128x256x32_e4m3_e4m3_f32_f16_f16_bd5d23462c19ab05@cask6_myelin@@YA?AW4Status@1@AEAVContext@1@@Z
    ?InitializeDynamicShaders_cutlass3x_common_cutlass3x_conv_fprop_bias_activation_leaky_relu_sm100_tensorop_128x256x32_e4m3_e4m3_f32_f16_f16_f0ca5a5a78bbe729@cask6_myelin@@YA?AW4Status@1@AEAVContext@1@@Z
    ?InitializeDynamicShaders_cutlass3x_common_cutlass3x_conv_fprop_bias_activation_leaky_relu_sm100_tensorop_128x256x32_e4m3_e4m3_f32_f32_f32_40cd5df31fd5a1c3@cask6_myelin@@YA?AW4Status@1@AEAVContext@1@@Z
    ?InitializeDynamicShaders_cutlass3x_common_cutlass3x_conv_fprop_bias_activation_leaky_relu_sm100_tensorop_128x256x32_e4m3_e4m3_f32_f32_f32_c1750a34c9d54b72@cask6_myelin@@YA?AW4Status@1@AEAVContext@1@@Z
    ?InitializeDynamicShaders_cutlass3x_common_cutlass3x_conv_fprop_bias_activation_leaky_relu_sm100_tensorop_128x256x32_s8_s8_s32_f16_f16_99c7419bdd235e44@cask6_myelin@@YA?AW4Status@1@AEAVContext@1@@Z
    ?InitializeDynamicShaders_cutlass3x_common_cutlass3x_conv_fprop_bias_activation_leaky_relu_sm100_tensorop_128x256x32_s8_s8_s32_f16_f16_f10109485318d68e@cask6_myelin@@YA?AW4Status@1@AEAVContext@1@@Z
    ?InitializeDynamicShaders_cutlass3x_common_cutlass3x_conv_fprop_bias_activation_leaky_relu_sm100_tensorop_128x256x32_s8_s8_s32_f32_f32_5abeec6a364eaf91@cask6_myelin@@YA?AW4Status@1@AEAVContext@1@@Z
    ?InitializeDynamicShaders_cutlass3x_common_cutlass3x_conv_fprop_bias_activation_leaky_relu_sm100_tensorop_128x256x32_s8_s8_s32_f32_f32_8448560ccd8fbb7f@cask6_myelin@@YA?AW4Status@1@AEAVContext@1@@Z
    ?InitializeDynamicShaders_cutlass3x_common_cutlass3x_conv_fprop_bias_activation_leaky_relu_sm100_tensorop_128x256x32_s8_s8_s32_s8_s8_21ec37ef8f3a8b1c@cask6_myelin@@YA?AW4Status@1@AEAVContext@1@@Z
    ?InitializeDynamicShaders_cutlass3x_common_cutlass3x_conv_fprop_bias_activation_leaky_relu_sm100_tensorop_128x256x32_s8_s8_s32_s8_s8_c035b1754e12184f@cask6_myelin@@YA?AW4Status@1@AEAVContext@1@@Z
    ?InitializeDynamicShaders_cutlass3x_common_cutlass3x_conv_fprop_bias_activation_leaky_relu_sm100_tensorop_128x64x16_bf16_bf16_f32_bf16_bf16_5ba4b90cb7531536@cask6_myelin@@YA?AW4Status@1@AEAVContext@1@@Z
    ?InitializeDynamicShaders_cutlass3x_common_cutlass3x_conv_fprop_bias_activation_leaky_relu_sm100_tensorop_128x64x16_bf16_bf16_f32_bf16_bf16_95b7344409e5b828@cask6_myelin@@YA?AW4Status@1@AEAVContext@1@@Z
    ?InitializeDynamicShaders_cutlass3x_common_cutlass3x_conv_fprop_bias_activation_leaky_relu_sm100_tensorop_128x64x16_f16_f16_f16_f16_f16_6a8645a18da5e02@cask6_myelin@@YA?AW4Status@1@AEAVContext@1@@Z
    ?InitializeDynamicShaders_cutlass3x_common_cutlass3x_conv_fprop_bias_activation_leaky_relu_sm100_tensorop_128x64x16_f16_f16_f16_f16_f16_d8cbbab4bb15b056@cask6_myelin@@YA?AW4Status@1@AEAVContext@1@@Z
    ?InitializeDynamicShaders_cutlass3x_common_cutlass3x_conv_fprop_bias_activation_leaky_relu_sm100_tensorop_128x64x16_f16_f16_f32_f16_f16_233a26d1e08978f4@cask6_myelin@@YA?AW4Status@1@AEAVContext@1@@Z
    ?InitializeDynamicShaders_cutlass3x_common_cutlass3x_conv_fprop_bias_activation_leaky_relu_sm100_tensorop_128x64x16_f16_f16_f32_f16_f16_f0f4933a35e890f3@cask6_myelin@@YA?AW4Status@1@AEAVContext@1@@Z
    ?InitializeDynamicShaders_cutlass3x_common_cutlass3x_conv_fprop_bias_activation_leaky_relu_sm100_tensorop_128x64x32_e4m3_e4m3_f32_bf16_bf16_28a3b1918318d07@cask6_myelin@@YA?AW4Status@1@AEAVContext@1@@Z
    ?InitializeDynamicShaders_cutlass3x_common_cutlass3x_conv_fprop_bias_activation_leaky_relu_sm100_tensorop_128x64x32_e4m3_e4m3_f32_bf16_bf16_7d33afc0315a5d79@cask6_myelin@@YA?AW4Status@1@AEAVContext@1@@Z
    ?InitializeDynamicShaders_cutlass3x_common_cutlass3x_conv_fprop_bias_activation_leaky_relu_sm100_tensorop_128x64x32_e4m3_e4m3_f32_e4m3_e4m3_b1f04391e464e90a@cask6_myelin@@YA?AW4Status@1@AEAVContext@1@@Z
    ?InitializeDynamicShaders_cutlass3x_common_cutlass3x_conv_fprop_bias_activation_leaky_relu_sm100_tensorop_128x64x32_e4m3_e4m3_f32_e4m3_e4m3_ba38475717f5ae5@cask6_myelin@@YA?AW4Status@1@AEAVContext@1@@Z
    ?InitializeDynamicShaders_cutlass3x_common_cutlass3x_conv_fprop_bias_activation_leaky_relu_sm100_tensorop_128x64x32_e4m3_e4m3_f32_f16_f16_80e1d21900b33d1d@cask6_myelin@@YA?AW4Status@1@AEAVContext@1@@Z
    ?InitializeDynamicShaders_cutlass3x_common_cutlass3x_conv_fprop_bias_activation_leaky_relu_sm100_tensorop_128x64x32_e4m3_e4m3_f32_f16_f16_9149a094e779ed27@cask6_myelin@@YA?AW4Status@1@AEAVContext@1@@Z
    ?InitializeDynamicShaders_cutlass3x_common_cutlass3x_conv_fprop_bias_activation_leaky_relu_sm100_tensorop_128x64x32_e4m3_e4m3_f32_f32_f32_21a847994de5db9@cask6_myelin@@YA?AW4Status@1@AEAVContext@1@@Z
    ?InitializeDynamicShaders_cutlass3x_common_cutlass3x_conv_fprop_bias_activation_leaky_relu_sm100_tensorop_128x64x32_e4m3_e4m3_f32_f32_f32_2266d6a1ae6779ee@cask6_myelin@@YA?AW4Status@1@AEAVContext@1@@Z
    ?InitializeDynamicShaders_cutlass3x_common_cutlass3x_conv_fprop_bias_activation_leaky_relu_sm100_tensorop_128x64x32_s8_s8_s32_f16_f16_abdc196e53782a23@cask6_myelin@@YA?AW4Status@1@AEAVContext@1@@Z
    ?InitializeDynamicShaders_cutlass3x_common_cutlass3x_conv_fprop_bias_activation_leaky_relu_sm100_tensorop_128x64x32_s8_s8_s32_f16_f16_fccf9b227ac94589@cask6_myelin@@YA?AW4Status@1@AEAVContext@1@@Z
    ?InitializeDynamicShaders_cutlass3x_common_cutlass3x_conv_fprop_bias_activation_leaky_relu_sm100_tensorop_128x64x32_s8_s8_s32_f32_f32_13168b769659887@cask6_myelin@@YA?AW4Status@1@AEAVContext@1@@Z
    ?InitializeDynamicShaders_cutlass3x_common_cutlass3x_conv_fprop_bias_activation_leaky_relu_sm100_tensorop_128x64x32_s8_s8_s32_f32_f32_a72b088764170727@cask6_myelin@@YA?AW4Status@1@AEAVContext@1@@Z
    ?InitializeDynamicShaders_cutlass3x_common_cutlass3x_conv_fprop_bias_activation_leaky_relu_sm100_tensorop_128x64x32_s8_s8_s32_s8_s8_bb56e9c961c99789@cask6_myelin@@YA?AW4Status@1@AEAVContext@1@@Z
    ?InitializeDynamicShaders_cutlass3x_common_cutlass3x_conv_fprop_bias_activation_leaky_relu_sm100_tensorop_128x64x32_s8_s8_s32_s8_s8_fd7d45c9c6213b89@cask6_myelin@@YA?AW4Status@1@AEAVContext@1@@Z
    ?InitializeDynamicShaders_cutlass3x_common_cutlass3x_conv_fprop_bias_activation_leaky_relu_sm100_tensorop_256x128x16_bf16_bf16_f32_bf16_bf16_20b8d7f9880cea25@cask6_myelin@@YA?AW4Status@1@AEAVContext@1@@Z
    ?InitializeDynamicShaders_cutlass3x_common_cutlass3x_conv_fprop_bias_activation_leaky_relu_sm100_tensorop_256x128x16_f16_f16_f16_f16_f16_9e9afd03028b16e8@cask6_myelin@@YA?AW4Status@1@AEAVContext@1@@Z
    ?InitializeDynamicShaders_cutlass3x_common_cutlass3x_conv_fprop_bias_activation_leaky_relu_sm100_tensorop_256x128x16_f16_f16_f32_f16_f16_ece2c6fd8c0615a1@cask6_myelin@@YA?AW4Status@1@AEAVContext@1@@Z
    ?InitializeDynamicShaders_cutlass3x_common_cutlass3x_conv_fprop_bias_activation_leaky_relu_sm100_tensorop_256x128x32_e4m3_e4m3_f32_bf16_bf16_e8de44f81928b57a@cask6_myelin@@YA?AW4Status@1@AEAVContext@1@@Z
    ?InitializeDynamicShaders_cutlass3x_common_cutlass3x_conv_fprop_bias_activation_leaky_relu_sm100_tensorop_256x128x32_e4m3_e4m3_f32_e4m3_e4m3_c885d703fcbb558b@cask6_myelin@@YA?AW4Status@1@AEAVContext@1@@Z
    ?InitializeDynamicShaders_cutlass3x_common_cutlass3x_conv_fprop_bias_activation_leaky_relu_sm100_tensorop_256x128x32_e4m3_e4m3_f32_f16_f16_c22552c475a20568@cask6_myelin@@YA?AW4Status@1@AEAVContext@1@@Z
    ?InitializeDynamicShaders_cutlass3x_common_cutlass3x_conv_fprop_bias_activation_leaky_relu_sm100_tensorop_256x128x32_e4m3_e4m3_f32_f32_f32_5e4f0cf5725e6ca@cask6_myelin@@YA?AW4Status@1@AEAVContext@1@@Z
    ?InitializeDynamicShaders_cutlass3x_common_cutlass3x_conv_fprop_bias_activation_leaky_relu_sm100_tensorop_256x128x32_s8_s8_s32_f16_f16_9dc2a134cec8999@cask6_myelin@@YA?AW4Status@1@AEAVContext@1@@Z
    ?InitializeDynamicShaders_cutlass3x_common_cutlass3x_conv_fprop_bias_activation_leaky_relu_sm100_tensorop_256x128x32_s8_s8_s32_f32_f32_9388d8c89bcd3b12@cask6_myelin@@YA?AW4Status@1@AEAVContext@1@@Z
    ?InitializeDynamicShaders_cutlass3x_common_cutlass3x_conv_fprop_bias_activation_leaky_relu_sm100_tensorop_256x128x32_s8_s8_s32_s8_s8_495f833c765e2583@cask6_myelin@@YA?AW4Status@1@AEAVContext@1@@Z
    ?InitializeDynamicShaders_cutlass3x_common_cutlass3x_conv_fprop_bias_activation_leaky_relu_sm100_tensorop_256x256x16_bf16_bf16_f32_bf16_bf16_298aeeddfd4efda3@cask6_myelin@@YA?AW4Status@1@AEAVContext@1@@Z
    ?InitializeDynamicShaders_cutlass3x_common_cutlass3x_conv_fprop_bias_activation_leaky_relu_sm100_tensorop_256x256x16_f16_f16_f16_f16_f16_2f132c86908af907@cask6_myelin@@YA?AW4Status@1@AEAVContext@1@@Z
    ?InitializeDynamicShaders_cutlass3x_common_cutlass3x_conv_fprop_bias_activation_leaky_relu_sm100_tensorop_256x256x16_f16_f16_f32_f16_f16_d7cba1e9bcd51ce5@cask6_myelin@@YA?AW4Status@1@AEAVContext@1@@Z
    ?InitializeDynamicShaders_cutlass3x_common_cutlass3x_conv_fprop_bias_activation_leaky_relu_sm100_tensorop_256x256x32_e4m3_e4m3_f32_bf16_bf16_afb5a6fe68c291a2@cask6_myelin@@YA?AW4Status@1@AEAVContext@1@@Z
    ?InitializeDynamicShaders_cutlass3x_common_cutlass3x_conv_fprop_bias_activation_leaky_relu_sm100_tensorop_256x256x32_e4m3_e4m3_f32_e4m3_e4m3_a07101b317458b84@cask6_myelin@@YA?AW4Status@1@AEAVContext@1@@Z
    ?InitializeDynamicShaders_cutlass3x_common_cutlass3x_conv_fprop_bias_activation_leaky_relu_sm100_tensorop_256x256x32_e4m3_e4m3_f32_f16_f16_18c1a3b62c7df9b2@cask6_myelin@@YA?AW4Status@1@AEAVContext@1@@Z
    ?InitializeDynamicShaders_cutlass3x_common_cutlass3x_conv_fprop_bias_activation_leaky_relu_sm100_tensorop_256x256x32_e4m3_e4m3_f32_f32_f32_a3234743dd57a69b@cask6_myelin@@YA?AW4Status@1@AEAVContext@1@@Z
    ?InitializeDynamicShaders_cutlass3x_common_cutlass3x_conv_fprop_bias_activation_leaky_relu_sm100_tensorop_256x256x32_s8_s8_s32_f16_f16_d0db9400c5419a32@cask6_myelin@@YA?AW4Status@1@AEAVContext@1@@Z
    ?InitializeDynamicShaders_cutlass3x_common_cutlass3x_conv_fprop_bias_activation_leaky_relu_sm100_tensorop_256x256x32_s8_s8_s32_f32_f32_632b2d2f8fc40a85@cask6_myelin@@YA?AW4Status@1@AEAVContext@1@@Z
    ?InitializeDynamicShaders_cutlass3x_common_cutlass3x_conv_fprop_bias_activation_leaky_relu_sm100_tensorop_256x256x32_s8_s8_s32_s8_s8_26a2b016528a21cd@cask6_myelin@@YA?AW4Status@1@AEAVContext@1@@Z
    ?InitializeDynamicShaders_cutlass3x_common_cutlass3x_conv_fprop_bias_activation_leaky_relu_sm100_tensorop_256x64x16_bf16_bf16_f32_bf16_bf16_f4805ba8302fabc7@cask6_myelin@@YA?AW4Status@1@AEAVContext@1@@Z
    ?InitializeDynamicShaders_cutlass3x_common_cutlass3x_conv_fprop_bias_activation_leaky_relu_sm100_tensorop_256x64x16_f16_f16_f16_f16_f16_62c101a6f393126c@cask6_myelin@@YA?AW4Status@1@AEAVContext@1@@Z
    ?InitializeDynamicShaders_cutlass3x_common_cutlass3x_conv_fprop_bias_activation_leaky_relu_sm100_tensorop_256x64x16_f16_f16_f32_f16_f16_b4a776de926d16fe@cask6_myelin@@YA?AW4Status@1@AEAVContext@1@@Z
    ?InitializeDynamicShaders_cutlass3x_common_cutlass3x_conv_fprop_bias_activation_leaky_relu_sm100_tensorop_256x64x32_e4m3_e4m3_f32_bf16_bf16_4f041cd1f38e268e@cask6_myelin@@YA?AW4Status@1@AEAVContext@1@@Z
    ?InitializeDynamicShaders_cutlass3x_common_cutlass3x_conv_fprop_bias_activation_leaky_relu_sm100_tensorop_256x64x32_e4m3_e4m3_f32_e4m3_e4m3_1cd3e1ffcb266a8b@cask6_myelin@@YA?AW4Status@1@AEAVContext@1@@Z
    ?InitializeDynamicShaders_cutlass3x_common_cutlass3x_conv_fprop_bias_activation_leaky_relu_sm100_tensorop_256x64x32_e4m3_e4m3_f32_f16_f16_4e10b7db651057e4@cask6_myelin@@YA?AW4Status@1@AEAVContext@1@@Z
    ?InitializeDynamicShaders_cutlass3x_common_cutlass3x_conv_fprop_bias_activation_leaky_relu_sm100_tensorop_256x64x32_e4m3_e4m3_f32_f32_f32_81626c3de192754e@cask6_myelin@@YA?AW4Status@1@AEAVContext@1@@Z
    ?InitializeDynamicShaders_cutlass3x_common_cutlass3x_conv_fprop_bias_activation_leaky_relu_sm100_tensorop_256x64x32_s8_s8_s32_f16_f16_4bbbe22ad5665dd@cask6_myelin@@YA?AW4Status@1@AEAVContext@1@@Z
    ?InitializeDynamicShaders_cutlass3x_common_cutlass3x_conv_fprop_bias_activation_leaky_relu_sm100_tensorop_256x64x32_s8_s8_s32_f32_f32_386365e83779d3f5@cask6_myelin@@YA?AW4Status@1@AEAVContext@1@@Z
    ?InitializeDynamicShaders_cutlass3x_common_cutlass3x_conv_fprop_bias_activation_leaky_relu_sm100_tensorop_256x64x32_s8_s8_s32_s8_s8_dbbbc36559ce0de6@cask6_myelin@@YA?AW4Status@1@AEAVContext@1@@Z
    ?InitializeDynamicShaders_cutlass3x_common_cutlass3x_conv_fprop_bias_activation_leaky_relu_sm100_tensorop_64x128x16_bf16_bf16_f32_bf16_bf16_c70059a95d2891cf@cask6_myelin@@YA?AW4Status@1@AEAVContext@1@@Z
    ?InitializeDynamicShaders_cutlass3x_common_cutlass3x_conv_fprop_bias_activation_leaky_relu_sm100_tensorop_64x128x16_f16_f16_f16_f16_f16_683cbd4a6c71bca@cask6_myelin@@YA?AW4Status@1@AEAVContext@1@@Z
    ?InitializeDynamicShaders_cutlass3x_common_cutlass3x_conv_fprop_bias_activation_leaky_relu_sm100_tensorop_64x128x16_f16_f16_f32_f16_f16_3cf504b366980916@cask6_myelin@@YA?AW4Status@1@AEAVContext@1@@Z
    ?InitializeDynamicShaders_cutlass3x_common_cutlass3x_conv_fprop_bias_activation_leaky_relu_sm100_tensorop_64x128x32_e4m3_e4m3_f32_bf16_bf16_bfbff94feacc1a07@cask6_myelin@@YA?AW4Status@1@AEAVContext@1@@Z
    ?InitializeDynamicShaders_cutlass3x_common_cutlass3x_conv_fprop_bias_activation_leaky_relu_sm100_tensorop_64x128x32_e4m3_e4m3_f32_e4m3_e4m3_f6e3d2ac753a1fba@cask6_myelin@@YA?AW4Status@1@AEAVContext@1@@Z
    ?InitializeDynamicShaders_cutlass3x_common_cutlass3x_conv_fprop_bias_activation_leaky_relu_sm100_tensorop_64x128x32_e4m3_e4m3_f32_f16_f16_b085389e8dc25197@cask6_myelin@@YA?AW4Status@1@AEAVContext@1@@Z
    ?InitializeDynamicShaders_cutlass3x_common_cutlass3x_conv_fprop_bias_activation_leaky_relu_sm100_tensorop_64x128x32_e4m3_e4m3_f32_f32_f32_a65926378bcaa3a8@cask6_myelin@@YA?AW4Status@1@AEAVContext@1@@Z
    ?InitializeDynamicShaders_cutlass3x_common_cutlass3x_conv_fprop_bias_activation_leaky_relu_sm100_tensorop_64x128x32_s8_s8_s32_f16_f16_ac09b2ff298db8fa@cask6_myelin@@YA?AW4Status@1@AEAVContext@1@@Z
    ?InitializeDynamicShaders_cutlass3x_common_cutlass3x_conv_fprop_bias_activation_leaky_relu_sm100_tensorop_64x128x32_s8_s8_s32_f32_f32_e4a5f20b7ef1ae98@cask6_myelin@@YA?AW4Status@1@AEAVContext@1@@Z
    ?InitializeDynamicShaders_cutlass3x_common_cutlass3x_conv_fprop_bias_activation_leaky_relu_sm100_tensorop_64x128x32_s8_s8_s32_s8_s8_66ddafd8ad0aa1d5@cask6_myelin@@YA?AW4Status@1@AEAVContext@1@@Z
    ?InitializeDynamicShaders_cutlass3x_common_cutlass3x_conv_fprop_bias_activation_leaky_relu_sm100_tensorop_64x256x16_bf16_bf16_f32_bf16_bf16_609dcc0144656244@cask6_myelin@@YA?AW4Status@1@AEAVContext@1@@Z
    ?InitializeDynamicShaders_cutlass3x_common_cutlass3x_conv_fprop_bias_activation_leaky_relu_sm100_tensorop_64x256x16_f16_f16_f16_f16_f16_7e18e7f69f84a623@cask6_myelin@@YA?AW4Status@1@AEAVContext@1@@Z
    ?InitializeDynamicShaders_cutlass3x_common_cutlass3x_conv_fprop_bias_activation_leaky_relu_sm100_tensorop_64x256x16_f16_f16_f32_f16_f16_8bdc7e9c02e60645@cask6_myelin@@YA?AW4Status@1@AEAVContext@1@@Z
    ?InitializeDynamicShaders_cutlass3x_common_cutlass3x_conv_fprop_bias_activation_leaky_relu_sm100_tensorop_64x256x32_e4m3_e4m3_f32_bf16_bf16_3930cbc2c22fe2be@cask6_myelin@@YA?AW4Status@1@AEAVContext@1@@Z
    ?InitializeDynamicShaders_cutlass3x_common_cutlass3x_conv_fprop_bias_activation_leaky_relu_sm100_tensorop_64x256x32_e4m3_e4m3_f32_e4m3_e4m3_1122c3f9dbfdb77f@cask6_myelin@@YA?AW4Status@1@AEAVContext@1@@Z
    ?InitializeDynamicShaders_cutlass3x_common_cutlass3x_conv_fprop_bias_activation_leaky_relu_sm100_tensorop_64x256x32_e4m3_e4m3_f32_f16_f16_a5fbf686a3c67d94@cask6_myelin@@YA?AW4Status@1@AEAVContext@1@@Z
    ?InitializeDynamicShaders_cutlass3x_common_cutlass3x_conv_fprop_bias_activation_leaky_relu_sm100_tensorop_64x256x32_e4m3_e4m3_f32_f32_f32_70ab8a5e45db6609@cask6_myelin@@YA?AW4Status@1@AEAVContext@1@@Z
    ?InitializeDynamicShaders_cutlass3x_common_cutlass3x_conv_fprop_bias_activation_leaky_relu_sm100_tensorop_64x64x16_bf16_bf16_f32_bf16_bf16_6657a805649686f3@cask6_myelin@@YA?AW4Status@1@AEAVContext@1@@Z
    ?InitializeDynamicShaders_cutlass3x_common_cutlass3x_conv_fprop_bias_activation_leaky_relu_sm100_tensorop_64x64x16_f16_f16_f16_f16_f16_d5fa302a91f9b7a6@cask6_myelin@@YA?AW4Status@1@AEAVContext@1@@Z
    ?InitializeDynamicShaders_cutlass3x_common_cutlass3x_conv_fprop_bias_activation_leaky_relu_sm100_tensorop_64x64x16_f16_f16_f32_f16_f16_4ac45ea7d2b73281@cask6_myelin@@YA?AW4Status@1@AEAVContext@1@@Z
    ?InitializeDynamicShaders_cutlass3x_common_cutlass3x_conv_fprop_bias_activation_leaky_relu_sm100_tensorop_64x64x32_e4m3_e4m3_f32_bf16_bf16_c44d511ece780cc2@cask6_myelin@@YA?AW4Status@1@AEAVContext@1@@Z
    ?InitializeDynamicShaders_cutlass3x_common_cutlass3x_conv_fprop_bias_activation_leaky_relu_sm100_tensorop_64x64x32_e4m3_e4m3_f32_e4m3_e4m3_d4442b9e2f512cd@cask6_myelin@@YA?AW4Status@1@AEAVContext@1@@Z
    ?InitializeDynamicShaders_cutlass3x_common_cutlass3x_conv_fprop_bias_activation_leaky_relu_sm100_tensorop_64x64x32_e4m3_e4m3_f32_f16_f16_3bc1c2c53b9d8fdc@cask6_myelin@@YA?AW4Status@1@AEAVContext@1@@Z
    ?InitializeDynamicShaders_cutlass3x_common_cutlass3x_conv_fprop_bias_activation_leaky_relu_sm100_tensorop_64x64x32_e4m3_e4m3_f32_f32_f32_abfb6a3643c569d1@cask6_myelin@@YA?AW4Status@1@AEAVContext@1@@Z
    ?InitializeDynamicShaders_cutlass3x_common_cutlass3x_conv_fprop_bias_activation_leaky_relu_sm100_tensorop_64x64x32_s8_s8_s32_f16_f16_95b6404bf9a30822@cask6_myelin@@YA?AW4Status@1@AEAVContext@1@@Z
    ?InitializeDynamicShaders_cutlass3x_common_cutlass3x_conv_fprop_bias_activation_leaky_relu_sm100_tensorop_64x64x32_s8_s8_s32_f32_f32_b9f5af3b3a206604@cask6_myelin@@YA?AW4Status@1@AEAVContext@1@@Z
    ?InitializeDynamicShaders_cutlass3x_common_cutlass3x_conv_fprop_bias_activation_leaky_relu_sm100_tensorop_64x64x32_s8_s8_s32_s8_s8_445ce0bc96f4ab71@cask6_myelin@@YA?AW4Status@1@AEAVContext@1@@Z
    ?InitializeDynamicShaders_cutlass3x_common_cutlass3x_conv_fprop_bias_activation_relu_sm100_tensorop_128x128x16_bf16_bf16_f32_bf16_bf16_9b37ac498a47fda8@cask6_myelin@@YA?AW4Status@1@AEAVContext@1@@Z
    ?InitializeDynamicShaders_cutlass3x_common_cutlass3x_conv_fprop_bias_activation_relu_sm100_tensorop_128x128x16_bf16_bf16_f32_bf16_bf16_a315cd1010c35a0b@cask6_myelin@@YA?AW4Status@1@AEAVContext@1@@Z
    ?InitializeDynamicShaders_cutlass3x_common_cutlass3x_conv_fprop_bias_activation_relu_sm100_tensorop_128x128x16_f16_f16_f16_f16_f16_4773ca8fd539927b@cask6_myelin@@YA?AW4Status@1@AEAVContext@1@@Z
    ?InitializeDynamicShaders_cutlass3x_common_cutlass3x_conv_fprop_bias_activation_relu_sm100_tensorop_128x128x16_f16_f16_f16_f16_f16_aa702aaf314c70dd@cask6_myelin@@YA?AW4Status@1@AEAVContext@1@@Z
    ?InitializeDynamicShaders_cutlass3x_common_cutlass3x_conv_fprop_bias_activation_relu_sm100_tensorop_128x128x16_f16_f16_f32_f16_f16_43a586f18a2a5240@cask6_myelin@@YA?AW4Status@1@AEAVContext@1@@Z
    ?InitializeDynamicShaders_cutlass3x_common_cutlass3x_conv_fprop_bias_activation_relu_sm100_tensorop_128x128x16_f16_f16_f32_f16_f16_a0c387d85aeb972c@cask6_myelin@@YA?AW4Status@1@AEAVContext@1@@Z
    ?InitializeDynamicShaders_cutlass3x_common_cutlass3x_conv_fprop_bias_activation_relu_sm100_tensorop_128x128x32_e4m3_e4m3_f32_bf16_bf16_87de88c89bc3814f@cask6_myelin@@YA?AW4Status@1@AEAVContext@1@@Z
    ?InitializeDynamicShaders_cutlass3x_common_cutlass3x_conv_fprop_bias_activation_relu_sm100_tensorop_128x128x32_e4m3_e4m3_f32_bf16_bf16_aa1b8452df62849b@cask6_myelin@@YA?AW4Status@1@AEAVContext@1@@Z
    ?InitializeDynamicShaders_cutlass3x_common_cutlass3x_conv_fprop_bias_activation_relu_sm100_tensorop_128x128x32_e4m3_e4m3_f32_e4m3_e4m3_680334f32ad83ddc@cask6_myelin@@YA?AW4Status@1@AEAVContext@1@@Z
    ?InitializeDynamicShaders_cutlass3x_common_cutlass3x_conv_fprop_bias_activation_relu_sm100_tensorop_128x128x32_e4m3_e4m3_f32_e4m3_e4m3_ca1bcf07c1bc1c6@cask6_myelin@@YA?AW4Status@1@AEAVContext@1@@Z
    ?InitializeDynamicShaders_cutlass3x_common_cutlass3x_conv_fprop_bias_activation_relu_sm100_tensorop_128x128x32_e4m3_e4m3_f32_f16_f16_c0b167d16de1b75a@cask6_myelin@@YA?AW4Status@1@AEAVContext@1@@Z
    ?InitializeDynamicShaders_cutlass3x_common_cutlass3x_conv_fprop_bias_activation_relu_sm100_tensorop_128x128x32_e4m3_e4m3_f32_f16_f16_df3cdd8ff0243474@cask6_myelin@@YA?AW4Status@1@AEAVContext@1@@Z
    ?InitializeDynamicShaders_cutlass3x_common_cutlass3x_conv_fprop_bias_activation_relu_sm100_tensorop_128x128x32_e4m3_e4m3_f32_f32_f32_129e1fa5b9d42e98@cask6_myelin@@YA?AW4Status@1@AEAVContext@1@@Z
    ?InitializeDynamicShaders_cutlass3x_common_cutlass3x_conv_fprop_bias_activation_relu_sm100_tensorop_128x128x32_e4m3_e4m3_f32_f32_f32_af8745de0bc65284@cask6_myelin@@YA?AW4Status@1@AEAVContext@1@@Z
    ?InitializeDynamicShaders_cutlass3x_common_cutlass3x_conv_fprop_bias_activation_relu_sm100_tensorop_128x128x32_s8_s8_s32_f16_f16_5240765d58fa40a3@cask6_myelin@@YA?AW4Status@1@AEAVContext@1@@Z
    ?InitializeDynamicShaders_cutlass3x_common_cutlass3x_conv_fprop_bias_activation_relu_sm100_tensorop_128x128x32_s8_s8_s32_f16_f16_89a970e5d231f389@cask6_myelin@@YA?AW4Status@1@AEAVContext@1@@Z
    ?InitializeDynamicShaders_cutlass3x_common_cutlass3x_conv_fprop_bias_activation_relu_sm100_tensorop_128x128x32_s8_s8_s32_f32_f32_31922c3e605e0b74@cask6_myelin@@YA?AW4Status@1@AEAVContext@1@@Z
    ?InitializeDynamicShaders_cutlass3x_common_cutlass3x_conv_fprop_bias_activation_relu_sm100_tensorop_128x128x32_s8_s8_s32_f32_f32_bdf37b5402f082da@cask6_myelin@@YA?AW4Status@1@AEAVContext@1@@Z
    ?InitializeDynamicShaders_cutlass3x_common_cutlass3x_conv_fprop_bias_activation_relu_sm100_tensorop_128x128x32_s8_s8_s32_s8_s8_89a05fa10aeea5e7@cask6_myelin@@YA?AW4Status@1@AEAVContext@1@@Z
    ?InitializeDynamicShaders_cutlass3x_common_cutlass3x_conv_fprop_bias_activation_relu_sm100_tensorop_128x128x32_s8_s8_s32_s8_s8_eef18fe3a372e6d6@cask6_myelin@@YA?AW4Status@1@AEAVContext@1@@Z
    ?InitializeDynamicShaders_cutlass3x_common_cutlass3x_conv_fprop_bias_activation_relu_sm100_tensorop_128x128x8_f32_f32_f32_f32_f32_8ea42df3d4b999cd@cask6_myelin@@YA?AW4Status@1@AEAVContext@1@@Z
    ?InitializeDynamicShaders_cutlass3x_common_cutlass3x_conv_fprop_bias_activation_relu_sm100_tensorop_128x128x8_f32_f32_f32_f32_f32_bec173967a0f6fd@cask6_myelin@@YA?AW4Status@1@AEAVContext@1@@Z
    ?InitializeDynamicShaders_cutlass3x_common_cutlass3x_conv_fprop_bias_activation_relu_sm100_tensorop_128x256x16_bf16_bf16_f32_bf16_bf16_819c6ba6fb75789e@cask6_myelin@@YA?AW4Status@1@AEAVContext@1@@Z
    ?InitializeDynamicShaders_cutlass3x_common_cutlass3x_conv_fprop_bias_activation_relu_sm100_tensorop_128x256x16_bf16_bf16_f32_bf16_bf16_a4deeae083975245@cask6_myelin@@YA?AW4Status@1@AEAVContext@1@@Z
    ?InitializeDynamicShaders_cutlass3x_common_cutlass3x_conv_fprop_bias_activation_relu_sm100_tensorop_128x256x16_f16_f16_f16_f16_f16_7fd9e26e9e6ad766@cask6_myelin@@YA?AW4Status@1@AEAVContext@1@@Z
    ?InitializeDynamicShaders_cutlass3x_common_cutlass3x_conv_fprop_bias_activation_relu_sm100_tensorop_128x256x16_f16_f16_f16_f16_f16_d4a6a3d46d8bee4a@cask6_myelin@@YA?AW4Status@1@AEAVContext@1@@Z
    ?InitializeDynamicShaders_cutlass3x_common_cutlass3x_conv_fprop_bias_activation_relu_sm100_tensorop_128x256x16_f16_f16_f32_f16_f16_37749926370c34e9@cask6_myelin@@YA?AW4Status@1@AEAVContext@1@@Z
    ?InitializeDynamicShaders_cutlass3x_common_cutlass3x_conv_fprop_bias_activation_relu_sm100_tensorop_128x256x16_f16_f16_f32_f16_f16_a89fd9e7a7d77b46@cask6_myelin@@YA?AW4Status@1@AEAVContext@1@@Z
    ?InitializeDynamicShaders_cutlass3x_common_cutlass3x_conv_fprop_bias_activation_relu_sm100_tensorop_128x256x32_e4m3_e4m3_f32_bf16_bf16_5260c0c4bd56b54c@cask6_myelin@@YA?AW4Status@1@AEAVContext@1@@Z
    ?InitializeDynamicShaders_cutlass3x_common_cutlass3x_conv_fprop_bias_activation_relu_sm100_tensorop_128x256x32_e4m3_e4m3_f32_bf16_bf16_bb636d029c517277@cask6_myelin@@YA?AW4Status@1@AEAVContext@1@@Z
    ?InitializeDynamicShaders_cutlass3x_common_cutlass3x_conv_fprop_bias_activation_relu_sm100_tensorop_128x256x32_e4m3_e4m3_f32_e4m3_e4m3_16061eee3854e629@cask6_myelin@@YA?AW4Status@1@AEAVContext@1@@Z
    ?InitializeDynamicShaders_cutlass3x_common_cutlass3x_conv_fprop_bias_activation_relu_sm100_tensorop_128x256x32_e4m3_e4m3_f32_e4m3_e4m3_7423ffefa550e9ce@cask6_myelin@@YA?AW4Status@1@AEAVContext@1@@Z
    ?InitializeDynamicShaders_cutlass3x_common_cutlass3x_conv_fprop_bias_activation_relu_sm100_tensorop_128x256x32_e4m3_e4m3_f32_f16_f16_74f5a42fa1317749@cask6_myelin@@YA?AW4Status@1@AEAVContext@1@@Z
    ?InitializeDynamicShaders_cutlass3x_common_cutlass3x_conv_fprop_bias_activation_relu_sm100_tensorop_128x256x32_e4m3_e4m3_f32_f16_f16_f056d122bea6bc85@cask6_myelin@@YA?AW4Status@1@AEAVContext@1@@Z
    ?InitializeDynamicShaders_cutlass3x_common_cutlass3x_conv_fprop_bias_activation_relu_sm100_tensorop_128x256x32_e4m3_e4m3_f32_f32_f32_a6848b28f4de8de@cask6_myelin@@YA?AW4Status@1@AEAVContext@1@@Z
    ?InitializeDynamicShaders_cutlass3x_common_cutlass3x_conv_fprop_bias_activation_relu_sm100_tensorop_128x256x32_e4m3_e4m3_f32_f32_f32_a7c85ba5cec30de1@cask6_myelin@@YA?AW4Status@1@AEAVContext@1@@Z
    ?InitializeDynamicShaders_cutlass3x_common_cutlass3x_conv_fprop_bias_activation_relu_sm100_tensorop_128x256x32_s8_s8_s32_f16_f16_785ce6506fafcbc1@cask6_myelin@@YA?AW4Status@1@AEAVContext@1@@Z
    ?InitializeDynamicShaders_cutlass3x_common_cutlass3x_conv_fprop_bias_activation_relu_sm100_tensorop_128x256x32_s8_s8_s32_f16_f16_a5ebb3b4cf5393a6@cask6_myelin@@YA?AW4Status@1@AEAVContext@1@@Z
    ?InitializeDynamicShaders_cutlass3x_common_cutlass3x_conv_fprop_bias_activation_relu_sm100_tensorop_128x256x32_s8_s8_s32_f32_f32_badd9195bd6a13bc@cask6_myelin@@YA?AW4Status@1@AEAVContext@1@@Z
    ?InitializeDynamicShaders_cutlass3x_common_cutlass3x_conv_fprop_bias_activation_relu_sm100_tensorop_128x256x32_s8_s8_s32_f32_f32_c029895b054815e6@cask6_myelin@@YA?AW4Status@1@AEAVContext@1@@Z
    ?InitializeDynamicShaders_cutlass3x_common_cutlass3x_conv_fprop_bias_activation_relu_sm100_tensorop_128x256x32_s8_s8_s32_s8_s8_c2ff5df5076cca26@cask6_myelin@@YA?AW4Status@1@AEAVContext@1@@Z
    ?InitializeDynamicShaders_cutlass3x_common_cutlass3x_conv_fprop_bias_activation_relu_sm100_tensorop_128x256x32_s8_s8_s32_s8_s8_cd7cbac023dad9cc@cask6_myelin@@YA?AW4Status@1@AEAVContext@1@@Z
    ?InitializeDynamicShaders_cutlass3x_common_cutlass3x_conv_fprop_bias_activation_relu_sm100_tensorop_128x256x8_f32_f32_f32_f32_f32_3fe056363ea49394@cask6_myelin@@YA?AW4Status@1@AEAVContext@1@@Z
    ?InitializeDynamicShaders_cutlass3x_common_cutlass3x_conv_fprop_bias_activation_relu_sm100_tensorop_128x256x8_f32_f32_f32_f32_f32_9bad94dfd4d109a9@cask6_myelin@@YA?AW4Status@1@AEAVContext@1@@Z
    ?InitializeDynamicShaders_cutlass3x_common_cutlass3x_conv_fprop_bias_activation_relu_sm100_tensorop_128x64x16_bf16_bf16_f32_bf16_bf16_6d5ac08fbfcd2378@cask6_myelin@@YA?AW4Status@1@AEAVContext@1@@Z
    ?InitializeDynamicShaders_cutlass3x_common_cutlass3x_conv_fprop_bias_activation_relu_sm100_tensorop_128x64x16_bf16_bf16_f32_bf16_bf16_8ebb5c1eede9cbfc@cask6_myelin@@YA?AW4Status@1@AEAVContext@1@@Z
    ?InitializeDynamicShaders_cutlass3x_common_cutlass3x_conv_fprop_bias_activation_relu_sm100_tensorop_128x64x16_f16_f16_f16_f16_f16_6e7688b9ea5e3e25@cask6_myelin@@YA?AW4Status@1@AEAVContext@1@@Z
    ?InitializeDynamicShaders_cutlass3x_common_cutlass3x_conv_fprop_bias_activation_relu_sm100_tensorop_128x64x16_f16_f16_f16_f16_f16_e4e20089e7e215b2@cask6_myelin@@YA?AW4Status@1@AEAVContext@1@@Z
    ?InitializeDynamicShaders_cutlass3x_common_cutlass3x_conv_fprop_bias_activation_relu_sm100_tensorop_128x64x16_f16_f16_f32_f16_f16_d73f33edc0cd11c7@cask6_myelin@@YA?AW4Status@1@AEAVContext@1@@Z
    ?InitializeDynamicShaders_cutlass3x_common_cutlass3x_conv_fprop_bias_activation_relu_sm100_tensorop_128x64x16_f16_f16_f32_f16_f16_e9f210d2f9b56b4f@cask6_myelin@@YA?AW4Status@1@AEAVContext@1@@Z
    ?InitializeDynamicShaders_cutlass3x_common_cutlass3x_conv_fprop_bias_activation_relu_sm100_tensorop_128x64x32_e4m3_e4m3_f32_bf16_bf16_471081df2ca5941d@cask6_myelin@@YA?AW4Status@1@AEAVContext@1@@Z
    ?InitializeDynamicShaders_cutlass3x_common_cutlass3x_conv_fprop_bias_activation_relu_sm100_tensorop_128x64x32_e4m3_e4m3_f32_bf16_bf16_668f0e679b16f05e@cask6_myelin@@YA?AW4Status@1@AEAVContext@1@@Z
    ?InitializeDynamicShaders_cutlass3x_common_cutlass3x_conv_fprop_bias_activation_relu_sm100_tensorop_128x64x32_e4m3_e4m3_f32_e4m3_e4m3_911de5dd75bfd04f@cask6_myelin@@YA?AW4Status@1@AEAVContext@1@@Z
    ?InitializeDynamicShaders_cutlass3x_common_cutlass3x_conv_fprop_bias_activation_relu_sm100_tensorop_128x64x32_e4m3_e4m3_f32_e4m3_e4m3_e86c72fc3e1168e1@cask6_myelin@@YA?AW4Status@1@AEAVContext@1@@Z
    ?InitializeDynamicShaders_cutlass3x_common_cutlass3x_conv_fprop_bias_activation_relu_sm100_tensorop_128x64x32_e4m3_e4m3_f32_f16_f16_23a972844ff8f65@cask6_myelin@@YA?AW4Status@1@AEAVContext@1@@Z
    ?InitializeDynamicShaders_cutlass3x_common_cutlass3x_conv_fprop_bias_activation_relu_sm100_tensorop_128x64x32_e4m3_e4m3_f32_f16_f16_6157c4d42b584511@cask6_myelin@@YA?AW4Status@1@AEAVContext@1@@Z
    ?InitializeDynamicShaders_cutlass3x_common_cutlass3x_conv_fprop_bias_activation_relu_sm100_tensorop_128x64x32_e4m3_e4m3_f32_f32_f32_6511d3aad0fef7c2@cask6_myelin@@YA?AW4Status@1@AEAVContext@1@@Z
    ?InitializeDynamicShaders_cutlass3x_common_cutlass3x_conv_fprop_bias_activation_relu_sm100_tensorop_128x64x32_e4m3_e4m3_f32_f32_f32_b13ed9219b816a39@cask6_myelin@@YA?AW4Status@1@AEAVContext@1@@Z
    ?InitializeDynamicShaders_cutlass3x_common_cutlass3x_conv_fprop_bias_activation_relu_sm100_tensorop_128x64x32_s8_s8_s32_f16_f16_74d0353fd657e171@cask6_myelin@@YA?AW4Status@1@AEAVContext@1@@Z
    ?InitializeDynamicShaders_cutlass3x_common_cutlass3x_conv_fprop_bias_activation_relu_sm100_tensorop_128x64x32_s8_s8_s32_f16_f16_da7d5b1bee1c1463@cask6_myelin@@YA?AW4Status@1@AEAVContext@1@@Z
    ?InitializeDynamicShaders_cutlass3x_common_cutlass3x_conv_fprop_bias_activation_relu_sm100_tensorop_128x64x32_s8_s8_s32_f32_f32_4f7ef1728d8b5645@cask6_myelin@@YA?AW4Status@1@AEAVContext@1@@Z
    ?InitializeDynamicShaders_cutlass3x_common_cutlass3x_conv_fprop_bias_activation_relu_sm100_tensorop_128x64x32_s8_s8_s32_f32_f32_5bce672f8c4ec3a3@cask6_myelin@@YA?AW4Status@1@AEAVContext@1@@Z
    ?InitializeDynamicShaders_cutlass3x_common_cutlass3x_conv_fprop_bias_activation_relu_sm100_tensorop_128x64x32_s8_s8_s32_s8_s8_6d61a57d12842442@cask6_myelin@@YA?AW4Status@1@AEAVContext@1@@Z
    ?InitializeDynamicShaders_cutlass3x_common_cutlass3x_conv_fprop_bias_activation_relu_sm100_tensorop_128x64x32_s8_s8_s32_s8_s8_cb101e1b09b94464@cask6_myelin@@YA?AW4Status@1@AEAVContext@1@@Z
    ?InitializeDynamicShaders_cutlass3x_common_cutlass3x_conv_fprop_bias_activation_relu_sm100_tensorop_256x128x16_bf16_bf16_f32_bf16_bf16_bcee35395e00c584@cask6_myelin@@YA?AW4Status@1@AEAVContext@1@@Z
    ?InitializeDynamicShaders_cutlass3x_common_cutlass3x_conv_fprop_bias_activation_relu_sm100_tensorop_256x128x16_f16_f16_f16_f16_f16_31f2fa285ca56eec@cask6_myelin@@YA?AW4Status@1@AEAVContext@1@@Z
    ?InitializeDynamicShaders_cutlass3x_common_cutlass3x_conv_fprop_bias_activation_relu_sm100_tensorop_256x128x16_f16_f16_f32_f16_f16_504781b4b397f89d@cask6_myelin@@YA?AW4Status@1@AEAVContext@1@@Z
    ?InitializeDynamicShaders_cutlass3x_common_cutlass3x_conv_fprop_bias_activation_relu_sm100_tensorop_256x128x32_e4m3_e4m3_f32_bf16_bf16_5000e842cabc0ff5@cask6_myelin@@YA?AW4Status@1@AEAVContext@1@@Z
    ?InitializeDynamicShaders_cutlass3x_common_cutlass3x_conv_fprop_bias_activation_relu_sm100_tensorop_256x128x32_e4m3_e4m3_f32_e4m3_e4m3_4d704cdee59f4cbe@cask6_myelin@@YA?AW4Status@1@AEAVContext@1@@Z
    ?InitializeDynamicShaders_cutlass3x_common_cutlass3x_conv_fprop_bias_activation_relu_sm100_tensorop_256x128x32_e4m3_e4m3_f32_f16_f16_70d0dce144161b3d@cask6_myelin@@YA?AW4Status@1@AEAVContext@1@@Z
    ?InitializeDynamicShaders_cutlass3x_common_cutlass3x_conv_fprop_bias_activation_relu_sm100_tensorop_256x128x32_e4m3_e4m3_f32_f32_f32_8a6acb551368a89a@cask6_myelin@@YA?AW4Status@1@AEAVContext@1@@Z
    ?InitializeDynamicShaders_cutlass3x_common_cutlass3x_conv_fprop_bias_activation_relu_sm100_tensorop_256x128x32_s8_s8_s32_f16_f16_c0784cfc37079aee@cask6_myelin@@YA?AW4Status@1@AEAVContext@1@@Z
    ?InitializeDynamicShaders_cutlass3x_common_cutlass3x_conv_fprop_bias_activation_relu_sm100_tensorop_256x128x32_s8_s8_s32_f32_f32_ba18198894814ea@cask6_myelin@@YA?AW4Status@1@AEAVContext@1@@Z
    ?InitializeDynamicShaders_cutlass3x_common_cutlass3x_conv_fprop_bias_activation_relu_sm100_tensorop_256x128x32_s8_s8_s32_s8_s8_740c49ca9c5919d4@cask6_myelin@@YA?AW4Status@1@AEAVContext@1@@Z
    ?InitializeDynamicShaders_cutlass3x_common_cutlass3x_conv_fprop_bias_activation_relu_sm100_tensorop_256x128x8_f32_f32_f32_f32_f32_c314c880e28a9b23@cask6_myelin@@YA?AW4Status@1@AEAVContext@1@@Z
    ?InitializeDynamicShaders_cutlass3x_common_cutlass3x_conv_fprop_bias_activation_relu_sm100_tensorop_256x256x16_bf16_bf16_f32_bf16_bf16_60da0418b65b8852@cask6_myelin@@YA?AW4Status@1@AEAVContext@1@@Z
    ?InitializeDynamicShaders_cutlass3x_common_cutlass3x_conv_fprop_bias_activation_relu_sm100_tensorop_256x256x16_f16_f16_f16_f16_f16_b35d2035315dbc90@cask6_myelin@@YA?AW4Status@1@AEAVContext@1@@Z
    ?InitializeDynamicShaders_cutlass3x_common_cutlass3x_conv_fprop_bias_activation_relu_sm100_tensorop_256x256x16_f16_f16_f32_f16_f16_61c6607ad3c0a672@cask6_myelin@@YA?AW4Status@1@AEAVContext@1@@Z
    ?InitializeDynamicShaders_cutlass3x_common_cutlass3x_conv_fprop_bias_activation_relu_sm100_tensorop_256x256x32_e4m3_e4m3_f32_bf16_bf16_b22fc83e821de205@cask6_myelin@@YA?AW4Status@1@AEAVContext@1@@Z
    ?InitializeDynamicShaders_cutlass3x_common_cutlass3x_conv_fprop_bias_activation_relu_sm100_tensorop_256x256x32_e4m3_e4m3_f32_e4m3_e4m3_9fdfc41ef0d2b9b1@cask6_myelin@@YA?AW4Status@1@AEAVContext@1@@Z
    ?InitializeDynamicShaders_cutlass3x_common_cutlass3x_conv_fprop_bias_activation_relu_sm100_tensorop_256x256x32_e4m3_e4m3_f32_f16_f16_208f175a26617bd9@cask6_myelin@@YA?AW4Status@1@AEAVContext@1@@Z
    ?InitializeDynamicShaders_cutlass3x_common_cutlass3x_conv_fprop_bias_activation_relu_sm100_tensorop_256x256x32_e4m3_e4m3_f32_f32_f32_ec15775966451a55@cask6_myelin@@YA?AW4Status@1@AEAVContext@1@@Z
    ?InitializeDynamicShaders_cutlass3x_common_cutlass3x_conv_fprop_bias_activation_relu_sm100_tensorop_256x256x32_s8_s8_s32_f16_f16_13a043521c0ea77@cask6_myelin@@YA?AW4Status@1@AEAVContext@1@@Z
    ?InitializeDynamicShaders_cutlass3x_common_cutlass3x_conv_fprop_bias_activation_relu_sm100_tensorop_256x256x32_s8_s8_s32_f32_f32_adf8ea7737d5ce62@cask6_myelin@@YA?AW4Status@1@AEAVContext@1@@Z
    ?InitializeDynamicShaders_cutlass3x_common_cutlass3x_conv_fprop_bias_activation_relu_sm100_tensorop_256x256x32_s8_s8_s32_s8_s8_91620c276f9d3b42@cask6_myelin@@YA?AW4Status@1@AEAVContext@1@@Z
    ?InitializeDynamicShaders_cutlass3x_common_cutlass3x_conv_fprop_bias_activation_relu_sm100_tensorop_256x256x8_f32_f32_f32_f32_f32_f50282cfa0693a24@cask6_myelin@@YA?AW4Status@1@AEAVContext@1@@Z
    ?InitializeDynamicShaders_cutlass3x_common_cutlass3x_conv_fprop_bias_activation_relu_sm100_tensorop_256x64x16_bf16_bf16_f32_bf16_bf16_50256a52aefb224f@cask6_myelin@@YA?AW4Status@1@AEAVContext@1@@Z
    ?InitializeDynamicShaders_cutlass3x_common_cutlass3x_conv_fprop_bias_activation_relu_sm100_tensorop_256x64x16_f16_f16_f16_f16_f16_d09314199287f50e@cask6_myelin@@YA?AW4Status@1@AEAVContext@1@@Z
    ?InitializeDynamicShaders_cutlass3x_common_cutlass3x_conv_fprop_bias_activation_relu_sm100_tensorop_256x64x16_f16_f16_f32_f16_f16_360f4653b8a1c3e9@cask6_myelin@@YA?AW4Status@1@AEAVContext@1@@Z
    ?InitializeDynamicShaders_cutlass3x_common_cutlass3x_conv_fprop_bias_activation_relu_sm100_tensorop_256x64x32_e4m3_e4m3_f32_bf16_bf16_ca4422c021e6bc02@cask6_myelin@@YA?AW4Status@1@AEAVContext@1@@Z
    ?InitializeDynamicShaders_cutlass3x_common_cutlass3x_conv_fprop_bias_activation_relu_sm100_tensorop_256x64x32_e4m3_e4m3_f32_e4m3_e4m3_86a1680b20e8cdbb@cask6_myelin@@YA?AW4Status@1@AEAVContext@1@@Z
    ?InitializeDynamicShaders_cutlass3x_common_cutlass3x_conv_fprop_bias_activation_relu_sm100_tensorop_256x64x32_e4m3_e4m3_f32_f16_f16_1a7c08168e67a314@cask6_myelin@@YA?AW4Status@1@AEAVContext@1@@Z
    ?InitializeDynamicShaders_cutlass3x_common_cutlass3x_conv_fprop_bias_activation_relu_sm100_tensorop_256x64x32_e4m3_e4m3_f32_f32_f32_9a95de1917f058cc@cask6_myelin@@YA?AW4Status@1@AEAVContext@1@@Z
    ?InitializeDynamicShaders_cutlass3x_common_cutlass3x_conv_fprop_bias_activation_relu_sm100_tensorop_256x64x32_s8_s8_s32_f16_f16_ecebf117c87ebf21@cask6_myelin@@YA?AW4Status@1@AEAVContext@1@@Z
    ?InitializeDynamicShaders_cutlass3x_common_cutlass3x_conv_fprop_bias_activation_relu_sm100_tensorop_256x64x32_s8_s8_s32_f32_f32_46562987fe540f99@cask6_myelin@@YA?AW4Status@1@AEAVContext@1@@Z
    ?InitializeDynamicShaders_cutlass3x_common_cutlass3x_conv_fprop_bias_activation_relu_sm100_tensorop_256x64x32_s8_s8_s32_s8_s8_c7a9b4cdb0d86802@cask6_myelin@@YA?AW4Status@1@AEAVContext@1@@Z
    ?InitializeDynamicShaders_cutlass3x_common_cutlass3x_conv_fprop_bias_activation_relu_sm100_tensorop_64x128x16_bf16_bf16_f32_bf16_bf16_af193e736ac317f3@cask6_myelin@@YA?AW4Status@1@AEAVContext@1@@Z
    ?InitializeDynamicShaders_cutlass3x_common_cutlass3x_conv_fprop_bias_activation_relu_sm100_tensorop_64x128x16_f16_f16_f16_f16_f16_dcc273017b87c38@cask6_myelin@@YA?AW4Status@1@AEAVContext@1@@Z
    ?InitializeDynamicShaders_cutlass3x_common_cutlass3x_conv_fprop_bias_activation_relu_sm100_tensorop_64x128x16_f16_f16_f32_f16_f16_ebe92ccac8dcd904@cask6_myelin@@YA?AW4Status@1@AEAVContext@1@@Z
    ?InitializeDynamicShaders_cutlass3x_common_cutlass3x_conv_fprop_bias_activation_relu_sm100_tensorop_64x128x32_e4m3_e4m3_f32_bf16_bf16_e920e1f832281499@cask6_myelin@@YA?AW4Status@1@AEAVContext@1@@Z
    ?InitializeDynamicShaders_cutlass3x_common_cutlass3x_conv_fprop_bias_activation_relu_sm100_tensorop_64x128x32_e4m3_e4m3_f32_e4m3_e4m3_f287523290de3a14@cask6_myelin@@YA?AW4Status@1@AEAVContext@1@@Z
    ?InitializeDynamicShaders_cutlass3x_common_cutlass3x_conv_fprop_bias_activation_relu_sm100_tensorop_64x128x32_e4m3_e4m3_f32_f16_f16_d4d6d5dcbbf179fd@cask6_myelin@@YA?AW4Status@1@AEAVContext@1@@Z
    ?InitializeDynamicShaders_cutlass3x_common_cutlass3x_conv_fprop_bias_activation_relu_sm100_tensorop_64x128x32_e4m3_e4m3_f32_f32_f32_58d4df3bd7baf758@cask6_myelin@@YA?AW4Status@1@AEAVContext@1@@Z
    ?InitializeDynamicShaders_cutlass3x_common_cutlass3x_conv_fprop_bias_activation_relu_sm100_tensorop_64x128x32_s8_s8_s32_f16_f16_20a13995b04603b5@cask6_myelin@@YA?AW4Status@1@AEAVContext@1@@Z
    ?InitializeDynamicShaders_cutlass3x_common_cutlass3x_conv_fprop_bias_activation_relu_sm100_tensorop_64x128x32_s8_s8_s32_f32_f32_de9f4532dc395edb@cask6_myelin@@YA?AW4Status@1@AEAVContext@1@@Z
    ?InitializeDynamicShaders_cutlass3x_common_cutlass3x_conv_fprop_bias_activation_relu_sm100_tensorop_64x128x32_s8_s8_s32_s8_s8_b37c5f1f42af409f@cask6_myelin@@YA?AW4Status@1@AEAVContext@1@@Z
    ?InitializeDynamicShaders_cutlass3x_common_cutlass3x_conv_fprop_bias_activation_relu_sm100_tensorop_64x128x8_f32_f32_f32_f32_f32_d4da78d81b613b0@cask6_myelin@@YA?AW4Status@1@AEAVContext@1@@Z
    ?InitializeDynamicShaders_cutlass3x_common_cutlass3x_conv_fprop_bias_activation_relu_sm100_tensorop_64x64x16_bf16_bf16_f32_bf16_bf16_661b97accba90fae@cask6_myelin@@YA?AW4Status@1@AEAVContext@1@@Z
    ?InitializeDynamicShaders_cutlass3x_common_cutlass3x_conv_fprop_bias_activation_relu_sm100_tensorop_64x64x16_f16_f16_f16_f16_f16_62bdfed804f2c309@cask6_myelin@@YA?AW4Status@1@AEAVContext@1@@Z
    ?InitializeDynamicShaders_cutlass3x_common_cutlass3x_conv_fprop_bias_activation_relu_sm100_tensorop_64x64x16_f16_f16_f32_f16_f16_2a0aa8a1e51d9e78@cask6_myelin@@YA?AW4Status@1@AEAVContext@1@@Z
    ?InitializeDynamicShaders_cutlass3x_common_cutlass3x_conv_fprop_bias_activation_relu_sm100_tensorop_64x64x32_e4m3_e4m3_f32_bf16_bf16_7d7cd62cffaaa2c4@cask6_myelin@@YA?AW4Status@1@AEAVContext@1@@Z
    ?InitializeDynamicShaders_cutlass3x_common_cutlass3x_conv_fprop_bias_activation_relu_sm100_tensorop_64x64x32_e4m3_e4m3_f32_e4m3_e4m3_f7a34ea6e90f2121@cask6_myelin@@YA?AW4Status@1@AEAVContext@1@@Z
    ?InitializeDynamicShaders_cutlass3x_common_cutlass3x_conv_fprop_bias_activation_relu_sm100_tensorop_64x64x32_e4m3_e4m3_f32_f16_f16_63202daa11cf845d@cask6_myelin@@YA?AW4Status@1@AEAVContext@1@@Z
    ?InitializeDynamicShaders_cutlass3x_common_cutlass3x_conv_fprop_bias_activation_relu_sm100_tensorop_64x64x32_e4m3_e4m3_f32_f32_f32_cffa5133f6a929d@cask6_myelin@@YA?AW4Status@1@AEAVContext@1@@Z
    ?InitializeDynamicShaders_cutlass3x_common_cutlass3x_conv_fprop_bias_activation_relu_sm100_tensorop_64x64x32_s8_s8_s32_f16_f16_1224bfcee59a6aad@cask6_myelin@@YA?AW4Status@1@AEAVContext@1@@Z
    ?InitializeDynamicShaders_cutlass3x_common_cutlass3x_conv_fprop_bias_activation_relu_sm100_tensorop_64x64x32_s8_s8_s32_f32_f32_bb77616418f0dc5a@cask6_myelin@@YA?AW4Status@1@AEAVContext@1@@Z
    ?InitializeDynamicShaders_cutlass3x_common_cutlass3x_conv_fprop_bias_activation_relu_sm100_tensorop_64x64x32_s8_s8_s32_s8_s8_48fc5fcf57043d32@cask6_myelin@@YA?AW4Status@1@AEAVContext@1@@Z
    ?InitializeDynamicShaders_cutlass3x_common_cutlass3x_conv_fprop_bias_activation_swish_resadd_sm100_tensorop_128x128x16_bf16_bf16_f32_bf16_bf16_60bddfe1ada48473@cask6_myelin@@YA?AW4Status@1@AEAVContext@1@@Z
    ?InitializeDynamicShaders_cutlass3x_common_cutlass3x_conv_fprop_bias_activation_swish_resadd_sm100_tensorop_128x128x16_bf16_bf16_f32_bf16_bf16_b68cf64ffb045ba1@cask6_myelin@@YA?AW4Status@1@AEAVContext@1@@Z
    ?InitializeDynamicShaders_cutlass3x_common_cutlass3x_conv_fprop_bias_activation_swish_resadd_sm100_tensorop_128x128x16_f16_f16_f16_f16_f16_2e749552ab6d818d@cask6_myelin@@YA?AW4Status@1@AEAVContext@1@@Z
    ?InitializeDynamicShaders_cutlass3x_common_cutlass3x_conv_fprop_bias_activation_swish_resadd_sm100_tensorop_128x128x16_f16_f16_f16_f16_f16_b45207599bfdb7a7@cask6_myelin@@YA?AW4Status@1@AEAVContext@1@@Z
    ?InitializeDynamicShaders_cutlass3x_common_cutlass3x_conv_fprop_bias_activation_swish_resadd_sm100_tensorop_128x128x16_f16_f16_f32_f16_f16_54c10fe83aa6ebe1@cask6_myelin@@YA?AW4Status@1@AEAVContext@1@@Z
    ?InitializeDynamicShaders_cutlass3x_common_cutlass3x_conv_fprop_bias_activation_swish_resadd_sm100_tensorop_128x128x16_f16_f16_f32_f16_f16_a3e7fa75cf0419b2@cask6_myelin@@YA?AW4Status@1@AEAVContext@1@@Z
    ?InitializeDynamicShaders_cutlass3x_common_cutlass3x_conv_fprop_bias_activation_swish_resadd_sm100_tensorop_128x128x32_e4m3_e4m3_f32_bf16_bf16_668b29ebe58f5cda@cask6_myelin@@YA?AW4Status@1@AEAVContext@1@@Z
    ?InitializeDynamicShaders_cutlass3x_common_cutlass3x_conv_fprop_bias_activation_swish_resadd_sm100_tensorop_128x128x32_e4m3_e4m3_f32_bf16_bf16_7aafbcdc75a9157@cask6_myelin@@YA?AW4Status@1@AEAVContext@1@@Z
    ?InitializeDynamicShaders_cutlass3x_common_cutlass3x_conv_fprop_bias_activation_swish_resadd_sm100_tensorop_128x128x32_e4m3_e4m3_f32_bf16_bf16_a49b72335894f83e@cask6_myelin@@YA?AW4Status@1@AEAVContext@1@@Z
    ?InitializeDynamicShaders_cutlass3x_common_cutlass3x_conv_fprop_bias_activation_swish_resadd_sm100_tensorop_128x128x32_e4m3_e4m3_f32_bf16_bf16_ca8bc7baf6338ccb@cask6_myelin@@YA?AW4Status@1@AEAVContext@1@@Z
    ?InitializeDynamicShaders_cutlass3x_common_cutlass3x_conv_fprop_bias_activation_swish_resadd_sm100_tensorop_128x128x32_e4m3_e4m3_f32_e4m3_e4m3_17294ccac7ec3e27@cask6_myelin@@YA?AW4Status@1@AEAVContext@1@@Z
    ?InitializeDynamicShaders_cutlass3x_common_cutlass3x_conv_fprop_bias_activation_swish_resadd_sm100_tensorop_128x128x32_e4m3_e4m3_f32_e4m3_e4m3_3ed4209ec711dc46@cask6_myelin@@YA?AW4Status@1@AEAVContext@1@@Z
    ?InitializeDynamicShaders_cutlass3x_common_cutlass3x_conv_fprop_bias_activation_swish_resadd_sm100_tensorop_128x128x32_e4m3_e4m3_f32_e4m3_e4m3_435cc665e0dee095@cask6_myelin@@YA?AW4Status@1@AEAVContext@1@@Z
    ?InitializeDynamicShaders_cutlass3x_common_cutlass3x_conv_fprop_bias_activation_swish_resadd_sm100_tensorop_128x128x32_e4m3_e4m3_f32_e4m3_e4m3_5446c2ecfa1e9319@cask6_myelin@@YA?AW4Status@1@AEAVContext@1@@Z
    ?InitializeDynamicShaders_cutlass3x_common_cutlass3x_conv_fprop_bias_activation_swish_resadd_sm100_tensorop_128x128x32_e4m3_e4m3_f32_f16_f16_308a3a6bff0843e0@cask6_myelin@@YA?AW4Status@1@AEAVContext@1@@Z
    ?InitializeDynamicShaders_cutlass3x_common_cutlass3x_conv_fprop_bias_activation_swish_resadd_sm100_tensorop_128x128x32_e4m3_e4m3_f32_f16_f16_867a81ffddf659ca@cask6_myelin@@YA?AW4Status@1@AEAVContext@1@@Z
    ?InitializeDynamicShaders_cutlass3x_common_cutlass3x_conv_fprop_bias_activation_swish_resadd_sm100_tensorop_128x128x32_e4m3_e4m3_f32_f16_f16_cc17bb238aa3db03@cask6_myelin@@YA?AW4Status@1@AEAVContext@1@@Z
    ?InitializeDynamicShaders_cutlass3x_common_cutlass3x_conv_fprop_bias_activation_swish_resadd_sm100_tensorop_128x128x32_e4m3_e4m3_f32_f16_f16_d2c78cb0bb7e1094@cask6_myelin@@YA?AW4Status@1@AEAVContext@1@@Z
    ?InitializeDynamicShaders_cutlass3x_common_cutlass3x_conv_fprop_bias_activation_swish_resadd_sm100_tensorop_128x128x32_e4m3_e4m3_f32_f32_f32_197d7a296df8cfdf@cask6_myelin@@YA?AW4Status@1@AEAVContext@1@@Z
    ?InitializeDynamicShaders_cutlass3x_common_cutlass3x_conv_fprop_bias_activation_swish_resadd_sm100_tensorop_128x128x32_e4m3_e4m3_f32_f32_f32_2d9b8b2a4c6986eb@cask6_myelin@@YA?AW4Status@1@AEAVContext@1@@Z
    ?InitializeDynamicShaders_cutlass3x_common_cutlass3x_conv_fprop_bias_activation_swish_resadd_sm100_tensorop_128x128x32_e4m3_e4m3_f32_f32_f32_5f28d7cd470f318e@cask6_myelin@@YA?AW4Status@1@AEAVContext@1@@Z
    ?InitializeDynamicShaders_cutlass3x_common_cutlass3x_conv_fprop_bias_activation_swish_resadd_sm100_tensorop_128x128x32_e4m3_e4m3_f32_f32_f32_e0b561e8d7fce0bb@cask6_myelin@@YA?AW4Status@1@AEAVContext@1@@Z
    ?InitializeDynamicShaders_cutlass3x_common_cutlass3x_conv_fprop_bias_activation_swish_resadd_sm100_tensorop_128x128x32_s8_s8_s32_f16_f16_65d1a42f1259ea79@cask6_myelin@@YA?AW4Status@1@AEAVContext@1@@Z
    ?InitializeDynamicShaders_cutlass3x_common_cutlass3x_conv_fprop_bias_activation_swish_resadd_sm100_tensorop_128x128x32_s8_s8_s32_f16_f16_acaf2eab042002ba@cask6_myelin@@YA?AW4Status@1@AEAVContext@1@@Z
    ?InitializeDynamicShaders_cutlass3x_common_cutlass3x_conv_fprop_bias_activation_swish_resadd_sm100_tensorop_128x128x32_s8_s8_s32_f32_f32_3626f69251fbfc2e@cask6_myelin@@YA?AW4Status@1@AEAVContext@1@@Z
    ?InitializeDynamicShaders_cutlass3x_common_cutlass3x_conv_fprop_bias_activation_swish_resadd_sm100_tensorop_128x128x32_s8_s8_s32_f32_f32_a9480ca13935244b@cask6_myelin@@YA?AW4Status@1@AEAVContext@1@@Z
    ?InitializeDynamicShaders_cutlass3x_common_cutlass3x_conv_fprop_bias_activation_swish_resadd_sm100_tensorop_128x128x32_s8_s8_s32_s8_s8_3240fa3b8d7220e8@cask6_myelin@@YA?AW4Status@1@AEAVContext@1@@Z
    ?InitializeDynamicShaders_cutlass3x_common_cutlass3x_conv_fprop_bias_activation_swish_resadd_sm100_tensorop_128x128x32_s8_s8_s32_s8_s8_53840ac5d0002ef4@cask6_myelin@@YA?AW4Status@1@AEAVContext@1@@Z
    ?InitializeDynamicShaders_cutlass3x_common_cutlass3x_conv_fprop_bias_activation_swish_resadd_sm100_tensorop_128x256x16_bf16_bf16_f32_bf16_bf16_3d0fde7f7d955233@cask6_myelin@@YA?AW4Status@1@AEAVContext@1@@Z
    ?InitializeDynamicShaders_cutlass3x_common_cutlass3x_conv_fprop_bias_activation_swish_resadd_sm100_tensorop_128x256x16_bf16_bf16_f32_bf16_bf16_431752eb811d1dc@cask6_myelin@@YA?AW4Status@1@AEAVContext@1@@Z
    ?InitializeDynamicShaders_cutlass3x_common_cutlass3x_conv_fprop_bias_activation_swish_resadd_sm100_tensorop_128x256x16_f16_f16_f16_f16_f16_4d5595a1aba9f87a@cask6_myelin@@YA?AW4Status@1@AEAVContext@1@@Z
    ?InitializeDynamicShaders_cutlass3x_common_cutlass3x_conv_fprop_bias_activation_swish_resadd_sm100_tensorop_128x256x16_f16_f16_f16_f16_f16_9a2008c98d987c7d@cask6_myelin@@YA?AW4Status@1@AEAVContext@1@@Z
    ?InitializeDynamicShaders_cutlass3x_common_cutlass3x_conv_fprop_bias_activation_swish_resadd_sm100_tensorop_128x256x16_f16_f16_f32_f16_f16_1af1a981f97327be@cask6_myelin@@YA?AW4Status@1@AEAVContext@1@@Z
    ?InitializeDynamicShaders_cutlass3x_common_cutlass3x_conv_fprop_bias_activation_swish_resadd_sm100_tensorop_128x256x16_f16_f16_f32_f16_f16_470e7cebe5a6f834@cask6_myelin@@YA?AW4Status@1@AEAVContext@1@@Z
    ?InitializeDynamicShaders_cutlass3x_common_cutlass3x_conv_fprop_bias_activation_swish_resadd_sm100_tensorop_128x256x32_e4m3_e4m3_f32_bf16_bf16_61e09b5f3153e4fc@cask6_myelin@@YA?AW4Status@1@AEAVContext@1@@Z
    ?InitializeDynamicShaders_cutlass3x_common_cutlass3x_conv_fprop_bias_activation_swish_resadd_sm100_tensorop_128x256x32_e4m3_e4m3_f32_bf16_bf16_ccab1deb0ea9d521@cask6_myelin@@YA?AW4Status@1@AEAVContext@1@@Z
    ?InitializeDynamicShaders_cutlass3x_common_cutlass3x_conv_fprop_bias_activation_swish_resadd_sm100_tensorop_128x256x32_e4m3_e4m3_f32_bf16_bf16_ced688c9d7c3d8e8@cask6_myelin@@YA?AW4Status@1@AEAVContext@1@@Z
    ?InitializeDynamicShaders_cutlass3x_common_cutlass3x_conv_fprop_bias_activation_swish_resadd_sm100_tensorop_128x256x32_e4m3_e4m3_f32_bf16_bf16_e24ee9c5b641450c@cask6_myelin@@YA?AW4Status@1@AEAVContext@1@@Z
    ?InitializeDynamicShaders_cutlass3x_common_cutlass3x_conv_fprop_bias_activation_swish_resadd_sm100_tensorop_128x256x32_e4m3_e4m3_f32_e4m3_e4m3_404947bbf0134ed6@cask6_myelin@@YA?AW4Status@1@AEAVContext@1@@Z
    ?InitializeDynamicShaders_cutlass3x_common_cutlass3x_conv_fprop_bias_activation_swish_resadd_sm100_tensorop_128x256x32_e4m3_e4m3_f32_e4m3_e4m3_929182a607a58747@cask6_myelin@@YA?AW4Status@1@AEAVContext@1@@Z
    ?InitializeDynamicShaders_cutlass3x_common_cutlass3x_conv_fprop_bias_activation_swish_resadd_sm100_tensorop_128x256x32_e4m3_e4m3_f32_e4m3_e4m3_db96072090587b47@cask6_myelin@@YA?AW4Status@1@AEAVContext@1@@Z
    ?InitializeDynamicShaders_cutlass3x_common_cutlass3x_conv_fprop_bias_activation_swish_resadd_sm100_tensorop_128x256x32_e4m3_e4m3_f32_e4m3_e4m3_f864daaf9d84b775@cask6_myelin@@YA?AW4Status@1@AEAVContext@1@@Z
    ?InitializeDynamicShaders_cutlass3x_common_cutlass3x_conv_fprop_bias_activation_swish_resadd_sm100_tensorop_128x256x32_e4m3_e4m3_f32_f16_f16_3a35fc103b099e62@cask6_myelin@@YA?AW4Status@1@AEAVContext@1@@Z
    ?InitializeDynamicShaders_cutlass3x_common_cutlass3x_conv_fprop_bias_activation_swish_resadd_sm100_tensorop_128x256x32_e4m3_e4m3_f32_f16_f16_615af32d46aaa925@cask6_myelin@@YA?AW4Status@1@AEAVContext@1@@Z
    ?InitializeDynamicShaders_cutlass3x_common_cutlass3x_conv_fprop_bias_activation_swish_resadd_sm100_tensorop_128x256x32_e4m3_e4m3_f32_f16_f16_748eae96a310515e@cask6_myelin@@YA?AW4Status@1@AEAVContext@1@@Z
    ?InitializeDynamicShaders_cutlass3x_common_cutlass3x_conv_fprop_bias_activation_swish_resadd_sm100_tensorop_128x256x32_e4m3_e4m3_f32_f16_f16_cf915b62bb03602c@cask6_myelin@@YA?AW4Status@1@AEAVContext@1@@Z
    ?InitializeDynamicShaders_cutlass3x_common_cutlass3x_conv_fprop_bias_activation_swish_resadd_sm100_tensorop_128x256x32_e4m3_e4m3_f32_f32_f32_55f7831502591b13@cask6_myelin@@YA?AW4Status@1@AEAVContext@1@@Z
    ?InitializeDynamicShaders_cutlass3x_common_cutlass3x_conv_fprop_bias_activation_swish_resadd_sm100_tensorop_128x256x32_e4m3_e4m3_f32_f32_f32_8fb4eba5a58b3e9f@cask6_myelin@@YA?AW4Status@1@AEAVContext@1@@Z
    ?InitializeDynamicShaders_cutlass3x_common_cutlass3x_conv_fprop_bias_activation_swish_resadd_sm100_tensorop_128x256x32_e4m3_e4m3_f32_f32_f32_bcc83eeabca150d9@cask6_myelin@@YA?AW4Status@1@AEAVContext@1@@Z
    ?InitializeDynamicShaders_cutlass3x_common_cutlass3x_conv_fprop_bias_activation_swish_resadd_sm100_tensorop_128x256x32_e4m3_e4m3_f32_f32_f32_f57f7ba1459ccb8@cask6_myelin@@YA?AW4Status@1@AEAVContext@1@@Z
    ?InitializeDynamicShaders_cutlass3x_common_cutlass3x_conv_fprop_bias_activation_swish_resadd_sm100_tensorop_128x256x32_s8_s8_s32_f16_f16_1561ef534b19f1b7@cask6_myelin@@YA?AW4Status@1@AEAVContext@1@@Z
    ?InitializeDynamicShaders_cutlass3x_common_cutlass3x_conv_fprop_bias_activation_swish_resadd_sm100_tensorop_128x256x32_s8_s8_s32_f16_f16_79de2a8c04747acc@cask6_myelin@@YA?AW4Status@1@AEAVContext@1@@Z
    ?InitializeDynamicShaders_cutlass3x_common_cutlass3x_conv_fprop_bias_activation_swish_resadd_sm100_tensorop_128x256x32_s8_s8_s32_f32_f32_63da60cf855c7296@cask6_myelin@@YA?AW4Status@1@AEAVContext@1@@Z
    ?InitializeDynamicShaders_cutlass3x_common_cutlass3x_conv_fprop_bias_activation_swish_resadd_sm100_tensorop_128x256x32_s8_s8_s32_f32_f32_744386e17c4d94a8@cask6_myelin@@YA?AW4Status@1@AEAVContext@1@@Z
    ?InitializeDynamicShaders_cutlass3x_common_cutlass3x_conv_fprop_bias_activation_swish_resadd_sm100_tensorop_128x256x32_s8_s8_s32_s8_s8_5c8be251f65ac6d1@cask6_myelin@@YA?AW4Status@1@AEAVContext@1@@Z
    ?InitializeDynamicShaders_cutlass3x_common_cutlass3x_conv_fprop_bias_activation_swish_resadd_sm100_tensorop_128x256x32_s8_s8_s32_s8_s8_af789e2aeeb5be9f@cask6_myelin@@YA?AW4Status@1@AEAVContext@1@@Z
    ?InitializeDynamicShaders_cutlass3x_common_cutlass3x_conv_fprop_bias_activation_swish_resadd_sm100_tensorop_128x64x16_bf16_bf16_f32_bf16_bf16_273141671b4629c8@cask6_myelin@@YA?AW4Status@1@AEAVContext@1@@Z
    ?InitializeDynamicShaders_cutlass3x_common_cutlass3x_conv_fprop_bias_activation_swish_resadd_sm100_tensorop_128x64x16_bf16_bf16_f32_bf16_bf16_a89f0311cc1af10d@cask6_myelin@@YA?AW4Status@1@AEAVContext@1@@Z
    ?InitializeDynamicShaders_cutlass3x_common_cutlass3x_conv_fprop_bias_activation_swish_resadd_sm100_tensorop_128x64x16_f16_f16_f16_f16_f16_8e4dd4f3eae24baf@cask6_myelin@@YA?AW4Status@1@AEAVContext@1@@Z
    ?InitializeDynamicShaders_cutlass3x_common_cutlass3x_conv_fprop_bias_activation_swish_resadd_sm100_tensorop_128x64x16_f16_f16_f16_f16_f16_e633b476442d1153@cask6_myelin@@YA?AW4Status@1@AEAVContext@1@@Z
    ?InitializeDynamicShaders_cutlass3x_common_cutlass3x_conv_fprop_bias_activation_swish_resadd_sm100_tensorop_128x64x16_f16_f16_f32_f16_f16_2aeaaf567dad9591@cask6_myelin@@YA?AW4Status@1@AEAVContext@1@@Z
    ?InitializeDynamicShaders_cutlass3x_common_cutlass3x_conv_fprop_bias_activation_swish_resadd_sm100_tensorop_128x64x16_f16_f16_f32_f16_f16_605b3b8741104ecb@cask6_myelin@@YA?AW4Status@1@AEAVContext@1@@Z
    ?InitializeDynamicShaders_cutlass3x_common_cutlass3x_conv_fprop_bias_activation_swish_resadd_sm100_tensorop_128x64x32_e4m3_e4m3_f32_bf16_bf16_3080fa4f59e79e6f@cask6_myelin@@YA?AW4Status@1@AEAVContext@1@@Z
    ?InitializeDynamicShaders_cutlass3x_common_cutlass3x_conv_fprop_bias_activation_swish_resadd_sm100_tensorop_128x64x32_e4m3_e4m3_f32_bf16_bf16_d28c0ff883000a93@cask6_myelin@@YA?AW4Status@1@AEAVContext@1@@Z
    ?InitializeDynamicShaders_cutlass3x_common_cutlass3x_conv_fprop_bias_activation_swish_resadd_sm100_tensorop_128x64x32_e4m3_e4m3_f32_bf16_bf16_fe0751d600eac3db@cask6_myelin@@YA?AW4Status@1@AEAVContext@1@@Z
    ?InitializeDynamicShaders_cutlass3x_common_cutlass3x_conv_fprop_bias_activation_swish_resadd_sm100_tensorop_128x64x32_e4m3_e4m3_f32_bf16_bf16_ff935fe2412cfbe3@cask6_myelin@@YA?AW4Status@1@AEAVContext@1@@Z
    ?InitializeDynamicShaders_cutlass3x_common_cutlass3x_conv_fprop_bias_activation_swish_resadd_sm100_tensorop_128x64x32_e4m3_e4m3_f32_e4m3_e4m3_6cb38cb21accbc4a@cask6_myelin@@YA?AW4Status@1@AEAVContext@1@@Z
    ?InitializeDynamicShaders_cutlass3x_common_cutlass3x_conv_fprop_bias_activation_swish_resadd_sm100_tensorop_128x64x32_e4m3_e4m3_f32_e4m3_e4m3_8de24b209758c071@cask6_myelin@@YA?AW4Status@1@AEAVContext@1@@Z
    ?InitializeDynamicShaders_cutlass3x_common_cutlass3x_conv_fprop_bias_activation_swish_resadd_sm100_tensorop_128x64x32_e4m3_e4m3_f32_e4m3_e4m3_e85752a0741be33d@cask6_myelin@@YA?AW4Status@1@AEAVContext@1@@Z
    ?InitializeDynamicShaders_cutlass3x_common_cutlass3x_conv_fprop_bias_activation_swish_resadd_sm100_tensorop_128x64x32_e4m3_e4m3_f32_e4m3_e4m3_f5a77848a93c8483@cask6_myelin@@YA?AW4Status@1@AEAVContext@1@@Z
    ?InitializeDynamicShaders_cutlass3x_common_cutlass3x_conv_fprop_bias_activation_swish_resadd_sm100_tensorop_128x64x32_e4m3_e4m3_f32_f16_f16_6d20ddb9f1252b4b@cask6_myelin@@YA?AW4Status@1@AEAVContext@1@@Z
    ?InitializeDynamicShaders_cutlass3x_common_cutlass3x_conv_fprop_bias_activation_swish_resadd_sm100_tensorop_128x64x32_e4m3_e4m3_f32_f16_f16_9ed5dda588e739bf@cask6_myelin@@YA?AW4Status@1@AEAVContext@1@@Z
    ?InitializeDynamicShaders_cutlass3x_common_cutlass3x_conv_fprop_bias_activation_swish_resadd_sm100_tensorop_128x64x32_e4m3_e4m3_f32_f16_f16_ad2fc36fe6a6bc94@cask6_myelin@@YA?AW4Status@1@AEAVContext@1@@Z
    ?InitializeDynamicShaders_cutlass3x_common_cutlass3x_conv_fprop_bias_activation_swish_resadd_sm100_tensorop_128x64x32_e4m3_e4m3_f32_f16_f16_c575ddcc42481b1f@cask6_myelin@@YA?AW4Status@1@AEAVContext@1@@Z
    ?InitializeDynamicShaders_cutlass3x_common_cutlass3x_conv_fprop_bias_activation_swish_resadd_sm100_tensorop_128x64x32_e4m3_e4m3_f32_f32_f32_194c768572917dc8@cask6_myelin@@YA?AW4Status@1@AEAVContext@1@@Z
    ?InitializeDynamicShaders_cutlass3x_common_cutlass3x_conv_fprop_bias_activation_swish_resadd_sm100_tensorop_128x64x32_e4m3_e4m3_f32_f32_f32_19e520922383c291@cask6_myelin@@YA?AW4Status@1@AEAVContext@1@@Z
    ?InitializeDynamicShaders_cutlass3x_common_cutlass3x_conv_fprop_bias_activation_swish_resadd_sm100_tensorop_128x64x32_e4m3_e4m3_f32_f32_f32_389a9007f9a13ef5@cask6_myelin@@YA?AW4Status@1@AEAVContext@1@@Z
    ?InitializeDynamicShaders_cutlass3x_common_cutlass3x_conv_fprop_bias_activation_swish_resadd_sm100_tensorop_128x64x32_e4m3_e4m3_f32_f32_f32_b53032ae66ac5729@cask6_myelin@@YA?AW4Status@1@AEAVContext@1@@Z
    ?InitializeDynamicShaders_cutlass3x_common_cutlass3x_conv_fprop_bias_activation_swish_resadd_sm100_tensorop_128x64x32_s8_s8_s32_f16_f16_5480cfccdd922100@cask6_myelin@@YA?AW4Status@1@AEAVContext@1@@Z
    ?InitializeDynamicShaders_cutlass3x_common_cutlass3x_conv_fprop_bias_activation_swish_resadd_sm100_tensorop_128x64x32_s8_s8_s32_f16_f16_f454edb2a1a12b53@cask6_myelin@@YA?AW4Status@1@AEAVContext@1@@Z
    ?InitializeDynamicShaders_cutlass3x_common_cutlass3x_conv_fprop_bias_activation_swish_resadd_sm100_tensorop_128x64x32_s8_s8_s32_f32_f32_9fa89021d3be951e@cask6_myelin@@YA?AW4Status@1@AEAVContext@1@@Z
    ?InitializeDynamicShaders_cutlass3x_common_cutlass3x_conv_fprop_bias_activation_swish_resadd_sm100_tensorop_128x64x32_s8_s8_s32_f32_f32_a5bbc93be2cbd2da@cask6_myelin@@YA?AW4Status@1@AEAVContext@1@@Z
    ?InitializeDynamicShaders_cutlass3x_common_cutlass3x_conv_fprop_bias_activation_swish_resadd_sm100_tensorop_128x64x32_s8_s8_s32_s8_s8_51cad91bcd6c4187@cask6_myelin@@YA?AW4Status@1@AEAVContext@1@@Z
    ?InitializeDynamicShaders_cutlass3x_common_cutlass3x_conv_fprop_bias_activation_swish_resadd_sm100_tensorop_128x64x32_s8_s8_s32_s8_s8_c06536c090ca70d5@cask6_myelin@@YA?AW4Status@1@AEAVContext@1@@Z
    ?InitializeDynamicShaders_cutlass3x_common_cutlass3x_conv_fprop_bias_activation_swish_resadd_sm100_tensorop_256x128x16_bf16_bf16_f32_bf16_bf16_b7ad190e08b860ca@cask6_myelin@@YA?AW4Status@1@AEAVContext@1@@Z
    ?InitializeDynamicShaders_cutlass3x_common_cutlass3x_conv_fprop_bias_activation_swish_resadd_sm100_tensorop_256x128x16_f16_f16_f16_f16_f16_8a16a36f753cb946@cask6_myelin@@YA?AW4Status@1@AEAVContext@1@@Z
    ?InitializeDynamicShaders_cutlass3x_common_cutlass3x_conv_fprop_bias_activation_swish_resadd_sm100_tensorop_256x128x16_f16_f16_f32_f16_f16_62f9fa65efdc0111@cask6_myelin@@YA?AW4Status@1@AEAVContext@1@@Z
    ?InitializeDynamicShaders_cutlass3x_common_cutlass3x_conv_fprop_bias_activation_swish_resadd_sm100_tensorop_256x128x32_e4m3_e4m3_f32_bf16_bf16_801d9144136a0f72@cask6_myelin@@YA?AW4Status@1@AEAVContext@1@@Z
    ?InitializeDynamicShaders_cutlass3x_common_cutlass3x_conv_fprop_bias_activation_swish_resadd_sm100_tensorop_256x128x32_e4m3_e4m3_f32_bf16_bf16_a0bc480398f897b0@cask6_myelin@@YA?AW4Status@1@AEAVContext@1@@Z
    ?InitializeDynamicShaders_cutlass3x_common_cutlass3x_conv_fprop_bias_activation_swish_resadd_sm100_tensorop_256x128x32_e4m3_e4m3_f32_e4m3_e4m3_d483b052f52ce85@cask6_myelin@@YA?AW4Status@1@AEAVContext@1@@Z
    ?InitializeDynamicShaders_cutlass3x_common_cutlass3x_conv_fprop_bias_activation_swish_resadd_sm100_tensorop_256x128x32_e4m3_e4m3_f32_e4m3_e4m3_fe7e731a38b1544@cask6_myelin@@YA?AW4Status@1@AEAVContext@1@@Z
    ?InitializeDynamicShaders_cutlass3x_common_cutlass3x_conv_fprop_bias_activation_swish_resadd_sm100_tensorop_256x128x32_e4m3_e4m3_f32_f16_f16_2a77107d300cbbac@cask6_myelin@@YA?AW4Status@1@AEAVContext@1@@Z
    ?InitializeDynamicShaders_cutlass3x_common_cutlass3x_conv_fprop_bias_activation_swish_resadd_sm100_tensorop_256x128x32_e4m3_e4m3_f32_f16_f16_dd4aa9af64189c37@cask6_myelin@@YA?AW4Status@1@AEAVContext@1@@Z
    ?InitializeDynamicShaders_cutlass3x_common_cutlass3x_conv_fprop_bias_activation_swish_resadd_sm100_tensorop_256x128x32_e4m3_e4m3_f32_f32_f32_2db6639de9ee7bbd@cask6_myelin@@YA?AW4Status@1@AEAVContext@1@@Z
    ?InitializeDynamicShaders_cutlass3x_common_cutlass3x_conv_fprop_bias_activation_swish_resadd_sm100_tensorop_256x128x32_e4m3_e4m3_f32_f32_f32_baf05819cc8517a5@cask6_myelin@@YA?AW4Status@1@AEAVContext@1@@Z
    ?InitializeDynamicShaders_cutlass3x_common_cutlass3x_conv_fprop_bias_activation_swish_resadd_sm100_tensorop_256x128x32_s8_s8_s32_f16_f16_33c296ca3c203abd@cask6_myelin@@YA?AW4Status@1@AEAVContext@1@@Z
    ?InitializeDynamicShaders_cutlass3x_common_cutlass3x_conv_fprop_bias_activation_swish_resadd_sm100_tensorop_256x128x32_s8_s8_s32_f32_f32_f59c81921605110d@cask6_myelin@@YA?AW4Status@1@AEAVContext@1@@Z
    ?InitializeDynamicShaders_cutlass3x_common_cutlass3x_conv_fprop_bias_activation_swish_resadd_sm100_tensorop_256x128x32_s8_s8_s32_s8_s8_1fde0b66c696395c@cask6_myelin@@YA?AW4Status@1@AEAVContext@1@@Z
    ?InitializeDynamicShaders_cutlass3x_common_cutlass3x_conv_fprop_bias_activation_swish_resadd_sm100_tensorop_256x256x16_bf16_bf16_f32_bf16_bf16_c023f38bb00f9219@cask6_myelin@@YA?AW4Status@1@AEAVContext@1@@Z
    ?InitializeDynamicShaders_cutlass3x_common_cutlass3x_conv_fprop_bias_activation_swish_resadd_sm100_tensorop_256x256x16_f16_f16_f16_f16_f16_bbaa64528c5c7120@cask6_myelin@@YA?AW4Status@1@AEAVContext@1@@Z
    ?InitializeDynamicShaders_cutlass3x_common_cutlass3x_conv_fprop_bias_activation_swish_resadd_sm100_tensorop_256x256x16_f16_f16_f32_f16_f16_5fd6f2a6dc79c76b@cask6_myelin@@YA?AW4Status@1@AEAVContext@1@@Z
    ?InitializeDynamicShaders_cutlass3x_common_cutlass3x_conv_fprop_bias_activation_swish_resadd_sm100_tensorop_256x256x32_e4m3_e4m3_f32_bf16_bf16_30bd0e87d63c5ae5@cask6_myelin@@YA?AW4Status@1@AEAVContext@1@@Z
    ?InitializeDynamicShaders_cutlass3x_common_cutlass3x_conv_fprop_bias_activation_swish_resadd_sm100_tensorop_256x256x32_e4m3_e4m3_f32_bf16_bf16_67aea47252ad1522@cask6_myelin@@YA?AW4Status@1@AEAVContext@1@@Z
    ?InitializeDynamicShaders_cutlass3x_common_cutlass3x_conv_fprop_bias_activation_swish_resadd_sm100_tensorop_256x256x32_e4m3_e4m3_f32_e4m3_e4m3_2722e8c1f4a7800a@cask6_myelin@@YA?AW4Status@1@AEAVContext@1@@Z
    ?InitializeDynamicShaders_cutlass3x_common_cutlass3x_conv_fprop_bias_activation_swish_resadd_sm100_tensorop_256x256x32_e4m3_e4m3_f32_e4m3_e4m3_2e90b6f24c3c3552@cask6_myelin@@YA?AW4Status@1@AEAVContext@1@@Z
    ?InitializeDynamicShaders_cutlass3x_common_cutlass3x_conv_fprop_bias_activation_swish_resadd_sm100_tensorop_256x256x32_e4m3_e4m3_f32_f16_f16_23bfd58a739b4616@cask6_myelin@@YA?AW4Status@1@AEAVContext@1@@Z
    ?InitializeDynamicShaders_cutlass3x_common_cutlass3x_conv_fprop_bias_activation_swish_resadd_sm100_tensorop_256x256x32_e4m3_e4m3_f32_f16_f16_cb773c147e0bbbb1@cask6_myelin@@YA?AW4Status@1@AEAVContext@1@@Z
    ?InitializeDynamicShaders_cutlass3x_common_cutlass3x_conv_fprop_bias_activation_swish_resadd_sm100_tensorop_256x256x32_e4m3_e4m3_f32_f32_f32_577429f80acb256@cask6_myelin@@YA?AW4Status@1@AEAVContext@1@@Z
    ?InitializeDynamicShaders_cutlass3x_common_cutlass3x_conv_fprop_bias_activation_swish_resadd_sm100_tensorop_256x256x32_e4m3_e4m3_f32_f32_f32_ec6bcc0934273757@cask6_myelin@@YA?AW4Status@1@AEAVContext@1@@Z
    ?InitializeDynamicShaders_cutlass3x_common_cutlass3x_conv_fprop_bias_activation_swish_resadd_sm100_tensorop_256x256x32_s8_s8_s32_f16_f16_9ffcd81b4ffc7cea@cask6_myelin@@YA?AW4Status@1@AEAVContext@1@@Z
    ?InitializeDynamicShaders_cutlass3x_common_cutlass3x_conv_fprop_bias_activation_swish_resadd_sm100_tensorop_256x256x32_s8_s8_s32_f32_f32_e8211bc637326984@cask6_myelin@@YA?AW4Status@1@AEAVContext@1@@Z
    ?InitializeDynamicShaders_cutlass3x_common_cutlass3x_conv_fprop_bias_activation_swish_resadd_sm100_tensorop_256x256x32_s8_s8_s32_s8_s8_517456c3973fdb86@cask6_myelin@@YA?AW4Status@1@AEAVContext@1@@Z
    ?InitializeDynamicShaders_cutlass3x_common_cutlass3x_conv_fprop_bias_activation_swish_resadd_sm100_tensorop_256x64x16_bf16_bf16_f32_bf16_bf16_20f1a362f41f8e0a@cask6_myelin@@YA?AW4Status@1@AEAVContext@1@@Z
    ?InitializeDynamicShaders_cutlass3x_common_cutlass3x_conv_fprop_bias_activation_swish_resadd_sm100_tensorop_256x64x16_f16_f16_f16_f16_f16_e99c625781d80243@cask6_myelin@@YA?AW4Status@1@AEAVContext@1@@Z
    ?InitializeDynamicShaders_cutlass3x_common_cutlass3x_conv_fprop_bias_activation_swish_resadd_sm100_tensorop_256x64x16_f16_f16_f32_f16_f16_214ae84d89e6926b@cask6_myelin@@YA?AW4Status@1@AEAVContext@1@@Z
    ?InitializeDynamicShaders_cutlass3x_common_cutlass3x_conv_fprop_bias_activation_swish_resadd_sm100_tensorop_256x64x32_e4m3_e4m3_f32_bf16_bf16_a388ea680e4ef2d8@cask6_myelin@@YA?AW4Status@1@AEAVContext@1@@Z
    ?InitializeDynamicShaders_cutlass3x_common_cutlass3x_conv_fprop_bias_activation_swish_resadd_sm100_tensorop_256x64x32_e4m3_e4m3_f32_bf16_bf16_db0a5694b8d5947c@cask6_myelin@@YA?AW4Status@1@AEAVContext@1@@Z
    ?InitializeDynamicShaders_cutlass3x_common_cutlass3x_conv_fprop_bias_activation_swish_resadd_sm100_tensorop_256x64x32_e4m3_e4m3_f32_e4m3_e4m3_3280e55c1403d77b@cask6_myelin@@YA?AW4Status@1@AEAVContext@1@@Z
    ?InitializeDynamicShaders_cutlass3x_common_cutlass3x_conv_fprop_bias_activation_swish_resadd_sm100_tensorop_256x64x32_e4m3_e4m3_f32_e4m3_e4m3_e84e686ae7929495@cask6_myelin@@YA?AW4Status@1@AEAVContext@1@@Z
    ?InitializeDynamicShaders_cutlass3x_common_cutlass3x_conv_fprop_bias_activation_swish_resadd_sm100_tensorop_256x64x32_e4m3_e4m3_f32_f16_f16_599c072d8d0c67b0@cask6_myelin@@YA?AW4Status@1@AEAVContext@1@@Z
    ?InitializeDynamicShaders_cutlass3x_common_cutlass3x_conv_fprop_bias_activation_swish_resadd_sm100_tensorop_256x64x32_e4m3_e4m3_f32_f16_f16_bb7e7c24d2c28505@cask6_myelin@@YA?AW4Status@1@AEAVContext@1@@Z
    ?InitializeDynamicShaders_cutlass3x_common_cutlass3x_conv_fprop_bias_activation_swish_resadd_sm100_tensorop_256x64x32_e4m3_e4m3_f32_f32_f32_5d96e91a96faf4fe@cask6_myelin@@YA?AW4Status@1@AEAVContext@1@@Z
    ?InitializeDynamicShaders_cutlass3x_common_cutlass3x_conv_fprop_bias_activation_swish_resadd_sm100_tensorop_256x64x32_e4m3_e4m3_f32_f32_f32_877e2b1d35c76a2@cask6_myelin@@YA?AW4Status@1@AEAVContext@1@@Z
    ?InitializeDynamicShaders_cutlass3x_common_cutlass3x_conv_fprop_bias_activation_swish_resadd_sm100_tensorop_256x64x32_s8_s8_s32_f16_f16_7252a076a1a9f998@cask6_myelin@@YA?AW4Status@1@AEAVContext@1@@Z
    ?InitializeDynamicShaders_cutlass3x_common_cutlass3x_conv_fprop_bias_activation_swish_resadd_sm100_tensorop_256x64x32_s8_s8_s32_f32_f32_68c69e1553982f@cask6_myelin@@YA?AW4Status@1@AEAVContext@1@@Z
    ?InitializeDynamicShaders_cutlass3x_common_cutlass3x_conv_fprop_bias_activation_swish_resadd_sm100_tensorop_256x64x32_s8_s8_s32_s8_s8_213641b916b96add@cask6_myelin@@YA?AW4Status@1@AEAVContext@1@@Z
    ?InitializeDynamicShaders_cutlass3x_common_cutlass3x_conv_fprop_bias_activation_swish_resadd_sm100_tensorop_64x128x16_bf16_bf16_f32_bf16_bf16_478b53af5643b307@cask6_myelin@@YA?AW4Status@1@AEAVContext@1@@Z
    ?InitializeDynamicShaders_cutlass3x_common_cutlass3x_conv_fprop_bias_activation_swish_resadd_sm100_tensorop_64x128x16_f16_f16_f16_f16_f16_5978686bfc71a1c5@cask6_myelin@@YA?AW4Status@1@AEAVContext@1@@Z
    ?InitializeDynamicShaders_cutlass3x_common_cutlass3x_conv_fprop_bias_activation_swish_resadd_sm100_tensorop_64x128x16_f16_f16_f32_f16_f16_63fef9a644f026e3@cask6_myelin@@YA?AW4Status@1@AEAVContext@1@@Z
    ?InitializeDynamicShaders_cutlass3x_common_cutlass3x_conv_fprop_bias_activation_swish_resadd_sm100_tensorop_64x128x32_e4m3_e4m3_f32_bf16_bf16_a3e1d2d724d74463@cask6_myelin@@YA?AW4Status@1@AEAVContext@1@@Z
    ?InitializeDynamicShaders_cutlass3x_common_cutlass3x_conv_fprop_bias_activation_swish_resadd_sm100_tensorop_64x128x32_e4m3_e4m3_f32_bf16_bf16_ae91ba644c6794ed@cask6_myelin@@YA?AW4Status@1@AEAVContext@1@@Z
    ?InitializeDynamicShaders_cutlass3x_common_cutlass3x_conv_fprop_bias_activation_swish_resadd_sm100_tensorop_64x128x32_e4m3_e4m3_f32_e4m3_e4m3_3a092ed0ed6271e5@cask6_myelin@@YA?AW4Status@1@AEAVContext@1@@Z
    ?InitializeDynamicShaders_cutlass3x_common_cutlass3x_conv_fprop_bias_activation_swish_resadd_sm100_tensorop_64x128x32_e4m3_e4m3_f32_e4m3_e4m3_7ff96f391ea46c13@cask6_myelin@@YA?AW4Status@1@AEAVContext@1@@Z
    ?InitializeDynamicShaders_cutlass3x_common_cutlass3x_conv_fprop_bias_activation_swish_resadd_sm100_tensorop_64x128x32_e4m3_e4m3_f32_f16_f16_ac7691ef51d0ea10@cask6_myelin@@YA?AW4Status@1@AEAVContext@1@@Z
    ?InitializeDynamicShaders_cutlass3x_common_cutlass3x_conv_fprop_bias_activation_swish_resadd_sm100_tensorop_64x128x32_e4m3_e4m3_f32_f16_f16_bcbc9bdc292b7ce7@cask6_myelin@@YA?AW4Status@1@AEAVContext@1@@Z
    ?InitializeDynamicShaders_cutlass3x_common_cutlass3x_conv_fprop_bias_activation_swish_resadd_sm100_tensorop_64x128x32_e4m3_e4m3_f32_f32_f32_95077cba40e97d17@cask6_myelin@@YA?AW4Status@1@AEAVContext@1@@Z
    ?InitializeDynamicShaders_cutlass3x_common_cutlass3x_conv_fprop_bias_activation_swish_resadd_sm100_tensorop_64x128x32_e4m3_e4m3_f32_f32_f32_cb67fd737ff08c1d@cask6_myelin@@YA?AW4Status@1@AEAVContext@1@@Z
    ?InitializeDynamicShaders_cutlass3x_common_cutlass3x_conv_fprop_bias_activation_swish_resadd_sm100_tensorop_64x128x32_s8_s8_s32_f16_f16_bf2e3c4d227881c0@cask6_myelin@@YA?AW4Status@1@AEAVContext@1@@Z
    ?InitializeDynamicShaders_cutlass3x_common_cutlass3x_conv_fprop_bias_activation_swish_resadd_sm100_tensorop_64x128x32_s8_s8_s32_f32_f32_6198b2986785e012@cask6_myelin@@YA?AW4Status@1@AEAVContext@1@@Z
    ?InitializeDynamicShaders_cutlass3x_common_cutlass3x_conv_fprop_bias_activation_swish_resadd_sm100_tensorop_64x128x32_s8_s8_s32_s8_s8_b4fda460d066d191@cask6_myelin@@YA?AW4Status@1@AEAVContext@1@@Z
    ?InitializeDynamicShaders_cutlass3x_common_cutlass3x_conv_fprop_bias_activation_swish_resadd_sm100_tensorop_64x256x16_bf16_bf16_f32_bf16_bf16_bddcac2a0e168e25@cask6_myelin@@YA?AW4Status@1@AEAVContext@1@@Z
    ?InitializeDynamicShaders_cutlass3x_common_cutlass3x_conv_fprop_bias_activation_swish_resadd_sm100_tensorop_64x256x16_f16_f16_f16_f16_f16_8b238acb026f92ac@cask6_myelin@@YA?AW4Status@1@AEAVContext@1@@Z
    ?InitializeDynamicShaders_cutlass3x_common_cutlass3x_conv_fprop_bias_activation_swish_resadd_sm100_tensorop_64x256x16_f16_f16_f32_f16_f16_f0e5e8e04b42f197@cask6_myelin@@YA?AW4Status@1@AEAVContext@1@@Z
    ?InitializeDynamicShaders_cutlass3x_common_cutlass3x_conv_fprop_bias_activation_swish_resadd_sm100_tensorop_64x256x32_e4m3_e4m3_f32_bf16_bf16_af07e16825424d58@cask6_myelin@@YA?AW4Status@1@AEAVContext@1@@Z
    ?InitializeDynamicShaders_cutlass3x_common_cutlass3x_conv_fprop_bias_activation_swish_resadd_sm100_tensorop_64x256x32_e4m3_e4m3_f32_bf16_bf16_f38c15bde669f6ca@cask6_myelin@@YA?AW4Status@1@AEAVContext@1@@Z
    ?InitializeDynamicShaders_cutlass3x_common_cutlass3x_conv_fprop_bias_activation_swish_resadd_sm100_tensorop_64x64x16_bf16_bf16_f32_bf16_bf16_24d291ef9a404086@cask6_myelin@@YA?AW4Status@1@AEAVContext@1@@Z
    ?InitializeDynamicShaders_cutlass3x_common_cutlass3x_conv_fprop_bias_activation_swish_resadd_sm100_tensorop_64x64x16_f16_f16_f16_f16_f16_58d54f2a537c8f72@cask6_myelin@@YA?AW4Status@1@AEAVContext@1@@Z
    ?InitializeDynamicShaders_cutlass3x_common_cutlass3x_conv_fprop_bias_activation_swish_resadd_sm100_tensorop_64x64x16_f16_f16_f32_f16_f16_df7d31f5fdd19301@cask6_myelin@@YA?AW4Status@1@AEAVContext@1@@Z
    ?InitializeDynamicShaders_cutlass3x_common_cutlass3x_conv_fprop_bias_activation_swish_resadd_sm100_tensorop_64x64x32_e4m3_e4m3_f32_bf16_bf16_67c6d16005c778e7@cask6_myelin@@YA?AW4Status@1@AEAVContext@1@@Z
    ?InitializeDynamicShaders_cutlass3x_common_cutlass3x_conv_fprop_bias_activation_swish_resadd_sm100_tensorop_64x64x32_e4m3_e4m3_f32_bf16_bf16_a2c707fcfbc4be3f@cask6_myelin@@YA?AW4Status@1@AEAVContext@1@@Z
    ?InitializeDynamicShaders_cutlass3x_common_cutlass3x_conv_fprop_bias_activation_swish_resadd_sm100_tensorop_64x64x32_e4m3_e4m3_f32_e4m3_e4m3_524f5452ef3d86c2@cask6_myelin@@YA?AW4Status@1@AEAVContext@1@@Z
    ?InitializeDynamicShaders_cutlass3x_common_cutlass3x_conv_fprop_bias_activation_swish_resadd_sm100_tensorop_64x64x32_e4m3_e4m3_f32_e4m3_e4m3_c2d5c14b26043258@cask6_myelin@@YA?AW4Status@1@AEAVContext@1@@Z
    ?InitializeDynamicShaders_cutlass3x_common_cutlass3x_conv_fprop_bias_activation_swish_resadd_sm100_tensorop_64x64x32_e4m3_e4m3_f32_f16_f16_3eebc79197747847@cask6_myelin@@YA?AW4Status@1@AEAVContext@1@@Z
    ?InitializeDynamicShaders_cutlass3x_common_cutlass3x_conv_fprop_bias_activation_swish_resadd_sm100_tensorop_64x64x32_e4m3_e4m3_f32_f16_f16_8ce96c52e50bf4b2@cask6_myelin@@YA?AW4Status@1@AEAVContext@1@@Z
    ?InitializeDynamicShaders_cutlass3x_common_cutlass3x_conv_fprop_bias_activation_swish_resadd_sm100_tensorop_64x64x32_e4m3_e4m3_f32_f32_f32_3ae3b2523e676cb0@cask6_myelin@@YA?AW4Status@1@AEAVContext@1@@Z
    ?InitializeDynamicShaders_cutlass3x_common_cutlass3x_conv_fprop_bias_activation_swish_resadd_sm100_tensorop_64x64x32_e4m3_e4m3_f32_f32_f32_9710b87b8a886ecb@cask6_myelin@@YA?AW4Status@1@AEAVContext@1@@Z
    ?InitializeDynamicShaders_cutlass3x_common_cutlass3x_conv_fprop_bias_activation_swish_resadd_sm100_tensorop_64x64x32_s8_s8_s32_f16_f16_efe63a0a3bea5208@cask6_myelin@@YA?AW4Status@1@AEAVContext@1@@Z
    ?InitializeDynamicShaders_cutlass3x_common_cutlass3x_conv_fprop_bias_activation_swish_resadd_sm100_tensorop_64x64x32_s8_s8_s32_f32_f32_8af1533d3c32961a@cask6_myelin@@YA?AW4Status@1@AEAVContext@1@@Z
    ?InitializeDynamicShaders_cutlass3x_common_cutlass3x_conv_fprop_bias_activation_swish_resadd_sm100_tensorop_64x64x32_s8_s8_s32_s8_s8_918821fc16f4f2a8@cask6_myelin@@YA?AW4Status@1@AEAVContext@1@@Z
    ?InitializeDynamicShaders_cutlass3x_common_cutlass3x_conv_fprop_bias_activation_swish_sm100_tensorop_128x128x16_bf16_bf16_f32_bf16_bf16_1666f63c7f2fda43@cask6_myelin@@YA?AW4Status@1@AEAVContext@1@@Z
    ?InitializeDynamicShaders_cutlass3x_common_cutlass3x_conv_fprop_bias_activation_swish_sm100_tensorop_128x128x16_bf16_bf16_f32_bf16_bf16_7130654af0903cc1@cask6_myelin@@YA?AW4Status@1@AEAVContext@1@@Z
    ?InitializeDynamicShaders_cutlass3x_common_cutlass3x_conv_fprop_bias_activation_swish_sm100_tensorop_128x128x16_f16_f16_f16_f16_f16_4a63af14adff724a@cask6_myelin@@YA?AW4Status@1@AEAVContext@1@@Z
    ?InitializeDynamicShaders_cutlass3x_common_cutlass3x_conv_fprop_bias_activation_swish_sm100_tensorop_128x128x16_f16_f16_f16_f16_f16_5e01331d9fd4bb68@cask6_myelin@@YA?AW4Status@1@AEAVContext@1@@Z
    ?InitializeDynamicShaders_cutlass3x_common_cutlass3x_conv_fprop_bias_activation_swish_sm100_tensorop_128x128x16_f16_f16_f32_f16_f16_80bc85acbcc13aba@cask6_myelin@@YA?AW4Status@1@AEAVContext@1@@Z
    ?InitializeDynamicShaders_cutlass3x_common_cutlass3x_conv_fprop_bias_activation_swish_sm100_tensorop_128x128x16_f16_f16_f32_f16_f16_818ef4a7f52a541@cask6_myelin@@YA?AW4Status@1@AEAVContext@1@@Z
    ?InitializeDynamicShaders_cutlass3x_common_cutlass3x_conv_fprop_bias_activation_swish_sm100_tensorop_128x128x32_e4m3_e4m3_f32_bf16_bf16_86dea9b72a423d20@cask6_myelin@@YA?AW4Status@1@AEAVContext@1@@Z
    ?InitializeDynamicShaders_cutlass3x_common_cutlass3x_conv_fprop_bias_activation_swish_sm100_tensorop_128x128x32_e4m3_e4m3_f32_bf16_bf16_d2c7f320c1a3643c@cask6_myelin@@YA?AW4Status@1@AEAVContext@1@@Z
    ?InitializeDynamicShaders_cutlass3x_common_cutlass3x_conv_fprop_bias_activation_swish_sm100_tensorop_128x128x32_e4m3_e4m3_f32_e4m3_e4m3_f0213b5856c751c2@cask6_myelin@@YA?AW4Status@1@AEAVContext@1@@Z
    ?InitializeDynamicShaders_cutlass3x_common_cutlass3x_conv_fprop_bias_activation_swish_sm100_tensorop_128x128x32_e4m3_e4m3_f32_e4m3_e4m3_f8ea61d9106cdae2@cask6_myelin@@YA?AW4Status@1@AEAVContext@1@@Z
    ?InitializeDynamicShaders_cutlass3x_common_cutlass3x_conv_fprop_bias_activation_swish_sm100_tensorop_128x128x32_e4m3_e4m3_f32_f16_f16_9c2365e9d32f9d04@cask6_myelin@@YA?AW4Status@1@AEAVContext@1@@Z
    ?InitializeDynamicShaders_cutlass3x_common_cutlass3x_conv_fprop_bias_activation_swish_sm100_tensorop_128x128x32_e4m3_e4m3_f32_f16_f16_eea48f1c4cc26875@cask6_myelin@@YA?AW4Status@1@AEAVContext@1@@Z
    ?InitializeDynamicShaders_cutlass3x_common_cutlass3x_conv_fprop_bias_activation_swish_sm100_tensorop_128x128x32_e4m3_e4m3_f32_f32_f32_920efac963fce001@cask6_myelin@@YA?AW4Status@1@AEAVContext@1@@Z
    ?InitializeDynamicShaders_cutlass3x_common_cutlass3x_conv_fprop_bias_activation_swish_sm100_tensorop_128x128x32_e4m3_e4m3_f32_f32_f32_b1eba7f57752c9ae@cask6_myelin@@YA?AW4Status@1@AEAVContext@1@@Z
    ?InitializeDynamicShaders_cutlass3x_common_cutlass3x_conv_fprop_bias_activation_swish_sm100_tensorop_128x128x32_s8_s8_s32_f16_f16_5625a7fe57c6444@cask6_myelin@@YA?AW4Status@1@AEAVContext@1@@Z
    ?InitializeDynamicShaders_cutlass3x_common_cutlass3x_conv_fprop_bias_activation_swish_sm100_tensorop_128x128x32_s8_s8_s32_f16_f16_98c37d9c1d5e3899@cask6_myelin@@YA?AW4Status@1@AEAVContext@1@@Z
    ?InitializeDynamicShaders_cutlass3x_common_cutlass3x_conv_fprop_bias_activation_swish_sm100_tensorop_128x128x32_s8_s8_s32_f32_f32_6c7238ef55e11d7e@cask6_myelin@@YA?AW4Status@1@AEAVContext@1@@Z
    ?InitializeDynamicShaders_cutlass3x_common_cutlass3x_conv_fprop_bias_activation_swish_sm100_tensorop_128x128x32_s8_s8_s32_f32_f32_a31a4616a7821ffe@cask6_myelin@@YA?AW4Status@1@AEAVContext@1@@Z
    ?InitializeDynamicShaders_cutlass3x_common_cutlass3x_conv_fprop_bias_activation_swish_sm100_tensorop_128x128x32_s8_s8_s32_s8_s8_6959631bc216be64@cask6_myelin@@YA?AW4Status@1@AEAVContext@1@@Z
    ?InitializeDynamicShaders_cutlass3x_common_cutlass3x_conv_fprop_bias_activation_swish_sm100_tensorop_128x128x32_s8_s8_s32_s8_s8_cdc043b02754c517@cask6_myelin@@YA?AW4Status@1@AEAVContext@1@@Z
    ?InitializeDynamicShaders_cutlass3x_common_cutlass3x_conv_fprop_bias_activation_swish_sm100_tensorop_128x256x16_bf16_bf16_f32_bf16_bf16_1feb928c8337d3af@cask6_myelin@@YA?AW4Status@1@AEAVContext@1@@Z
    ?InitializeDynamicShaders_cutlass3x_common_cutlass3x_conv_fprop_bias_activation_swish_sm100_tensorop_128x256x16_bf16_bf16_f32_bf16_bf16_54b79f980876857f@cask6_myelin@@YA?AW4Status@1@AEAVContext@1@@Z
    ?InitializeDynamicShaders_cutlass3x_common_cutlass3x_conv_fprop_bias_activation_swish_sm100_tensorop_128x256x16_f16_f16_f16_f16_f16_204078f0c026e5bd@cask6_myelin@@YA?AW4Status@1@AEAVContext@1@@Z
    ?InitializeDynamicShaders_cutlass3x_common_cutlass3x_conv_fprop_bias_activation_swish_sm100_tensorop_128x256x16_f16_f16_f16_f16_f16_8b15fc30f5207fe0@cask6_myelin@@YA?AW4Status@1@AEAVContext@1@@Z
    ?InitializeDynamicShaders_cutlass3x_common_cutlass3x_conv_fprop_bias_activation_swish_sm100_tensorop_128x256x16_f16_f16_f32_f16_f16_531b16d35c92cb6e@cask6_myelin@@YA?AW4Status@1@AEAVContext@1@@Z
    ?InitializeDynamicShaders_cutlass3x_common_cutlass3x_conv_fprop_bias_activation_swish_sm100_tensorop_128x256x16_f16_f16_f32_f16_f16_7849edff80e3e960@cask6_myelin@@YA?AW4Status@1@AEAVContext@1@@Z
    ?InitializeDynamicShaders_cutlass3x_common_cutlass3x_conv_fprop_bias_activation_swish_sm100_tensorop_128x256x32_e4m3_e4m3_f32_bf16_bf16_b8e1552965658aae@cask6_myelin@@YA?AW4Status@1@AEAVContext@1@@Z
    ?InitializeDynamicShaders_cutlass3x_common_cutlass3x_conv_fprop_bias_activation_swish_sm100_tensorop_128x256x32_e4m3_e4m3_f32_bf16_bf16_eaedea6b6fb129bb@cask6_myelin@@YA?AW4Status@1@AEAVContext@1@@Z
    ?InitializeDynamicShaders_cutlass3x_common_cutlass3x_conv_fprop_bias_activation_swish_sm100_tensorop_128x256x32_e4m3_e4m3_f32_e4m3_e4m3_4beb6c881e6cd057@cask6_myelin@@YA?AW4Status@1@AEAVContext@1@@Z
    ?InitializeDynamicShaders_cutlass3x_common_cutlass3x_conv_fprop_bias_activation_swish_sm100_tensorop_128x256x32_e4m3_e4m3_f32_e4m3_e4m3_7bf4c835d92086de@cask6_myelin@@YA?AW4Status@1@AEAVContext@1@@Z
    ?InitializeDynamicShaders_cutlass3x_common_cutlass3x_conv_fprop_bias_activation_swish_sm100_tensorop_128x256x32_e4m3_e4m3_f32_f16_f16_2875b597c7997ee9@cask6_myelin@@YA?AW4Status@1@AEAVContext@1@@Z
    ?InitializeDynamicShaders_cutlass3x_common_cutlass3x_conv_fprop_bias_activation_swish_sm100_tensorop_128x256x32_e4m3_e4m3_f32_f16_f16_7e22f0e49b963ca3@cask6_myelin@@YA?AW4Status@1@AEAVContext@1@@Z
    ?InitializeDynamicShaders_cutlass3x_common_cutlass3x_conv_fprop_bias_activation_swish_sm100_tensorop_128x256x32_e4m3_e4m3_f32_f32_f32_9385c968cb46d5d3@cask6_myelin@@YA?AW4Status@1@AEAVContext@1@@Z
    ?InitializeDynamicShaders_cutlass3x_common_cutlass3x_conv_fprop_bias_activation_swish_sm100_tensorop_128x256x32_e4m3_e4m3_f32_f32_f32_b65de2ac213393df@cask6_myelin@@YA?AW4Status@1@AEAVContext@1@@Z
    ?InitializeDynamicShaders_cutlass3x_common_cutlass3x_conv_fprop_bias_activation_swish_sm100_tensorop_128x256x32_s8_s8_s32_f16_f16_5f9ee0b57be401e4@cask6_myelin@@YA?AW4Status@1@AEAVContext@1@@Z
    ?InitializeDynamicShaders_cutlass3x_common_cutlass3x_conv_fprop_bias_activation_swish_sm100_tensorop_128x256x32_s8_s8_s32_f16_f16_695fc930babcce29@cask6_myelin@@YA?AW4Status@1@AEAVContext@1@@Z
    ?InitializeDynamicShaders_cutlass3x_common_cutlass3x_conv_fprop_bias_activation_swish_sm100_tensorop_128x256x32_s8_s8_s32_f32_f32_49b836896674d17c@cask6_myelin@@YA?AW4Status@1@AEAVContext@1@@Z
    ?InitializeDynamicShaders_cutlass3x_common_cutlass3x_conv_fprop_bias_activation_swish_sm100_tensorop_128x256x32_s8_s8_s32_f32_f32_cb1512dd5240bf2c@cask6_myelin@@YA?AW4Status@1@AEAVContext@1@@Z
    ?InitializeDynamicShaders_cutlass3x_common_cutlass3x_conv_fprop_bias_activation_swish_sm100_tensorop_128x256x32_s8_s8_s32_s8_s8_c1fe392a34361a33@cask6_myelin@@YA?AW4Status@1@AEAVContext@1@@Z
    ?InitializeDynamicShaders_cutlass3x_common_cutlass3x_conv_fprop_bias_activation_swish_sm100_tensorop_128x256x32_s8_s8_s32_s8_s8_cada3522893965d3@cask6_myelin@@YA?AW4Status@1@AEAVContext@1@@Z
    ?InitializeDynamicShaders_cutlass3x_common_cutlass3x_conv_fprop_bias_activation_swish_sm100_tensorop_128x64x16_bf16_bf16_f32_bf16_bf16_2ceeb6f6cf70fb59@cask6_myelin@@YA?AW4Status@1@AEAVContext@1@@Z
    ?InitializeDynamicShaders_cutlass3x_common_cutlass3x_conv_fprop_bias_activation_swish_sm100_tensorop_128x64x16_bf16_bf16_f32_bf16_bf16_a53ccc49e2dd3b6f@cask6_myelin@@YA?AW4Status@1@AEAVContext@1@@Z
    ?InitializeDynamicShaders_cutlass3x_common_cutlass3x_conv_fprop_bias_activation_swish_sm100_tensorop_128x64x16_f16_f16_f16_f16_f16_29c7cfbf5e09842d@cask6_myelin@@YA?AW4Status@1@AEAVContext@1@@Z
    ?InitializeDynamicShaders_cutlass3x_common_cutlass3x_conv_fprop_bias_activation_swish_sm100_tensorop_128x64x16_f16_f16_f16_f16_f16_efbcf76bbd8f0581@cask6_myelin@@YA?AW4Status@1@AEAVContext@1@@Z
    ?InitializeDynamicShaders_cutlass3x_common_cutlass3x_conv_fprop_bias_activation_swish_sm100_tensorop_128x64x16_f16_f16_f32_f16_f16_635b1685bb521c69@cask6_myelin@@YA?AW4Status@1@AEAVContext@1@@Z
    ?InitializeDynamicShaders_cutlass3x_common_cutlass3x_conv_fprop_bias_activation_swish_sm100_tensorop_128x64x16_f16_f16_f32_f16_f16_c8d5e49828562914@cask6_myelin@@YA?AW4Status@1@AEAVContext@1@@Z
    ?InitializeDynamicShaders_cutlass3x_common_cutlass3x_conv_fprop_bias_activation_swish_sm100_tensorop_128x64x32_e4m3_e4m3_f32_bf16_bf16_66528e6340879616@cask6_myelin@@YA?AW4Status@1@AEAVContext@1@@Z
    ?InitializeDynamicShaders_cutlass3x_common_cutlass3x_conv_fprop_bias_activation_swish_sm100_tensorop_128x64x32_e4m3_e4m3_f32_bf16_bf16_783a735821f985bd@cask6_myelin@@YA?AW4Status@1@AEAVContext@1@@Z
    ?InitializeDynamicShaders_cutlass3x_common_cutlass3x_conv_fprop_bias_activation_swish_sm100_tensorop_128x64x32_e4m3_e4m3_f32_e4m3_e4m3_47ce5dc8d157833b@cask6_myelin@@YA?AW4Status@1@AEAVContext@1@@Z
    ?InitializeDynamicShaders_cutlass3x_common_cutlass3x_conv_fprop_bias_activation_swish_sm100_tensorop_128x64x32_e4m3_e4m3_f32_e4m3_e4m3_88dc74e23d09898a@cask6_myelin@@YA?AW4Status@1@AEAVContext@1@@Z
    ?InitializeDynamicShaders_cutlass3x_common_cutlass3x_conv_fprop_bias_activation_swish_sm100_tensorop_128x64x32_e4m3_e4m3_f32_f16_f16_37d3ddd8b52e0f71@cask6_myelin@@YA?AW4Status@1@AEAVContext@1@@Z
    ?InitializeDynamicShaders_cutlass3x_common_cutlass3x_conv_fprop_bias_activation_swish_sm100_tensorop_128x64x32_e4m3_e4m3_f32_f16_f16_fde5e78773a66075@cask6_myelin@@YA?AW4Status@1@AEAVContext@1@@Z
    ?InitializeDynamicShaders_cutlass3x_common_cutlass3x_conv_fprop_bias_activation_swish_sm100_tensorop_128x64x32_e4m3_e4m3_f32_f32_f32_71b566973ec51255@cask6_myelin@@YA?AW4Status@1@AEAVContext@1@@Z
    ?InitializeDynamicShaders_cutlass3x_common_cutlass3x_conv_fprop_bias_activation_swish_sm100_tensorop_128x64x32_e4m3_e4m3_f32_f32_f32_964f5323bfb5e365@cask6_myelin@@YA?AW4Status@1@AEAVContext@1@@Z
    ?InitializeDynamicShaders_cutlass3x_common_cutlass3x_conv_fprop_bias_activation_swish_sm100_tensorop_128x64x32_s8_s8_s32_f16_f16_41f980c07aa8cb3b@cask6_myelin@@YA?AW4Status@1@AEAVContext@1@@Z
    ?InitializeDynamicShaders_cutlass3x_common_cutlass3x_conv_fprop_bias_activation_swish_sm100_tensorop_128x64x32_s8_s8_s32_f16_f16_f4cebd9ebadac349@cask6_myelin@@YA?AW4Status@1@AEAVContext@1@@Z
    ?InitializeDynamicShaders_cutlass3x_common_cutlass3x_conv_fprop_bias_activation_swish_sm100_tensorop_128x64x32_s8_s8_s32_f32_f32_6297a3074484e9e7@cask6_myelin@@YA?AW4Status@1@AEAVContext@1@@Z
    ?InitializeDynamicShaders_cutlass3x_common_cutlass3x_conv_fprop_bias_activation_swish_sm100_tensorop_128x64x32_s8_s8_s32_f32_f32_f5403f0c28507cf7@cask6_myelin@@YA?AW4Status@1@AEAVContext@1@@Z
    ?InitializeDynamicShaders_cutlass3x_common_cutlass3x_conv_fprop_bias_activation_swish_sm100_tensorop_128x64x32_s8_s8_s32_s8_s8_27879e5f1699c4a4@cask6_myelin@@YA?AW4Status@1@AEAVContext@1@@Z
    ?InitializeDynamicShaders_cutlass3x_common_cutlass3x_conv_fprop_bias_activation_swish_sm100_tensorop_128x64x32_s8_s8_s32_s8_s8_d0cea3aee142def1@cask6_myelin@@YA?AW4Status@1@AEAVContext@1@@Z
    ?InitializeDynamicShaders_cutlass3x_common_cutlass3x_conv_fprop_bias_activation_swish_sm100_tensorop_256x128x16_bf16_bf16_f32_bf16_bf16_d670d23e703d88c1@cask6_myelin@@YA?AW4Status@1@AEAVContext@1@@Z
    ?InitializeDynamicShaders_cutlass3x_common_cutlass3x_conv_fprop_bias_activation_swish_sm100_tensorop_256x128x16_f16_f16_f16_f16_f16_2921d15a3c69c01a@cask6_myelin@@YA?AW4Status@1@AEAVContext@1@@Z
    ?InitializeDynamicShaders_cutlass3x_common_cutlass3x_conv_fprop_bias_activation_swish_sm100_tensorop_256x128x16_f16_f16_f32_f16_f16_4fad2dd2ae0b8d92@cask6_myelin@@YA?AW4Status@1@AEAVContext@1@@Z
    ?InitializeDynamicShaders_cutlass3x_common_cutlass3x_conv_fprop_bias_activation_swish_sm100_tensorop_256x128x32_e4m3_e4m3_f32_bf16_bf16_ab6b0f2f7a68e118@cask6_myelin@@YA?AW4Status@1@AEAVContext@1@@Z
    ?InitializeDynamicShaders_cutlass3x_common_cutlass3x_conv_fprop_bias_activation_swish_sm100_tensorop_256x128x32_e4m3_e4m3_f32_e4m3_e4m3_f89f193c4c3b9e7c@cask6_myelin@@YA?AW4Status@1@AEAVContext@1@@Z
    ?InitializeDynamicShaders_cutlass3x_common_cutlass3x_conv_fprop_bias_activation_swish_sm100_tensorop_256x128x32_e4m3_e4m3_f32_f16_f16_205c67dc2b630629@cask6_myelin@@YA?AW4Status@1@AEAVContext@1@@Z
    ?InitializeDynamicShaders_cutlass3x_common_cutlass3x_conv_fprop_bias_activation_swish_sm100_tensorop_256x128x32_e4m3_e4m3_f32_f32_f32_69776b827405e4@cask6_myelin@@YA?AW4Status@1@AEAVContext@1@@Z
    ?InitializeDynamicShaders_cutlass3x_common_cutlass3x_conv_fprop_bias_activation_swish_sm100_tensorop_256x128x32_s8_s8_s32_f16_f16_6b9387b5c7742019@cask6_myelin@@YA?AW4Status@1@AEAVContext@1@@Z
    ?InitializeDynamicShaders_cutlass3x_common_cutlass3x_conv_fprop_bias_activation_swish_sm100_tensorop_256x128x32_s8_s8_s32_f32_f32_ba6ba46a9b34fbec@cask6_myelin@@YA?AW4Status@1@AEAVContext@1@@Z
    ?InitializeDynamicShaders_cutlass3x_common_cutlass3x_conv_fprop_bias_activation_swish_sm100_tensorop_256x128x32_s8_s8_s32_s8_s8_17c253bd2ba5d85@cask6_myelin@@YA?AW4Status@1@AEAVContext@1@@Z
    ?InitializeDynamicShaders_cutlass3x_common_cutlass3x_conv_fprop_bias_activation_swish_sm100_tensorop_256x256x16_bf16_bf16_f32_bf16_bf16_f4e7f1d9ec647163@cask6_myelin@@YA?AW4Status@1@AEAVContext@1@@Z
    ?InitializeDynamicShaders_cutlass3x_common_cutlass3x_conv_fprop_bias_activation_swish_sm100_tensorop_256x256x16_f16_f16_f16_f16_f16_61a972b709a2565c@cask6_myelin@@YA?AW4Status@1@AEAVContext@1@@Z
    ?InitializeDynamicShaders_cutlass3x_common_cutlass3x_conv_fprop_bias_activation_swish_sm100_tensorop_256x256x16_f16_f16_f32_f16_f16_f9dbde50a13a21fb@cask6_myelin@@YA?AW4Status@1@AEAVContext@1@@Z
    ?InitializeDynamicShaders_cutlass3x_common_cutlass3x_conv_fprop_bias_activation_swish_sm100_tensorop_256x256x32_e4m3_e4m3_f32_bf16_bf16_954dc1b7f54beb2d@cask6_myelin@@YA?AW4Status@1@AEAVContext@1@@Z
    ?InitializeDynamicShaders_cutlass3x_common_cutlass3x_conv_fprop_bias_activation_swish_sm100_tensorop_256x256x32_e4m3_e4m3_f32_e4m3_e4m3_1955139b1763d741@cask6_myelin@@YA?AW4Status@1@AEAVContext@1@@Z
    ?InitializeDynamicShaders_cutlass3x_common_cutlass3x_conv_fprop_bias_activation_swish_sm100_tensorop_256x256x32_e4m3_e4m3_f32_f16_f16_ed1cd402662c62b5@cask6_myelin@@YA?AW4Status@1@AEAVContext@1@@Z
    ?InitializeDynamicShaders_cutlass3x_common_cutlass3x_conv_fprop_bias_activation_swish_sm100_tensorop_256x256x32_e4m3_e4m3_f32_f32_f32_2e8c197aa657bb1f@cask6_myelin@@YA?AW4Status@1@AEAVContext@1@@Z
    ?InitializeDynamicShaders_cutlass3x_common_cutlass3x_conv_fprop_bias_activation_swish_sm100_tensorop_256x256x32_s8_s8_s32_f16_f16_75db4c0f503c14a0@cask6_myelin@@YA?AW4Status@1@AEAVContext@1@@Z
    ?InitializeDynamicShaders_cutlass3x_common_cutlass3x_conv_fprop_bias_activation_swish_sm100_tensorop_256x256x32_s8_s8_s32_f32_f32_e48ed7271828fc54@cask6_myelin@@YA?AW4Status@1@AEAVContext@1@@Z
    ?InitializeDynamicShaders_cutlass3x_common_cutlass3x_conv_fprop_bias_activation_swish_sm100_tensorop_256x256x32_s8_s8_s32_s8_s8_7578b23e783203@cask6_myelin@@YA?AW4Status@1@AEAVContext@1@@Z
    ?InitializeDynamicShaders_cutlass3x_common_cutlass3x_conv_fprop_bias_activation_swish_sm100_tensorop_256x64x16_bf16_bf16_f32_bf16_bf16_89cf55d0eec911d4@cask6_myelin@@YA?AW4Status@1@AEAVContext@1@@Z
    ?InitializeDynamicShaders_cutlass3x_common_cutlass3x_conv_fprop_bias_activation_swish_sm100_tensorop_256x64x16_f16_f16_f16_f16_f16_484ed3aadebd774e@cask6_myelin@@YA?AW4Status@1@AEAVContext@1@@Z
    ?InitializeDynamicShaders_cutlass3x_common_cutlass3x_conv_fprop_bias_activation_swish_sm100_tensorop_256x64x16_f16_f16_f32_f16_f16_9711fa0ebde4a7e5@cask6_myelin@@YA?AW4Status@1@AEAVContext@1@@Z
    ?InitializeDynamicShaders_cutlass3x_common_cutlass3x_conv_fprop_bias_activation_swish_sm100_tensorop_256x64x32_e4m3_e4m3_f32_bf16_bf16_82944ded831bec8f@cask6_myelin@@YA?AW4Status@1@AEAVContext@1@@Z
    ?InitializeDynamicShaders_cutlass3x_common_cutlass3x_conv_fprop_bias_activation_swish_sm100_tensorop_256x64x32_e4m3_e4m3_f32_e4m3_e4m3_c64d5fe107d919f3@cask6_myelin@@YA?AW4Status@1@AEAVContext@1@@Z
    ?InitializeDynamicShaders_cutlass3x_common_cutlass3x_conv_fprop_bias_activation_swish_sm100_tensorop_256x64x32_e4m3_e4m3_f32_f16_f16_6b2de29447af1b0d@cask6_myelin@@YA?AW4Status@1@AEAVContext@1@@Z
    ?InitializeDynamicShaders_cutlass3x_common_cutlass3x_conv_fprop_bias_activation_swish_sm100_tensorop_256x64x32_e4m3_e4m3_f32_f32_f32_9621108529c1f211@cask6_myelin@@YA?AW4Status@1@AEAVContext@1@@Z
    ?InitializeDynamicShaders_cutlass3x_common_cutlass3x_conv_fprop_bias_activation_swish_sm100_tensorop_256x64x32_s8_s8_s32_f16_f16_4731dc308d12206a@cask6_myelin@@YA?AW4Status@1@AEAVContext@1@@Z
    ?InitializeDynamicShaders_cutlass3x_common_cutlass3x_conv_fprop_bias_activation_swish_sm100_tensorop_256x64x32_s8_s8_s32_f32_f32_a92441e1d922a9e9@cask6_myelin@@YA?AW4Status@1@AEAVContext@1@@Z
    ?InitializeDynamicShaders_cutlass3x_common_cutlass3x_conv_fprop_bias_activation_swish_sm100_tensorop_256x64x32_s8_s8_s32_s8_s8_31890aa3bc6ccae2@cask6_myelin@@YA?AW4Status@1@AEAVContext@1@@Z
    ?InitializeDynamicShaders_cutlass3x_common_cutlass3x_conv_fprop_bias_activation_swish_sm100_tensorop_64x128x16_bf16_bf16_f32_bf16_bf16_71033ab835b5dd2b@cask6_myelin@@YA?AW4Status@1@AEAVContext@1@@Z
    ?InitializeDynamicShaders_cutlass3x_common_cutlass3x_conv_fprop_bias_activation_swish_sm100_tensorop_64x128x16_f16_f16_f16_f16_f16_e4944f1ee6654981@cask6_myelin@@YA?AW4Status@1@AEAVContext@1@@Z
    ?InitializeDynamicShaders_cutlass3x_common_cutlass3x_conv_fprop_bias_activation_swish_sm100_tensorop_64x128x16_f16_f16_f32_f16_f16_9a13fefa4d31b238@cask6_myelin@@YA?AW4Status@1@AEAVContext@1@@Z
    ?InitializeDynamicShaders_cutlass3x_common_cutlass3x_conv_fprop_bias_activation_swish_sm100_tensorop_64x128x32_e4m3_e4m3_f32_bf16_bf16_231051e77ae4b588@cask6_myelin@@YA?AW4Status@1@AEAVContext@1@@Z
    ?InitializeDynamicShaders_cutlass3x_common_cutlass3x_conv_fprop_bias_activation_swish_sm100_tensorop_64x128x32_e4m3_e4m3_f32_e4m3_e4m3_dd3e4227f6009615@cask6_myelin@@YA?AW4Status@1@AEAVContext@1@@Z
    ?InitializeDynamicShaders_cutlass3x_common_cutlass3x_conv_fprop_bias_activation_swish_sm100_tensorop_64x128x32_e4m3_e4m3_f32_f16_f16_3ae2ce4468090b97@cask6_myelin@@YA?AW4Status@1@AEAVContext@1@@Z
    ?InitializeDynamicShaders_cutlass3x_common_cutlass3x_conv_fprop_bias_activation_swish_sm100_tensorop_64x128x32_e4m3_e4m3_f32_f32_f32_62904684d9fab08a@cask6_myelin@@YA?AW4Status@1@AEAVContext@1@@Z
    ?InitializeDynamicShaders_cutlass3x_common_cutlass3x_conv_fprop_bias_activation_swish_sm100_tensorop_64x128x32_s8_s8_s32_f16_f16_cf9639d8380a7246@cask6_myelin@@YA?AW4Status@1@AEAVContext@1@@Z
    ?InitializeDynamicShaders_cutlass3x_common_cutlass3x_conv_fprop_bias_activation_swish_sm100_tensorop_64x128x32_s8_s8_s32_f32_f32_f92a754c42b978d2@cask6_myelin@@YA?AW4Status@1@AEAVContext@1@@Z
    ?InitializeDynamicShaders_cutlass3x_common_cutlass3x_conv_fprop_bias_activation_swish_sm100_tensorop_64x128x32_s8_s8_s32_s8_s8_9889fc71c23568bb@cask6_myelin@@YA?AW4Status@1@AEAVContext@1@@Z
    ?InitializeDynamicShaders_cutlass3x_common_cutlass3x_conv_fprop_bias_activation_swish_sm100_tensorop_64x256x16_bf16_bf16_f32_bf16_bf16_257e4825a3344600@cask6_myelin@@YA?AW4Status@1@AEAVContext@1@@Z
    ?InitializeDynamicShaders_cutlass3x_common_cutlass3x_conv_fprop_bias_activation_swish_sm100_tensorop_64x256x16_f16_f16_f16_f16_f16_332657f86fbd6208@cask6_myelin@@YA?AW4Status@1@AEAVContext@1@@Z
    ?InitializeDynamicShaders_cutlass3x_common_cutlass3x_conv_fprop_bias_activation_swish_sm100_tensorop_64x256x16_f16_f16_f32_f16_f16_2043452e80f84182@cask6_myelin@@YA?AW4Status@1@AEAVContext@1@@Z
    ?InitializeDynamicShaders_cutlass3x_common_cutlass3x_conv_fprop_bias_activation_swish_sm100_tensorop_64x256x32_e4m3_e4m3_f32_bf16_bf16_d89ef683b4d508c2@cask6_myelin@@YA?AW4Status@1@AEAVContext@1@@Z
    ?InitializeDynamicShaders_cutlass3x_common_cutlass3x_conv_fprop_bias_activation_swish_sm100_tensorop_64x64x16_bf16_bf16_f32_bf16_bf16_a815442b0af2907b@cask6_myelin@@YA?AW4Status@1@AEAVContext@1@@Z
    ?InitializeDynamicShaders_cutlass3x_common_cutlass3x_conv_fprop_bias_activation_swish_sm100_tensorop_64x64x16_f16_f16_f16_f16_f16_4d19525a0d39143@cask6_myelin@@YA?AW4Status@1@AEAVContext@1@@Z
    ?InitializeDynamicShaders_cutlass3x_common_cutlass3x_conv_fprop_bias_activation_swish_sm100_tensorop_64x64x16_f16_f16_f32_f16_f16_1dfedaed4386017f@cask6_myelin@@YA?AW4Status@1@AEAVContext@1@@Z
    ?InitializeDynamicShaders_cutlass3x_common_cutlass3x_conv_fprop_bias_activation_swish_sm100_tensorop_64x64x32_e4m3_e4m3_f32_bf16_bf16_c4f10a3195496294@cask6_myelin@@YA?AW4Status@1@AEAVContext@1@@Z
    ?InitializeDynamicShaders_cutlass3x_common_cutlass3x_conv_fprop_bias_activation_swish_sm100_tensorop_64x64x32_e4m3_e4m3_f32_e4m3_e4m3_b508207541a5f2e8@cask6_myelin@@YA?AW4Status@1@AEAVContext@1@@Z
    ?InitializeDynamicShaders_cutlass3x_common_cutlass3x_conv_fprop_bias_activation_swish_sm100_tensorop_64x64x32_e4m3_e4m3_f32_f16_f16_36d71018d9233baa@cask6_myelin@@YA?AW4Status@1@AEAVContext@1@@Z
    ?InitializeDynamicShaders_cutlass3x_common_cutlass3x_conv_fprop_bias_activation_swish_sm100_tensorop_64x64x32_e4m3_e4m3_f32_f32_f32_53b99cd145137053@cask6_myelin@@YA?AW4Status@1@AEAVContext@1@@Z
    ?InitializeDynamicShaders_cutlass3x_common_cutlass3x_conv_fprop_bias_activation_swish_sm100_tensorop_64x64x32_s8_s8_s32_f16_f16_3ec2d71a95403c72@cask6_myelin@@YA?AW4Status@1@AEAVContext@1@@Z
    ?InitializeDynamicShaders_cutlass3x_common_cutlass3x_conv_fprop_bias_activation_swish_sm100_tensorop_64x64x32_s8_s8_s32_f32_f32_8f8ba77a0087406@cask6_myelin@@YA?AW4Status@1@AEAVContext@1@@Z
    ?InitializeDynamicShaders_cutlass3x_common_cutlass3x_conv_fprop_bias_activation_swish_sm100_tensorop_64x64x32_s8_s8_s32_s8_s8_87695d63dc90904b@cask6_myelin@@YA?AW4Status@1@AEAVContext@1@@Z
    ?InitializeDynamicShaders_cutlass3x_common_cutlass3x_deconv_sm100_tensorop_128x128x16_bf16_bf16_f32_bf16_bf16_b94bad0aaefa6c77@cask6_myelin@@YA?AW4Status@1@AEAVContext@1@@Z
    ?InitializeDynamicShaders_cutlass3x_common_cutlass3x_deconv_sm100_tensorop_128x128x16_bf16_bf16_f32_bf16_bf16_f5cff945eeaeac8f@cask6_myelin@@YA?AW4Status@1@AEAVContext@1@@Z
    ?InitializeDynamicShaders_cutlass3x_common_cutlass3x_deconv_sm100_tensorop_128x128x16_f16_f16_f16_f16_f16_1ff83403d0d4805a@cask6_myelin@@YA?AW4Status@1@AEAVContext@1@@Z
    ?InitializeDynamicShaders_cutlass3x_common_cutlass3x_deconv_sm100_tensorop_128x128x16_f16_f16_f16_f16_f16_2fa1542aedcd010f@cask6_myelin@@YA?AW4Status@1@AEAVContext@1@@Z
    ?InitializeDynamicShaders_cutlass3x_common_cutlass3x_deconv_sm100_tensorop_128x128x16_f16_f16_f32_f16_f16_148480d597466c9f@cask6_myelin@@YA?AW4Status@1@AEAVContext@1@@Z
    ?InitializeDynamicShaders_cutlass3x_common_cutlass3x_deconv_sm100_tensorop_128x128x16_f16_f16_f32_f16_f16_ca3eb760d19fd46b@cask6_myelin@@YA?AW4Status@1@AEAVContext@1@@Z
    ?InitializeDynamicShaders_cutlass3x_common_cutlass3x_deconv_sm100_tensorop_128x128x32_s8_s8_s32_f16_f16_461334b1cbbcfcd@cask6_myelin@@YA?AW4Status@1@AEAVContext@1@@Z
    ?InitializeDynamicShaders_cutlass3x_common_cutlass3x_deconv_sm100_tensorop_128x128x32_s8_s8_s32_f16_f16_b0f20da9ccb61512@cask6_myelin@@YA?AW4Status@1@AEAVContext@1@@Z
    ?InitializeDynamicShaders_cutlass3x_common_cutlass3x_deconv_sm100_tensorop_128x128x32_s8_s8_s32_f32_f32_a73f7b9285ba9f94@cask6_myelin@@YA?AW4Status@1@AEAVContext@1@@Z
    ?InitializeDynamicShaders_cutlass3x_common_cutlass3x_deconv_sm100_tensorop_128x128x32_s8_s8_s32_f32_f32_d604dfddab13ab91@cask6_myelin@@YA?AW4Status@1@AEAVContext@1@@Z
    ?InitializeDynamicShaders_cutlass3x_common_cutlass3x_deconv_sm100_tensorop_128x128x32_s8_s8_s32_s8_s8_2adbb225c1aa890b@cask6_myelin@@YA?AW4Status@1@AEAVContext@1@@Z
    ?InitializeDynamicShaders_cutlass3x_common_cutlass3x_deconv_sm100_tensorop_128x128x32_s8_s8_s32_s8_s8_462b5e9a4423319b@cask6_myelin@@YA?AW4Status@1@AEAVContext@1@@Z
    ?InitializeDynamicShaders_cutlass3x_common_cutlass3x_deconv_sm100_tensorop_128x128x8_f32_f32_f32_f32_f32_460c64879a68bd6e@cask6_myelin@@YA?AW4Status@1@AEAVContext@1@@Z
    ?InitializeDynamicShaders_cutlass3x_common_cutlass3x_deconv_sm100_tensorop_128x128x8_f32_f32_f32_f32_f32_6669bb128ed96d15@cask6_myelin@@YA?AW4Status@1@AEAVContext@1@@Z
    ?InitializeDynamicShaders_cutlass3x_common_cutlass3x_deconv_sm100_tensorop_128x256x16_bf16_bf16_f32_bf16_bf16_74b72469026cf7b1@cask6_myelin@@YA?AW4Status@1@AEAVContext@1@@Z
    ?InitializeDynamicShaders_cutlass3x_common_cutlass3x_deconv_sm100_tensorop_128x256x16_bf16_bf16_f32_bf16_bf16_fc2e7e52b05ac50e@cask6_myelin@@YA?AW4Status@1@AEAVContext@1@@Z
    ?InitializeDynamicShaders_cutlass3x_common_cutlass3x_deconv_sm100_tensorop_128x256x16_f16_f16_f16_f16_f16_16e7d20af0c2a184@cask6_myelin@@YA?AW4Status@1@AEAVContext@1@@Z
    ?InitializeDynamicShaders_cutlass3x_common_cutlass3x_deconv_sm100_tensorop_128x256x16_f16_f16_f16_f16_f16_7eb4112872b6a452@cask6_myelin@@YA?AW4Status@1@AEAVContext@1@@Z
    ?InitializeDynamicShaders_cutlass3x_common_cutlass3x_deconv_sm100_tensorop_128x256x16_f16_f16_f32_f16_f16_211dee59a720c104@cask6_myelin@@YA?AW4Status@1@AEAVContext@1@@Z
    ?InitializeDynamicShaders_cutlass3x_common_cutlass3x_deconv_sm100_tensorop_128x256x16_f16_f16_f32_f16_f16_30a571740190aa5d@cask6_myelin@@YA?AW4Status@1@AEAVContext@1@@Z
    ?InitializeDynamicShaders_cutlass3x_common_cutlass3x_deconv_sm100_tensorop_128x256x32_s8_s8_s32_f16_f16_6c930ba47726147d@cask6_myelin@@YA?AW4Status@1@AEAVContext@1@@Z
    ?InitializeDynamicShaders_cutlass3x_common_cutlass3x_deconv_sm100_tensorop_128x256x32_s8_s8_s32_f16_f16_79fdddf664692b0b@cask6_myelin@@YA?AW4Status@1@AEAVContext@1@@Z
    ?InitializeDynamicShaders_cutlass3x_common_cutlass3x_deconv_sm100_tensorop_128x256x32_s8_s8_s32_f32_f32_4af64809718c9575@cask6_myelin@@YA?AW4Status@1@AEAVContext@1@@Z
    ?InitializeDynamicShaders_cutlass3x_common_cutlass3x_deconv_sm100_tensorop_128x256x32_s8_s8_s32_f32_f32_b41fa8f949c99809@cask6_myelin@@YA?AW4Status@1@AEAVContext@1@@Z
    ?InitializeDynamicShaders_cutlass3x_common_cutlass3x_deconv_sm100_tensorop_128x256x32_s8_s8_s32_s8_s8_56554973b5f6c53f@cask6_myelin@@YA?AW4Status@1@AEAVContext@1@@Z
    ?InitializeDynamicShaders_cutlass3x_common_cutlass3x_deconv_sm100_tensorop_128x256x32_s8_s8_s32_s8_s8_58c8b5366a7dd433@cask6_myelin@@YA?AW4Status@1@AEAVContext@1@@Z
    ?InitializeDynamicShaders_cutlass3x_common_cutlass3x_deconv_sm100_tensorop_128x256x8_f32_f32_f32_f32_f32_a21bdafa578f5c78@cask6_myelin@@YA?AW4Status@1@AEAVContext@1@@Z
    ?InitializeDynamicShaders_cutlass3x_common_cutlass3x_deconv_sm100_tensorop_128x256x8_f32_f32_f32_f32_f32_ca23690f830aae67@cask6_myelin@@YA?AW4Status@1@AEAVContext@1@@Z
    ?InitializeDynamicShaders_cutlass3x_common_cutlass3x_deconv_sm100_tensorop_128x64x16_bf16_bf16_f32_bf16_bf16_561ccc08d066e62b@cask6_myelin@@YA?AW4Status@1@AEAVContext@1@@Z
    ?InitializeDynamicShaders_cutlass3x_common_cutlass3x_deconv_sm100_tensorop_128x64x16_bf16_bf16_f32_bf16_bf16_dc1cc5889899c810@cask6_myelin@@YA?AW4Status@1@AEAVContext@1@@Z
    ?InitializeDynamicShaders_cutlass3x_common_cutlass3x_deconv_sm100_tensorop_128x64x16_f16_f16_f16_f16_f16_ae8390b7a598860b@cask6_myelin@@YA?AW4Status@1@AEAVContext@1@@Z
    ?InitializeDynamicShaders_cutlass3x_common_cutlass3x_deconv_sm100_tensorop_128x64x16_f16_f16_f16_f16_f16_e169ad15bca4085e@cask6_myelin@@YA?AW4Status@1@AEAVContext@1@@Z
    ?InitializeDynamicShaders_cutlass3x_common_cutlass3x_deconv_sm100_tensorop_128x64x16_f16_f16_f32_f16_f16_1f266c7c38ec409d@cask6_myelin@@YA?AW4Status@1@AEAVContext@1@@Z
    ?InitializeDynamicShaders_cutlass3x_common_cutlass3x_deconv_sm100_tensorop_128x64x16_f16_f16_f32_f16_f16_56e1d7d2a717a99f@cask6_myelin@@YA?AW4Status@1@AEAVContext@1@@Z
    ?InitializeDynamicShaders_cutlass3x_common_cutlass3x_deconv_sm100_tensorop_256x128x16_bf16_bf16_f32_bf16_bf16_aa05a68bfddfa34e@cask6_myelin@@YA?AW4Status@1@AEAVContext@1@@Z
    ?InitializeDynamicShaders_cutlass3x_common_cutlass3x_deconv_sm100_tensorop_256x128x16_f16_f16_f16_f16_f16_2ef04877488ecda2@cask6_myelin@@YA?AW4Status@1@AEAVContext@1@@Z
    ?InitializeDynamicShaders_cutlass3x_common_cutlass3x_deconv_sm100_tensorop_256x128x16_f16_f16_f32_f16_f16_d77c044c69f931f2@cask6_myelin@@YA?AW4Status@1@AEAVContext@1@@Z
    ?InitializeDynamicShaders_cutlass3x_common_cutlass3x_deconv_sm100_tensorop_256x128x32_s8_s8_s32_f16_f16_38d16302d2f0864f@cask6_myelin@@YA?AW4Status@1@AEAVContext@1@@Z
    ?InitializeDynamicShaders_cutlass3x_common_cutlass3x_deconv_sm100_tensorop_256x128x32_s8_s8_s32_f32_f32_873ff2e902436c0f@cask6_myelin@@YA?AW4Status@1@AEAVContext@1@@Z
    ?InitializeDynamicShaders_cutlass3x_common_cutlass3x_deconv_sm100_tensorop_256x128x32_s8_s8_s32_s8_s8_16c4aa47afacfc22@cask6_myelin@@YA?AW4Status@1@AEAVContext@1@@Z
    ?InitializeDynamicShaders_cutlass3x_common_cutlass3x_deconv_sm100_tensorop_256x128x8_f32_f32_f32_f32_f32_9cf798c36f2f7f51@cask6_myelin@@YA?AW4Status@1@AEAVContext@1@@Z
    ?InitializeDynamicShaders_cutlass3x_common_cutlass3x_deconv_sm100_tensorop_256x256x16_bf16_bf16_f32_bf16_bf16_d5a1d33f366359d2@cask6_myelin@@YA?AW4Status@1@AEAVContext@1@@Z
    ?InitializeDynamicShaders_cutlass3x_common_cutlass3x_deconv_sm100_tensorop_256x256x16_f16_f16_f16_f16_f16_7f767e954a28cf5f@cask6_myelin@@YA?AW4Status@1@AEAVContext@1@@Z
    ?InitializeDynamicShaders_cutlass3x_common_cutlass3x_deconv_sm100_tensorop_256x256x16_f16_f16_f32_f16_f16_569cd96151c5a502@cask6_myelin@@YA?AW4Status@1@AEAVContext@1@@Z
    ?InitializeDynamicShaders_cutlass3x_common_cutlass3x_deconv_sm100_tensorop_256x256x32_s8_s8_s32_f16_f16_675a29e3c3a15141@cask6_myelin@@YA?AW4Status@1@AEAVContext@1@@Z
    ?InitializeDynamicShaders_cutlass3x_common_cutlass3x_deconv_sm100_tensorop_256x256x32_s8_s8_s32_f32_f32_8d3dff17d524d06e@cask6_myelin@@YA?AW4Status@1@AEAVContext@1@@Z
    ?InitializeDynamicShaders_cutlass3x_common_cutlass3x_deconv_sm100_tensorop_256x256x32_s8_s8_s32_s8_s8_6024022021984f0e@cask6_myelin@@YA?AW4Status@1@AEAVContext@1@@Z
    ?InitializeDynamicShaders_cutlass3x_common_cutlass3x_deconv_sm100_tensorop_256x256x8_f32_f32_f32_f32_f32_4274b74c41981b63@cask6_myelin@@YA?AW4Status@1@AEAVContext@1@@Z
    ?InitializeDynamicShaders_cutlass3x_common_cutlass3x_deconv_sm100_tensorop_256x64x16_bf16_bf16_f32_bf16_bf16_c1b9a5429d29e989@cask6_myelin@@YA?AW4Status@1@AEAVContext@1@@Z
    ?InitializeDynamicShaders_cutlass3x_common_cutlass3x_deconv_sm100_tensorop_256x64x16_f16_f16_f16_f16_f16_9e8fd8f1c77b3142@cask6_myelin@@YA?AW4Status@1@AEAVContext@1@@Z
    ?InitializeDynamicShaders_cutlass3x_common_cutlass3x_deconv_sm100_tensorop_256x64x16_f16_f16_f32_f16_f16_6f41fb9bf94e4dd0@cask6_myelin@@YA?AW4Status@1@AEAVContext@1@@Z
    ?InitializeDynamicShaders_cutlass3x_common_cutlass3x_deconv_sm100_tensorop_64x128x16_bf16_bf16_f32_bf16_bf16_72e1153658640f77@cask6_myelin@@YA?AW4Status@1@AEAVContext@1@@Z
    ?InitializeDynamicShaders_cutlass3x_common_cutlass3x_deconv_sm100_tensorop_64x128x16_f16_f16_f16_f16_f16_5a683698b36da0c3@cask6_myelin@@YA?AW4Status@1@AEAVContext@1@@Z
    ?InitializeDynamicShaders_cutlass3x_common_cutlass3x_deconv_sm100_tensorop_64x128x16_f16_f16_f32_f16_f16_8f5729df352e3be8@cask6_myelin@@YA?AW4Status@1@AEAVContext@1@@Z
    ?InitializeDynamicShaders_cutlass3x_common_cutlass3x_deconv_sm100_tensorop_64x128x32_s8_s8_s32_f16_f16_bed403445cc1ab1e@cask6_myelin@@YA?AW4Status@1@AEAVContext@1@@Z
    ?InitializeDynamicShaders_cutlass3x_common_cutlass3x_deconv_sm100_tensorop_64x128x32_s8_s8_s32_f32_f32_2989575086e6d609@cask6_myelin@@YA?AW4Status@1@AEAVContext@1@@Z
    ?InitializeDynamicShaders_cutlass3x_common_cutlass3x_deconv_sm100_tensorop_64x128x32_s8_s8_s32_s8_s8_2fad2c884d46856a@cask6_myelin@@YA?AW4Status@1@AEAVContext@1@@Z
    ?InitializeDynamicShaders_cutlass3x_common_cutlass3x_deconv_sm100_tensorop_64x128x8_f32_f32_f32_f32_f32_1fe711060a4984e8@cask6_myelin@@YA?AW4Status@1@AEAVContext@1@@Z
    ?InitializeDynamicShaders_cutlass3x_common_cutlass3x_deconv_sm100_tensorop_64x64x16_bf16_bf16_f32_bf16_bf16_3a785d5c84d58103@cask6_myelin@@YA?AW4Status@1@AEAVContext@1@@Z
    ?InitializeDynamicShaders_cutlass3x_common_cutlass3x_deconv_sm100_tensorop_64x64x16_f16_f16_f16_f16_f16_8547dd5c52c6022e@cask6_myelin@@YA?AW4Status@1@AEAVContext@1@@Z
    ?InitializeDynamicShaders_cutlass3x_common_cutlass3x_deconv_sm100_tensorop_64x64x16_f16_f16_f32_f16_f16_4297e91b275fac34@cask6_myelin@@YA?AW4Status@1@AEAVContext@1@@Z
    ?InitializeDynamicShaders_cutlass3x_common_cutlass3x_sm100_bstensorop_s128x128x32gemm_ue8m0xf8_ue8m0xf8_f32_bf16_bf16_bias_bf16_gelu_4d37fb6282269af9@cask6_myelin@@YA?AW4Status@1@AEAVContext@1@@Z
    ?InitializeDynamicShaders_cutlass3x_common_cutlass3x_sm100_bstensorop_s128x128x32gemm_ue8m0xf8_ue8m0xf8_f32_bf16_bf16_bias_bf16_gelu_ecd291b259ab81fd@cask6_myelin@@YA?AW4Status@1@AEAVContext@1@@Z
    ?InitializeDynamicShaders_cutlass3x_common_cutlass3x_sm100_bstensorop_s128x128x32gemm_ue8m0xf8_ue8m0xf8_f32_bf16_bf16_bias_bf16_relu_4da427e30ecdd634@cask6_myelin@@YA?AW4Status@1@AEAVContext@1@@Z
    ?InitializeDynamicShaders_cutlass3x_common_cutlass3x_sm100_bstensorop_s128x128x32gemm_ue8m0xf8_ue8m0xf8_f32_bf16_bf16_bias_bf16_relu_5969a3ca594bbd22@cask6_myelin@@YA?AW4Status@1@AEAVContext@1@@Z
    ?InitializeDynamicShaders_cutlass3x_common_cutlass3x_sm100_bstensorop_s128x128x32gemm_ue8m0xf8_ue8m0xf8_f32_bf16_ue8m0xe4m3_bias_bf16_gelu_epiVs32_75105bedf030e1e0@cask6_myelin@@YA?AW4Status@1@AEAVContext@1@@Z
    ?InitializeDynamicShaders_cutlass3x_common_cutlass3x_sm100_bstensorop_s128x128x32gemm_ue8m0xf8_ue8m0xf8_f32_bf16_ue8m0xe4m3_bias_bf16_gelu_epiVs32_ecfb3f5222fc072a@cask6_myelin@@YA?AW4Status@1@AEAVContext@1@@Z
    ?InitializeDynamicShaders_cutlass3x_common_cutlass3x_sm100_bstensorop_s128x128x32gemm_ue8m0xf8_ue8m0xf8_f32_bf16_ue8m0xe4m3_bias_bf16_relu_epiVs32_1ee93b7615bcd520@cask6_myelin@@YA?AW4Status@1@AEAVContext@1@@Z
    ?InitializeDynamicShaders_cutlass3x_common_cutlass3x_sm100_bstensorop_s128x128x32gemm_ue8m0xf8_ue8m0xf8_f32_bf16_ue8m0xe4m3_bias_bf16_relu_epiVs32_4d344dd731995f09@cask6_myelin@@YA?AW4Status@1@AEAVContext@1@@Z
    ?InitializeDynamicShaders_cutlass3x_common_cutlass3x_sm100_bstensorop_s128x128x32gemm_ue8m0xf8_ue8m0xf8_f32_f16_f16_bias_f16_gelu_2ab9d509379f9178@cask6_myelin@@YA?AW4Status@1@AEAVContext@1@@Z
    ?InitializeDynamicShaders_cutlass3x_common_cutlass3x_sm100_bstensorop_s128x128x32gemm_ue8m0xf8_ue8m0xf8_f32_f16_f16_bias_f16_gelu_59eb908a16e76021@cask6_myelin@@YA?AW4Status@1@AEAVContext@1@@Z
    ?InitializeDynamicShaders_cutlass3x_common_cutlass3x_sm100_bstensorop_s128x128x32gemm_ue8m0xf8_ue8m0xf8_f32_f16_f16_bias_f16_relu_82edfa23698484b8@cask6_myelin@@YA?AW4Status@1@AEAVContext@1@@Z
    ?InitializeDynamicShaders_cutlass3x_common_cutlass3x_sm100_bstensorop_s128x128x32gemm_ue8m0xf8_ue8m0xf8_f32_f16_f16_bias_f16_relu_ccc6030c104a901b@cask6_myelin@@YA?AW4Status@1@AEAVContext@1@@Z
    ?InitializeDynamicShaders_cutlass3x_common_cutlass3x_sm100_bstensorop_s128x128x32gemm_ue8m0xf8_ue8m0xf8_f32_f16_ue8m0xe4m3_bias_f16_gelu_epiVs32_347aeb470b582fed@cask6_myelin@@YA?AW4Status@1@AEAVContext@1@@Z
    ?InitializeDynamicShaders_cutlass3x_common_cutlass3x_sm100_bstensorop_s128x128x32gemm_ue8m0xf8_ue8m0xf8_f32_f16_ue8m0xe4m3_bias_f16_gelu_epiVs32_c2e8c2cf5bddc1d6@cask6_myelin@@YA?AW4Status@1@AEAVContext@1@@Z
    ?InitializeDynamicShaders_cutlass3x_common_cutlass3x_sm100_bstensorop_s128x128x32gemm_ue8m0xf8_ue8m0xf8_f32_f16_ue8m0xe4m3_bias_f16_relu_epiVs32_12529e6ce7b708e1@cask6_myelin@@YA?AW4Status@1@AEAVContext@1@@Z
    ?InitializeDynamicShaders_cutlass3x_common_cutlass3x_sm100_bstensorop_s128x128x32gemm_ue8m0xf8_ue8m0xf8_f32_f16_ue8m0xe4m3_bias_f16_relu_epiVs32_a109136194fece53@cask6_myelin@@YA?AW4Status@1@AEAVContext@1@@Z
    ?InitializeDynamicShaders_cutlass3x_common_cutlass3x_sm100_bstensorop_s128x128x64gemm_ue4m3xf4_ue4m3xf4_f32_bf16_bf16_bias_bf16_gelu_8f141d34e8c63947@cask6_myelin@@YA?AW4Status@1@AEAVContext@1@@Z
    ?InitializeDynamicShaders_cutlass3x_common_cutlass3x_sm100_bstensorop_s128x128x64gemm_ue4m3xf4_ue4m3xf4_f32_bf16_bf16_bias_bf16_gelu_bdb6da85d835d68e@cask6_myelin@@YA?AW4Status@1@AEAVContext@1@@Z
    ?InitializeDynamicShaders_cutlass3x_common_cutlass3x_sm100_bstensorop_s128x128x64gemm_ue4m3xf4_ue4m3xf4_f32_bf16_bf16_bias_bf16_relu_6e3d850c3c39882c@cask6_myelin@@YA?AW4Status@1@AEAVContext@1@@Z
    ?InitializeDynamicShaders_cutlass3x_common_cutlass3x_sm100_bstensorop_s128x128x64gemm_ue4m3xf4_ue4m3xf4_f32_bf16_bf16_bias_bf16_relu_b9b65b7f0a032992@cask6_myelin@@YA?AW4Status@1@AEAVContext@1@@Z
    ?InitializeDynamicShaders_cutlass3x_common_cutlass3x_sm100_bstensorop_s128x128x64gemm_ue4m3xf4_ue4m3xf4_f32_bf16_bf16_bias_bf16_swish_951128c80da981ca@cask6_myelin@@YA?AW4Status@1@AEAVContext@1@@Z
    ?InitializeDynamicShaders_cutlass3x_common_cutlass3x_sm100_bstensorop_s128x128x64gemm_ue4m3xf4_ue4m3xf4_f32_bf16_bf16_bias_bf16_swish_bb429845182a2141@cask6_myelin@@YA?AW4Status@1@AEAVContext@1@@Z
    ?InitializeDynamicShaders_cutlass3x_common_cutlass3x_sm100_bstensorop_s128x128x64gemm_ue4m3xf4_ue4m3xf4_f32_bf16_ue4m3xe2m1_bias_bf16_gelu_epiVs16_5769ac1ae39bab60@cask6_myelin@@YA?AW4Status@1@AEAVContext@1@@Z
    ?InitializeDynamicShaders_cutlass3x_common_cutlass3x_sm100_bstensorop_s128x128x64gemm_ue4m3xf4_ue4m3xf4_f32_bf16_ue4m3xe2m1_bias_bf16_gelu_epiVs16_9ed4b385502ce39a@cask6_myelin@@YA?AW4Status@1@AEAVContext@1@@Z
    ?InitializeDynamicShaders_cutlass3x_common_cutlass3x_sm100_bstensorop_s128x128x64gemm_ue4m3xf4_ue4m3xf4_f32_bf16_ue4m3xe2m1_bias_bf16_relu_epiVs16_6388ca8806cac6ef@cask6_myelin@@YA?AW4Status@1@AEAVContext@1@@Z
    ?InitializeDynamicShaders_cutlass3x_common_cutlass3x_sm100_bstensorop_s128x128x64gemm_ue4m3xf4_ue4m3xf4_f32_bf16_ue4m3xe2m1_bias_bf16_relu_epiVs16_726d54360a429739@cask6_myelin@@YA?AW4Status@1@AEAVContext@1@@Z
    ?InitializeDynamicShaders_cutlass3x_common_cutlass3x_sm100_bstensorop_s128x128x64gemm_ue4m3xf4_ue4m3xf4_f32_bf16_ue4m3xe2m1_bias_bf16_swish_epiVs16_3603497f0d510561@cask6_myelin@@YA?AW4Status@1@AEAVContext@1@@Z
    ?InitializeDynamicShaders_cutlass3x_common_cutlass3x_sm100_bstensorop_s128x128x64gemm_ue4m3xf4_ue4m3xf4_f32_bf16_ue4m3xe2m1_bias_bf16_swish_epiVs16_6a817cf525ba3598@cask6_myelin@@YA?AW4Status@1@AEAVContext@1@@Z
    ?InitializeDynamicShaders_cutlass3x_common_cutlass3x_sm100_bstensorop_s128x128x64gemm_ue4m3xf4_ue4m3xf4_f32_f16_f16_bias_f16_gelu_14fc99f7672dd859@cask6_myelin@@YA?AW4Status@1@AEAVContext@1@@Z
    ?InitializeDynamicShaders_cutlass3x_common_cutlass3x_sm100_bstensorop_s128x128x64gemm_ue4m3xf4_ue4m3xf4_f32_f16_f16_bias_f16_gelu_9c02b9510ee09bf2@cask6_myelin@@YA?AW4Status@1@AEAVContext@1@@Z
    ?InitializeDynamicShaders_cutlass3x_common_cutlass3x_sm100_bstensorop_s128x128x64gemm_ue4m3xf4_ue4m3xf4_f32_f16_f16_bias_f16_relu_b176c474da29f24e@cask6_myelin@@YA?AW4Status@1@AEAVContext@1@@Z
    ?InitializeDynamicShaders_cutlass3x_common_cutlass3x_sm100_bstensorop_s128x128x64gemm_ue4m3xf4_ue4m3xf4_f32_f16_f16_bias_f16_relu_cce28988f6a41bd0@cask6_myelin@@YA?AW4Status@1@AEAVContext@1@@Z
    ?InitializeDynamicShaders_cutlass3x_common_cutlass3x_sm100_bstensorop_s128x128x64gemm_ue4m3xf4_ue4m3xf4_f32_f16_f16_bias_f16_swish_92ff23e70f660ea7@cask6_myelin@@YA?AW4Status@1@AEAVContext@1@@Z
    ?InitializeDynamicShaders_cutlass3x_common_cutlass3x_sm100_bstensorop_s128x128x64gemm_ue4m3xf4_ue4m3xf4_f32_f16_f16_bias_f16_swish_af647b5ddef9ac31@cask6_myelin@@YA?AW4Status@1@AEAVContext@1@@Z
    ?InitializeDynamicShaders_cutlass3x_common_cutlass3x_sm100_bstensorop_s128x128x64gemm_ue4m3xf4_ue4m3xf4_f32_f16_ue4m3xe2m1_bias_f16_gelu_epiVs16_60d2eccc888f9e3f@cask6_myelin@@YA?AW4Status@1@AEAVContext@1@@Z
    ?InitializeDynamicShaders_cutlass3x_common_cutlass3x_sm100_bstensorop_s128x128x64gemm_ue4m3xf4_ue4m3xf4_f32_f16_ue4m3xe2m1_bias_f16_gelu_epiVs16_68d8396fc5eb61a5@cask6_myelin@@YA?AW4Status@1@AEAVContext@1@@Z
    ?InitializeDynamicShaders_cutlass3x_common_cutlass3x_sm100_bstensorop_s128x128x64gemm_ue4m3xf4_ue4m3xf4_f32_f16_ue4m3xe2m1_bias_f16_relu_epiVs16_42f8aa469079adb4@cask6_myelin@@YA?AW4Status@1@AEAVContext@1@@Z
    ?InitializeDynamicShaders_cutlass3x_common_cutlass3x_sm100_bstensorop_s128x128x64gemm_ue4m3xf4_ue4m3xf4_f32_f16_ue4m3xe2m1_bias_f16_relu_epiVs16_dac859c0943813f4@cask6_myelin@@YA?AW4Status@1@AEAVContext@1@@Z
    ?InitializeDynamicShaders_cutlass3x_common_cutlass3x_sm100_bstensorop_s128x128x64gemm_ue4m3xf4_ue4m3xf4_f32_f16_ue4m3xe2m1_bias_f16_swish_epiVs16_1579c8820b07607c@cask6_myelin@@YA?AW4Status@1@AEAVContext@1@@Z
    ?InitializeDynamicShaders_cutlass3x_common_cutlass3x_sm100_bstensorop_s128x128x64gemm_ue4m3xf4_ue4m3xf4_f32_f16_ue4m3xe2m1_bias_f16_swish_epiVs16_372632ea407b7257@cask6_myelin@@YA?AW4Status@1@AEAVContext@1@@Z
    ?InitializeDynamicShaders_cutlass3x_common_cutlass3x_sm100_bstensorop_s128x128x64gemm_ue4m3xf4_ue4m3xf4_f32_f32_f32_bias_bf16_gelu_2d01f1bd8fac226e@cask6_myelin@@YA?AW4Status@1@AEAVContext@1@@Z
    ?InitializeDynamicShaders_cutlass3x_common_cutlass3x_sm100_bstensorop_s128x128x64gemm_ue4m3xf4_ue4m3xf4_f32_f32_f32_bias_bf16_gelu_5ebc9f2cbb1ce90a@cask6_myelin@@YA?AW4Status@1@AEAVContext@1@@Z
    ?InitializeDynamicShaders_cutlass3x_common_cutlass3x_sm100_bstensorop_s128x128x64gemm_ue4m3xf4_ue4m3xf4_f32_f32_f32_bias_bf16_relu_c3a95fce67c93188@cask6_myelin@@YA?AW4Status@1@AEAVContext@1@@Z
    ?InitializeDynamicShaders_cutlass3x_common_cutlass3x_sm100_bstensorop_s128x128x64gemm_ue4m3xf4_ue4m3xf4_f32_f32_f32_bias_bf16_relu_d523f3d6d6001a25@cask6_myelin@@YA?AW4Status@1@AEAVContext@1@@Z
    ?InitializeDynamicShaders_cutlass3x_common_cutlass3x_sm100_bstensorop_s128x128x64gemm_ue4m3xf4_ue4m3xf4_f32_f32_f32_bias_bf16_swish_a8791f2f13c86ee7@cask6_myelin@@YA?AW4Status@1@AEAVContext@1@@Z
    ?InitializeDynamicShaders_cutlass3x_common_cutlass3x_sm100_bstensorop_s128x128x64gemm_ue4m3xf4_ue4m3xf4_f32_f32_f32_bias_bf16_swish_f4620ab9a67627d0@cask6_myelin@@YA?AW4Status@1@AEAVContext@1@@Z
    ?InitializeDynamicShaders_cutlass3x_common_cutlass3x_sm100_bstensorop_s128x64x64gemm_ue4m3xf4_ue4m3xf4_f32_bf16_bf16_bias_bf16_gelu_538b921d3652b3f1@cask6_myelin@@YA?AW4Status@1@AEAVContext@1@@Z
    ?InitializeDynamicShaders_cutlass3x_common_cutlass3x_sm100_bstensorop_s128x64x64gemm_ue4m3xf4_ue4m3xf4_f32_bf16_bf16_bias_bf16_gelu_9e02fed75413176c@cask6_myelin@@YA?AW4Status@1@AEAVContext@1@@Z
    ?InitializeDynamicShaders_cutlass3x_common_cutlass3x_sm100_bstensorop_s128x64x64gemm_ue4m3xf4_ue4m3xf4_f32_bf16_bf16_bias_bf16_relu_1610fbfce1ae4969@cask6_myelin@@YA?AW4Status@1@AEAVContext@1@@Z
    ?InitializeDynamicShaders_cutlass3x_common_cutlass3x_sm100_bstensorop_s128x64x64gemm_ue4m3xf4_ue4m3xf4_f32_bf16_bf16_bias_bf16_relu_655a2cceea2fa35a@cask6_myelin@@YA?AW4Status@1@AEAVContext@1@@Z
    ?InitializeDynamicShaders_cutlass3x_common_cutlass3x_sm100_bstensorop_s128x64x64gemm_ue4m3xf4_ue4m3xf4_f32_bf16_bf16_bias_bf16_swish_722e80997b082029@cask6_myelin@@YA?AW4Status@1@AEAVContext@1@@Z
    ?InitializeDynamicShaders_cutlass3x_common_cutlass3x_sm100_bstensorop_s128x64x64gemm_ue4m3xf4_ue4m3xf4_f32_bf16_bf16_bias_bf16_swish_df830793f8c1fea1@cask6_myelin@@YA?AW4Status@1@AEAVContext@1@@Z
    ?InitializeDynamicShaders_cutlass3x_common_cutlass3x_sm100_bstensorop_s128x64x64gemm_ue4m3xf4_ue4m3xf4_f32_f16_f16_bias_f16_gelu_cb44b13c9bb27a9f@cask6_myelin@@YA?AW4Status@1@AEAVContext@1@@Z
    ?InitializeDynamicShaders_cutlass3x_common_cutlass3x_sm100_bstensorop_s128x64x64gemm_ue4m3xf4_ue4m3xf4_f32_f16_f16_bias_f16_gelu_f18ccd36304b8581@cask6_myelin@@YA?AW4Status@1@AEAVContext@1@@Z
    ?InitializeDynamicShaders_cutlass3x_common_cutlass3x_sm100_bstensorop_s128x64x64gemm_ue4m3xf4_ue4m3xf4_f32_f16_f16_bias_f16_relu_62e30a3359e34e6c@cask6_myelin@@YA?AW4Status@1@AEAVContext@1@@Z
    ?InitializeDynamicShaders_cutlass3x_common_cutlass3x_sm100_bstensorop_s128x64x64gemm_ue4m3xf4_ue4m3xf4_f32_f16_f16_bias_f16_relu_7ff4cb1443922930@cask6_myelin@@YA?AW4Status@1@AEAVContext@1@@Z
    ?InitializeDynamicShaders_cutlass3x_common_cutlass3x_sm100_bstensorop_s128x64x64gemm_ue4m3xf4_ue4m3xf4_f32_f16_f16_bias_f16_swish_8e77d38c249121e9@cask6_myelin@@YA?AW4Status@1@AEAVContext@1@@Z
    ?InitializeDynamicShaders_cutlass3x_common_cutlass3x_sm100_bstensorop_s128x64x64gemm_ue4m3xf4_ue4m3xf4_f32_f16_f16_bias_f16_swish_9001aab3959bcb53@cask6_myelin@@YA?AW4Status@1@AEAVContext@1@@Z
    ?InitializeDynamicShaders_cutlass3x_common_cutlass3x_sm100_bstensorop_s256x128x32gemm_ue8m0xf8_ue8m0xf8_f32_bf16_bf16_bias_bf16_gelu_a1be3b17f3fa5543@cask6_myelin@@YA?AW4Status@1@AEAVContext@1@@Z
    ?InitializeDynamicShaders_cutlass3x_common_cutlass3x_sm100_bstensorop_s256x128x32gemm_ue8m0xf8_ue8m0xf8_f32_bf16_bf16_bias_bf16_gelu_ccd4421ef7532d20@cask6_myelin@@YA?AW4Status@1@AEAVContext@1@@Z
    ?InitializeDynamicShaders_cutlass3x_common_cutlass3x_sm100_bstensorop_s256x128x32gemm_ue8m0xf8_ue8m0xf8_f32_bf16_bf16_bias_bf16_relu_479c705683cebee7@cask6_myelin@@YA?AW4Status@1@AEAVContext@1@@Z
    ?InitializeDynamicShaders_cutlass3x_common_cutlass3x_sm100_bstensorop_s256x128x32gemm_ue8m0xf8_ue8m0xf8_f32_bf16_bf16_bias_bf16_relu_c19f169688b7362b@cask6_myelin@@YA?AW4Status@1@AEAVContext@1@@Z
    ?InitializeDynamicShaders_cutlass3x_common_cutlass3x_sm100_bstensorop_s256x128x32gemm_ue8m0xf8_ue8m0xf8_f32_bf16_ue8m0xe4m3_bias_bf16_gelu_epiVs32_b28915bdefe7f229@cask6_myelin@@YA?AW4Status@1@AEAVContext@1@@Z
    ?InitializeDynamicShaders_cutlass3x_common_cutlass3x_sm100_bstensorop_s256x128x32gemm_ue8m0xf8_ue8m0xf8_f32_bf16_ue8m0xe4m3_bias_bf16_gelu_epiVs32_db7faffff1176eaa@cask6_myelin@@YA?AW4Status@1@AEAVContext@1@@Z
    ?InitializeDynamicShaders_cutlass3x_common_cutlass3x_sm100_bstensorop_s256x128x32gemm_ue8m0xf8_ue8m0xf8_f32_bf16_ue8m0xe4m3_bias_bf16_relu_epiVs32_76f212ff0169576d@cask6_myelin@@YA?AW4Status@1@AEAVContext@1@@Z
    ?InitializeDynamicShaders_cutlass3x_common_cutlass3x_sm100_bstensorop_s256x128x32gemm_ue8m0xf8_ue8m0xf8_f32_bf16_ue8m0xe4m3_bias_bf16_relu_epiVs32_cc8d7f67c3d8054a@cask6_myelin@@YA?AW4Status@1@AEAVContext@1@@Z
    ?InitializeDynamicShaders_cutlass3x_common_cutlass3x_sm100_bstensorop_s256x128x32gemm_ue8m0xf8_ue8m0xf8_f32_f16_f16_bias_f16_gelu_35c83a02fde747a0@cask6_myelin@@YA?AW4Status@1@AEAVContext@1@@Z
    ?InitializeDynamicShaders_cutlass3x_common_cutlass3x_sm100_bstensorop_s256x128x32gemm_ue8m0xf8_ue8m0xf8_f32_f16_f16_bias_f16_gelu_a757dd7e452c2832@cask6_myelin@@YA?AW4Status@1@AEAVContext@1@@Z
    ?InitializeDynamicShaders_cutlass3x_common_cutlass3x_sm100_bstensorop_s256x128x32gemm_ue8m0xf8_ue8m0xf8_f32_f16_f16_bias_f16_relu_41c3dc5ff6cc2b4e@cask6_myelin@@YA?AW4Status@1@AEAVContext@1@@Z
    ?InitializeDynamicShaders_cutlass3x_common_cutlass3x_sm100_bstensorop_s256x128x32gemm_ue8m0xf8_ue8m0xf8_f32_f16_f16_bias_f16_relu_61bd04381228058e@cask6_myelin@@YA?AW4Status@1@AEAVContext@1@@Z
    ?InitializeDynamicShaders_cutlass3x_common_cutlass3x_sm100_bstensorop_s256x128x32gemm_ue8m0xf8_ue8m0xf8_f32_f16_ue8m0xe4m3_bias_f16_gelu_epiVs32_1eb888a707017339@cask6_myelin@@YA?AW4Status@1@AEAVContext@1@@Z
    ?InitializeDynamicShaders_cutlass3x_common_cutlass3x_sm100_bstensorop_s256x128x32gemm_ue8m0xf8_ue8m0xf8_f32_f16_ue8m0xe4m3_bias_f16_gelu_epiVs32_ef89e5d38e6f9d72@cask6_myelin@@YA?AW4Status@1@AEAVContext@1@@Z
    ?InitializeDynamicShaders_cutlass3x_common_cutlass3x_sm100_bstensorop_s256x128x32gemm_ue8m0xf8_ue8m0xf8_f32_f16_ue8m0xe4m3_bias_f16_relu_epiVs32_5e57cc810c2efa03@cask6_myelin@@YA?AW4Status@1@AEAVContext@1@@Z
    ?InitializeDynamicShaders_cutlass3x_common_cutlass3x_sm100_bstensorop_s256x128x32gemm_ue8m0xf8_ue8m0xf8_f32_f16_ue8m0xe4m3_bias_f16_relu_epiVs32_66b443e03dbd5d49@cask6_myelin@@YA?AW4Status@1@AEAVContext@1@@Z
    ?InitializeDynamicShaders_cutlass3x_common_cutlass3x_sm100_bstensorop_s256x128x64gemm_ue4m3xf4_ue4m3xf4_f32_bf16_bf16_bias_bf16_gelu_293f44e98d9f064f@cask6_myelin@@YA?AW4Status@1@AEAVContext@1@@Z
    ?InitializeDynamicShaders_cutlass3x_common_cutlass3x_sm100_bstensorop_s256x128x64gemm_ue4m3xf4_ue4m3xf4_f32_bf16_bf16_bias_bf16_gelu_9c177435dab02832@cask6_myelin@@YA?AW4Status@1@AEAVContext@1@@Z
    ?InitializeDynamicShaders_cutlass3x_common_cutlass3x_sm100_bstensorop_s256x128x64gemm_ue4m3xf4_ue4m3xf4_f32_bf16_bf16_bias_bf16_relu_a5740526206a6a04@cask6_myelin@@YA?AW4Status@1@AEAVContext@1@@Z
    ?InitializeDynamicShaders_cutlass3x_common_cutlass3x_sm100_bstensorop_s256x128x64gemm_ue4m3xf4_ue4m3xf4_f32_bf16_bf16_bias_bf16_relu_f9ae6144988f48e6@cask6_myelin@@YA?AW4Status@1@AEAVContext@1@@Z
    ?InitializeDynamicShaders_cutlass3x_common_cutlass3x_sm100_bstensorop_s256x128x64gemm_ue4m3xf4_ue4m3xf4_f32_bf16_bf16_bias_bf16_swish_578a99055c6bb070@cask6_myelin@@YA?AW4Status@1@AEAVContext@1@@Z
    ?InitializeDynamicShaders_cutlass3x_common_cutlass3x_sm100_bstensorop_s256x128x64gemm_ue4m3xf4_ue4m3xf4_f32_bf16_bf16_bias_bf16_swish_e6606051c0cbafe5@cask6_myelin@@YA?AW4Status@1@AEAVContext@1@@Z
    ?InitializeDynamicShaders_cutlass3x_common_cutlass3x_sm100_bstensorop_s256x128x64gemm_ue4m3xf4_ue4m3xf4_f32_bf16_ue4m3xe2m1_bias_bf16_gelu_epiVs16_adfc192332af269f@cask6_myelin@@YA?AW4Status@1@AEAVContext@1@@Z
    ?InitializeDynamicShaders_cutlass3x_common_cutlass3x_sm100_bstensorop_s256x128x64gemm_ue4m3xf4_ue4m3xf4_f32_bf16_ue4m3xe2m1_bias_bf16_gelu_epiVs16_f098e61c3a026bb7@cask6_myelin@@YA?AW4Status@1@AEAVContext@1@@Z
    ?InitializeDynamicShaders_cutlass3x_common_cutlass3x_sm100_bstensorop_s256x128x64gemm_ue4m3xf4_ue4m3xf4_f32_bf16_ue4m3xe2m1_bias_bf16_relu_epiVs16_31ed98483029ae2a@cask6_myelin@@YA?AW4Status@1@AEAVContext@1@@Z
    ?InitializeDynamicShaders_cutlass3x_common_cutlass3x_sm100_bstensorop_s256x128x64gemm_ue4m3xf4_ue4m3xf4_f32_bf16_ue4m3xe2m1_bias_bf16_relu_epiVs16_5e2c1d2a5567804c@cask6_myelin@@YA?AW4Status@1@AEAVContext@1@@Z
    ?InitializeDynamicShaders_cutlass3x_common_cutlass3x_sm100_bstensorop_s256x128x64gemm_ue4m3xf4_ue4m3xf4_f32_bf16_ue4m3xe2m1_bias_bf16_swish_epiVs16_66828dc741f11fcf@cask6_myelin@@YA?AW4Status@1@AEAVContext@1@@Z
    ?InitializeDynamicShaders_cutlass3x_common_cutlass3x_sm100_bstensorop_s256x128x64gemm_ue4m3xf4_ue4m3xf4_f32_bf16_ue4m3xe2m1_bias_bf16_swish_epiVs16_9ff656aee7b47f87@cask6_myelin@@YA?AW4Status@1@AEAVContext@1@@Z
    ?InitializeDynamicShaders_cutlass3x_common_cutlass3x_sm100_bstensorop_s256x128x64gemm_ue4m3xf4_ue4m3xf4_f32_f16_f16_bias_f16_gelu_1718d1f0c5c26169@cask6_myelin@@YA?AW4Status@1@AEAVContext@1@@Z
    ?InitializeDynamicShaders_cutlass3x_common_cutlass3x_sm100_bstensorop_s256x128x64gemm_ue4m3xf4_ue4m3xf4_f32_f16_f16_bias_f16_gelu_da8dfe62d4950728@cask6_myelin@@YA?AW4Status@1@AEAVContext@1@@Z
    ?InitializeDynamicShaders_cutlass3x_common_cutlass3x_sm100_bstensorop_s256x128x64gemm_ue4m3xf4_ue4m3xf4_f32_f16_f16_bias_f16_relu_cfca2567a991cc41@cask6_myelin@@YA?AW4Status@1@AEAVContext@1@@Z
    ?InitializeDynamicShaders_cutlass3x_common_cutlass3x_sm100_bstensorop_s256x128x64gemm_ue4m3xf4_ue4m3xf4_f32_f16_f16_bias_f16_relu_f97873f04ff56aca@cask6_myelin@@YA?AW4Status@1@AEAVContext@1@@Z
    ?InitializeDynamicShaders_cutlass3x_common_cutlass3x_sm100_bstensorop_s256x128x64gemm_ue4m3xf4_ue4m3xf4_f32_f16_f16_bias_f16_swish_aa9629708631ac4b@cask6_myelin@@YA?AW4Status@1@AEAVContext@1@@Z
    ?InitializeDynamicShaders_cutlass3x_common_cutlass3x_sm100_bstensorop_s256x128x64gemm_ue4m3xf4_ue4m3xf4_f32_f16_f16_bias_f16_swish_bcad5654dc4f4c0b@cask6_myelin@@YA?AW4Status@1@AEAVContext@1@@Z
    ?InitializeDynamicShaders_cutlass3x_common_cutlass3x_sm100_bstensorop_s256x128x64gemm_ue4m3xf4_ue4m3xf4_f32_f16_ue4m3xe2m1_bias_f16_gelu_epiVs16_4ccfdc0781eb4c43@cask6_myelin@@YA?AW4Status@1@AEAVContext@1@@Z
    ?InitializeDynamicShaders_cutlass3x_common_cutlass3x_sm100_bstensorop_s256x128x64gemm_ue4m3xf4_ue4m3xf4_f32_f16_ue4m3xe2m1_bias_f16_gelu_epiVs16_c76f21feade31614@cask6_myelin@@YA?AW4Status@1@AEAVContext@1@@Z
    ?InitializeDynamicShaders_cutlass3x_common_cutlass3x_sm100_bstensorop_s256x128x64gemm_ue4m3xf4_ue4m3xf4_f32_f16_ue4m3xe2m1_bias_f16_relu_epiVs16_42ae25274b3d70b6@cask6_myelin@@YA?AW4Status@1@AEAVContext@1@@Z
    ?InitializeDynamicShaders_cutlass3x_common_cutlass3x_sm100_bstensorop_s256x128x64gemm_ue4m3xf4_ue4m3xf4_f32_f16_ue4m3xe2m1_bias_f16_relu_epiVs16_ecebc4dccc2e390f@cask6_myelin@@YA?AW4Status@1@AEAVContext@1@@Z
    ?InitializeDynamicShaders_cutlass3x_common_cutlass3x_sm100_bstensorop_s256x128x64gemm_ue4m3xf4_ue4m3xf4_f32_f16_ue4m3xe2m1_bias_f16_swish_epiVs16_235bc2d699f05b2@cask6_myelin@@YA?AW4Status@1@AEAVContext@1@@Z
    ?InitializeDynamicShaders_cutlass3x_common_cutlass3x_sm100_bstensorop_s256x128x64gemm_ue4m3xf4_ue4m3xf4_f32_f16_ue4m3xe2m1_bias_f16_swish_epiVs16_6569c5fefbe16d14@cask6_myelin@@YA?AW4Status@1@AEAVContext@1@@Z
    ?InitializeDynamicShaders_cutlass3x_common_cutlass3x_sm100_bstensorop_s256x128x64gemm_ue4m3xf4_ue4m3xf4_f32_f32_f32_bias_bf16_gelu_7d5ec5f0f5158a8f@cask6_myelin@@YA?AW4Status@1@AEAVContext@1@@Z
    ?InitializeDynamicShaders_cutlass3x_common_cutlass3x_sm100_bstensorop_s256x128x64gemm_ue4m3xf4_ue4m3xf4_f32_f32_f32_bias_bf16_gelu_fb4e6de0e9792c42@cask6_myelin@@YA?AW4Status@1@AEAVContext@1@@Z
    ?InitializeDynamicShaders_cutlass3x_common_cutlass3x_sm100_bstensorop_s256x128x64gemm_ue4m3xf4_ue4m3xf4_f32_f32_f32_bias_bf16_relu_7193093fe116ac09@cask6_myelin@@YA?AW4Status@1@AEAVContext@1@@Z
    ?InitializeDynamicShaders_cutlass3x_common_cutlass3x_sm100_bstensorop_s256x128x64gemm_ue4m3xf4_ue4m3xf4_f32_f32_f32_bias_bf16_relu_c3301e53b4bcf778@cask6_myelin@@YA?AW4Status@1@AEAVContext@1@@Z
    ?InitializeDynamicShaders_cutlass3x_common_cutlass3x_sm100_bstensorop_s256x128x64gemm_ue4m3xf4_ue4m3xf4_f32_f32_f32_bias_bf16_swish_141c68726b1b1741@cask6_myelin@@YA?AW4Status@1@AEAVContext@1@@Z
    ?InitializeDynamicShaders_cutlass3x_common_cutlass3x_sm100_bstensorop_s256x128x64gemm_ue4m3xf4_ue4m3xf4_f32_f32_f32_bias_bf16_swish_e7c99c0170897fb9@cask6_myelin@@YA?AW4Status@1@AEAVContext@1@@Z
    ?InitializeDynamicShaders_cutlass3x_common_cutlass3x_sm100_bstensorop_s256x192x32gemm_ue8m0xf8_ue8m0xf8_f32_bf16_bf16_bias_bf16_gelu_11a3a54d474f1493@cask6_myelin@@YA?AW4Status@1@AEAVContext@1@@Z
    ?InitializeDynamicShaders_cutlass3x_common_cutlass3x_sm100_bstensorop_s256x192x32gemm_ue8m0xf8_ue8m0xf8_f32_bf16_bf16_bias_bf16_gelu_be727fccad8b88a2@cask6_myelin@@YA?AW4Status@1@AEAVContext@1@@Z
    ?InitializeDynamicShaders_cutlass3x_common_cutlass3x_sm100_bstensorop_s256x192x32gemm_ue8m0xf8_ue8m0xf8_f32_bf16_bf16_bias_bf16_relu_9de9e958d5f00ddd@cask6_myelin@@YA?AW4Status@1@AEAVContext@1@@Z
    ?InitializeDynamicShaders_cutlass3x_common_cutlass3x_sm100_bstensorop_s256x192x32gemm_ue8m0xf8_ue8m0xf8_f32_bf16_bf16_bias_bf16_relu_cd8b604d71aaaef5@cask6_myelin@@YA?AW4Status@1@AEAVContext@1@@Z
    ?InitializeDynamicShaders_cutlass3x_common_cutlass3x_sm100_bstensorop_s256x192x32gemm_ue8m0xf8_ue8m0xf8_f32_bf16_ue8m0xe4m3_bias_bf16_gelu_epiVs32_8d92c3356cbead00@cask6_myelin@@YA?AW4Status@1@AEAVContext@1@@Z
    ?InitializeDynamicShaders_cutlass3x_common_cutlass3x_sm100_bstensorop_s256x192x32gemm_ue8m0xf8_ue8m0xf8_f32_bf16_ue8m0xe4m3_bias_bf16_gelu_epiVs32_ac2abf2e9cd0edcf@cask6_myelin@@YA?AW4Status@1@AEAVContext@1@@Z
    ?InitializeDynamicShaders_cutlass3x_common_cutlass3x_sm100_bstensorop_s256x192x32gemm_ue8m0xf8_ue8m0xf8_f32_bf16_ue8m0xe4m3_bias_bf16_relu_epiVs32_3c6ea473167b3c04@cask6_myelin@@YA?AW4Status@1@AEAVContext@1@@Z
    ?InitializeDynamicShaders_cutlass3x_common_cutlass3x_sm100_bstensorop_s256x192x32gemm_ue8m0xf8_ue8m0xf8_f32_bf16_ue8m0xe4m3_bias_bf16_relu_epiVs32_68e01735ed125f1c@cask6_myelin@@YA?AW4Status@1@AEAVContext@1@@Z
    ?InitializeDynamicShaders_cutlass3x_common_cutlass3x_sm100_bstensorop_s256x192x32gemm_ue8m0xf8_ue8m0xf8_f32_f16_f16_bias_f16_gelu_260c60eac1cb0699@cask6_myelin@@YA?AW4Status@1@AEAVContext@1@@Z
    ?InitializeDynamicShaders_cutlass3x_common_cutlass3x_sm100_bstensorop_s256x192x32gemm_ue8m0xf8_ue8m0xf8_f32_f16_f16_bias_f16_gelu_74a061f1c677b77a@cask6_myelin@@YA?AW4Status@1@AEAVContext@1@@Z
    ?InitializeDynamicShaders_cutlass3x_common_cutlass3x_sm100_bstensorop_s256x192x32gemm_ue8m0xf8_ue8m0xf8_f32_f16_f16_bias_f16_relu_5a282d64cc5ca62a@cask6_myelin@@YA?AW4Status@1@AEAVContext@1@@Z
    ?InitializeDynamicShaders_cutlass3x_common_cutlass3x_sm100_bstensorop_s256x192x32gemm_ue8m0xf8_ue8m0xf8_f32_f16_f16_bias_f16_relu_906e79cf9959901@cask6_myelin@@YA?AW4Status@1@AEAVContext@1@@Z
    ?InitializeDynamicShaders_cutlass3x_common_cutlass3x_sm100_bstensorop_s256x192x32gemm_ue8m0xf8_ue8m0xf8_f32_f16_ue8m0xe4m3_bias_f16_gelu_epiVs32_9a9f03a7c5ef1471@cask6_myelin@@YA?AW4Status@1@AEAVContext@1@@Z
    ?InitializeDynamicShaders_cutlass3x_common_cutlass3x_sm100_bstensorop_s256x192x32gemm_ue8m0xf8_ue8m0xf8_f32_f16_ue8m0xe4m3_bias_f16_gelu_epiVs32_b5761abb431fc833@cask6_myelin@@YA?AW4Status@1@AEAVContext@1@@Z
    ?InitializeDynamicShaders_cutlass3x_common_cutlass3x_sm100_bstensorop_s256x192x32gemm_ue8m0xf8_ue8m0xf8_f32_f16_ue8m0xe4m3_bias_f16_relu_epiVs32_4e0dc247359cb13f@cask6_myelin@@YA?AW4Status@1@AEAVContext@1@@Z
    ?InitializeDynamicShaders_cutlass3x_common_cutlass3x_sm100_bstensorop_s256x192x32gemm_ue8m0xf8_ue8m0xf8_f32_f16_ue8m0xe4m3_bias_f16_relu_epiVs32_7b5f1226a36da756@cask6_myelin@@YA?AW4Status@1@AEAVContext@1@@Z
    ?InitializeDynamicShaders_cutlass3x_common_cutlass3x_sm100_bstensorop_s256x192x64gemm_ue4m3xf4_ue4m3xf4_f32_bf16_bf16_bias_bf16_gelu_a2850f0435b264d3@cask6_myelin@@YA?AW4Status@1@AEAVContext@1@@Z
    ?InitializeDynamicShaders_cutlass3x_common_cutlass3x_sm100_bstensorop_s256x192x64gemm_ue4m3xf4_ue4m3xf4_f32_bf16_bf16_bias_bf16_gelu_f2e78c2ab4d8ce58@cask6_myelin@@YA?AW4Status@1@AEAVContext@1@@Z
    ?InitializeDynamicShaders_cutlass3x_common_cutlass3x_sm100_bstensorop_s256x192x64gemm_ue4m3xf4_ue4m3xf4_f32_bf16_bf16_bias_bf16_relu_8c7f4ca27c51e65f@cask6_myelin@@YA?AW4Status@1@AEAVContext@1@@Z
    ?InitializeDynamicShaders_cutlass3x_common_cutlass3x_sm100_bstensorop_s256x192x64gemm_ue4m3xf4_ue4m3xf4_f32_bf16_bf16_bias_bf16_relu_f08838cb7f14e633@cask6_myelin@@YA?AW4Status@1@AEAVContext@1@@Z
    ?InitializeDynamicShaders_cutlass3x_common_cutlass3x_sm100_bstensorop_s256x192x64gemm_ue4m3xf4_ue4m3xf4_f32_bf16_bf16_bias_bf16_swish_bbc33bdd207fa8f3@cask6_myelin@@YA?AW4Status@1@AEAVContext@1@@Z
    ?InitializeDynamicShaders_cutlass3x_common_cutlass3x_sm100_bstensorop_s256x192x64gemm_ue4m3xf4_ue4m3xf4_f32_bf16_bf16_bias_bf16_swish_cc35746de9cdbb9@cask6_myelin@@YA?AW4Status@1@AEAVContext@1@@Z
    ?InitializeDynamicShaders_cutlass3x_common_cutlass3x_sm100_bstensorop_s256x192x64gemm_ue4m3xf4_ue4m3xf4_f32_bf16_ue4m3xe2m1_bias_bf16_gelu_epiVs16_9065113d519fc042@cask6_myelin@@YA?AW4Status@1@AEAVContext@1@@Z
    ?InitializeDynamicShaders_cutlass3x_common_cutlass3x_sm100_bstensorop_s256x192x64gemm_ue4m3xf4_ue4m3xf4_f32_bf16_ue4m3xe2m1_bias_bf16_gelu_epiVs16_b1cca188b0128097@cask6_myelin@@YA?AW4Status@1@AEAVContext@1@@Z
    ?InitializeDynamicShaders_cutlass3x_common_cutlass3x_sm100_bstensorop_s256x192x64gemm_ue4m3xf4_ue4m3xf4_f32_bf16_ue4m3xe2m1_bias_bf16_relu_epiVs16_458a81c727f6093@cask6_myelin@@YA?AW4Status@1@AEAVContext@1@@Z
    ?InitializeDynamicShaders_cutlass3x_common_cutlass3x_sm100_bstensorop_s256x192x64gemm_ue4m3xf4_ue4m3xf4_f32_bf16_ue4m3xe2m1_bias_bf16_relu_epiVs16_abd7e579d841db0a@cask6_myelin@@YA?AW4Status@1@AEAVContext@1@@Z
    ?InitializeDynamicShaders_cutlass3x_common_cutlass3x_sm100_bstensorop_s256x192x64gemm_ue4m3xf4_ue4m3xf4_f32_bf16_ue4m3xe2m1_bias_bf16_swish_epiVs16_199ca94719e42e71@cask6_myelin@@YA?AW4Status@1@AEAVContext@1@@Z
    ?InitializeDynamicShaders_cutlass3x_common_cutlass3x_sm100_bstensorop_s256x192x64gemm_ue4m3xf4_ue4m3xf4_f32_bf16_ue4m3xe2m1_bias_bf16_swish_epiVs16_1f16f57d578491b8@cask6_myelin@@YA?AW4Status@1@AEAVContext@1@@Z
    ?InitializeDynamicShaders_cutlass3x_common_cutlass3x_sm100_bstensorop_s256x192x64gemm_ue4m3xf4_ue4m3xf4_f32_f16_f16_bias_f16_gelu_a8bff08d18d04e14@cask6_myelin@@YA?AW4Status@1@AEAVContext@1@@Z
    ?InitializeDynamicShaders_cutlass3x_common_cutlass3x_sm100_bstensorop_s256x192x64gemm_ue4m3xf4_ue4m3xf4_f32_f16_f16_bias_f16_gelu_de3e583dcac1db22@cask6_myelin@@YA?AW4Status@1@AEAVContext@1@@Z
    ?InitializeDynamicShaders_cutlass3x_common_cutlass3x_sm100_bstensorop_s256x192x64gemm_ue4m3xf4_ue4m3xf4_f32_f16_f16_bias_f16_relu_553deea656565c5f@cask6_myelin@@YA?AW4Status@1@AEAVContext@1@@Z
    ?InitializeDynamicShaders_cutlass3x_common_cutlass3x_sm100_bstensorop_s256x192x64gemm_ue4m3xf4_ue4m3xf4_f32_f16_f16_bias_f16_relu_bf31c8905e11b278@cask6_myelin@@YA?AW4Status@1@AEAVContext@1@@Z
    ?InitializeDynamicShaders_cutlass3x_common_cutlass3x_sm100_bstensorop_s256x192x64gemm_ue4m3xf4_ue4m3xf4_f32_f16_f16_bias_f16_swish_c0f96f3c44b72a@cask6_myelin@@YA?AW4Status@1@AEAVContext@1@@Z
    ?InitializeDynamicShaders_cutlass3x_common_cutlass3x_sm100_bstensorop_s256x192x64gemm_ue4m3xf4_ue4m3xf4_f32_f16_f16_bias_f16_swish_e498a566b7b83f3a@cask6_myelin@@YA?AW4Status@1@AEAVContext@1@@Z
    ?InitializeDynamicShaders_cutlass3x_common_cutlass3x_sm100_bstensorop_s256x192x64gemm_ue4m3xf4_ue4m3xf4_f32_f16_ue4m3xe2m1_bias_f16_gelu_epiVs16_1dc0e2b05909ccd6@cask6_myelin@@YA?AW4Status@1@AEAVContext@1@@Z
    ?InitializeDynamicShaders_cutlass3x_common_cutlass3x_sm100_bstensorop_s256x192x64gemm_ue4m3xf4_ue4m3xf4_f32_f16_ue4m3xe2m1_bias_f16_gelu_epiVs16_bb91614f15a34f16@cask6_myelin@@YA?AW4Status@1@AEAVContext@1@@Z
    ?InitializeDynamicShaders_cutlass3x_common_cutlass3x_sm100_bstensorop_s256x192x64gemm_ue4m3xf4_ue4m3xf4_f32_f16_ue4m3xe2m1_bias_f16_relu_epiVs16_6197da375314ee26@cask6_myelin@@YA?AW4Status@1@AEAVContext@1@@Z
    ?InitializeDynamicShaders_cutlass3x_common_cutlass3x_sm100_bstensorop_s256x192x64gemm_ue4m3xf4_ue4m3xf4_f32_f16_ue4m3xe2m1_bias_f16_relu_epiVs16_f5f2cf4e6e160a6a@cask6_myelin@@YA?AW4Status@1@AEAVContext@1@@Z
    ?InitializeDynamicShaders_cutlass3x_common_cutlass3x_sm100_bstensorop_s256x192x64gemm_ue4m3xf4_ue4m3xf4_f32_f16_ue4m3xe2m1_bias_f16_swish_epiVs16_1806c2d2a192f957@cask6_myelin@@YA?AW4Status@1@AEAVContext@1@@Z
    ?InitializeDynamicShaders_cutlass3x_common_cutlass3x_sm100_bstensorop_s256x192x64gemm_ue4m3xf4_ue4m3xf4_f32_f16_ue4m3xe2m1_bias_f16_swish_epiVs16_b369d3c224ef4ca3@cask6_myelin@@YA?AW4Status@1@AEAVContext@1@@Z
    ?InitializeDynamicShaders_cutlass3x_common_cutlass3x_sm100_bstensorop_s256x192x64gemm_ue4m3xf4_ue4m3xf4_f32_f32_f32_bias_bf16_gelu_b5845996030cfbd2@cask6_myelin@@YA?AW4Status@1@AEAVContext@1@@Z
    ?InitializeDynamicShaders_cutlass3x_common_cutlass3x_sm100_bstensorop_s256x192x64gemm_ue4m3xf4_ue4m3xf4_f32_f32_f32_bias_bf16_gelu_fa5bde89e4d470d2@cask6_myelin@@YA?AW4Status@1@AEAVContext@1@@Z
    ?InitializeDynamicShaders_cutlass3x_common_cutlass3x_sm100_bstensorop_s256x192x64gemm_ue4m3xf4_ue4m3xf4_f32_f32_f32_bias_bf16_relu_4abace28d531024c@cask6_myelin@@YA?AW4Status@1@AEAVContext@1@@Z
    ?InitializeDynamicShaders_cutlass3x_common_cutlass3x_sm100_bstensorop_s256x192x64gemm_ue4m3xf4_ue4m3xf4_f32_f32_f32_bias_bf16_relu_7e8d994aba591a7c@cask6_myelin@@YA?AW4Status@1@AEAVContext@1@@Z
    ?InitializeDynamicShaders_cutlass3x_common_cutlass3x_sm100_bstensorop_s256x192x64gemm_ue4m3xf4_ue4m3xf4_f32_f32_f32_bias_bf16_swish_4101b7a90461500c@cask6_myelin@@YA?AW4Status@1@AEAVContext@1@@Z
    ?InitializeDynamicShaders_cutlass3x_common_cutlass3x_sm100_bstensorop_s256x192x64gemm_ue4m3xf4_ue4m3xf4_f32_f32_f32_bias_bf16_swish_7d76ebd4bab4317c@cask6_myelin@@YA?AW4Status@1@AEAVContext@1@@Z
    ?InitializeDynamicShaders_cutlass3x_common_cutlass3x_sm100_bstensorop_s256x256x32gemm_ue8m0xf8_ue8m0xf8_f32_bf16_bf16_bias_bf16_gelu_87ace4049243a60c@cask6_myelin@@YA?AW4Status@1@AEAVContext@1@@Z
    ?InitializeDynamicShaders_cutlass3x_common_cutlass3x_sm100_bstensorop_s256x256x32gemm_ue8m0xf8_ue8m0xf8_f32_bf16_bf16_bias_bf16_gelu_e9a3f51c6b717e27@cask6_myelin@@YA?AW4Status@1@AEAVContext@1@@Z
    ?InitializeDynamicShaders_cutlass3x_common_cutlass3x_sm100_bstensorop_s256x256x32gemm_ue8m0xf8_ue8m0xf8_f32_bf16_bf16_bias_bf16_relu_41dca35e0516a8d6@cask6_myelin@@YA?AW4Status@1@AEAVContext@1@@Z
    ?InitializeDynamicShaders_cutlass3x_common_cutlass3x_sm100_bstensorop_s256x256x32gemm_ue8m0xf8_ue8m0xf8_f32_bf16_bf16_bias_bf16_relu_b06ed60274d5b485@cask6_myelin@@YA?AW4Status@1@AEAVContext@1@@Z
    ?InitializeDynamicShaders_cutlass3x_common_cutlass3x_sm100_bstensorop_s256x256x32gemm_ue8m0xf8_ue8m0xf8_f32_bf16_ue8m0xe4m3_bias_bf16_gelu_epiVs32_114510a2f33bb17b@cask6_myelin@@YA?AW4Status@1@AEAVContext@1@@Z
    ?InitializeDynamicShaders_cutlass3x_common_cutlass3x_sm100_bstensorop_s256x256x32gemm_ue8m0xf8_ue8m0xf8_f32_bf16_ue8m0xe4m3_bias_bf16_gelu_epiVs32_224e38faed89dfab@cask6_myelin@@YA?AW4Status@1@AEAVContext@1@@Z
    ?InitializeDynamicShaders_cutlass3x_common_cutlass3x_sm100_bstensorop_s256x256x32gemm_ue8m0xf8_ue8m0xf8_f32_bf16_ue8m0xe4m3_bias_bf16_relu_epiVs32_8772c7d32ff2f579@cask6_myelin@@YA?AW4Status@1@AEAVContext@1@@Z
    ?InitializeDynamicShaders_cutlass3x_common_cutlass3x_sm100_bstensorop_s256x256x32gemm_ue8m0xf8_ue8m0xf8_f32_bf16_ue8m0xe4m3_bias_bf16_relu_epiVs32_ccc84805b0d3bf4c@cask6_myelin@@YA?AW4Status@1@AEAVContext@1@@Z
    ?InitializeDynamicShaders_cutlass3x_common_cutlass3x_sm100_bstensorop_s256x256x32gemm_ue8m0xf8_ue8m0xf8_f32_f16_f16_bias_f16_gelu_7d22589a3785dd09@cask6_myelin@@YA?AW4Status@1@AEAVContext@1@@Z
    ?InitializeDynamicShaders_cutlass3x_common_cutlass3x_sm100_bstensorop_s256x256x32gemm_ue8m0xf8_ue8m0xf8_f32_f16_f16_bias_f16_gelu_991add6d4411d67a@cask6_myelin@@YA?AW4Status@1@AEAVContext@1@@Z
    ?InitializeDynamicShaders_cutlass3x_common_cutlass3x_sm100_bstensorop_s256x256x32gemm_ue8m0xf8_ue8m0xf8_f32_f16_f16_bias_f16_relu_5e2fbb5e183c709a@cask6_myelin@@YA?AW4Status@1@AEAVContext@1@@Z
    ?InitializeDynamicShaders_cutlass3x_common_cutlass3x_sm100_bstensorop_s256x256x32gemm_ue8m0xf8_ue8m0xf8_f32_f16_f16_bias_f16_relu_b7afcda11c98fd71@cask6_myelin@@YA?AW4Status@1@AEAVContext@1@@Z
    ?InitializeDynamicShaders_cutlass3x_common_cutlass3x_sm100_bstensorop_s256x256x32gemm_ue8m0xf8_ue8m0xf8_f32_f16_ue8m0xe4m3_bias_f16_gelu_epiVs32_53aafdd4168ea7cf@cask6_myelin@@YA?AW4Status@1@AEAVContext@1@@Z
    ?InitializeDynamicShaders_cutlass3x_common_cutlass3x_sm100_bstensorop_s256x256x32gemm_ue8m0xf8_ue8m0xf8_f32_f16_ue8m0xe4m3_bias_f16_gelu_epiVs32_b855ab974200a57c@cask6_myelin@@YA?AW4Status@1@AEAVContext@1@@Z
    ?InitializeDynamicShaders_cutlass3x_common_cutlass3x_sm100_bstensorop_s256x256x32gemm_ue8m0xf8_ue8m0xf8_f32_f16_ue8m0xe4m3_bias_f16_relu_epiVs32_7133711c47ee8636@cask6_myelin@@YA?AW4Status@1@AEAVContext@1@@Z
    ?InitializeDynamicShaders_cutlass3x_common_cutlass3x_sm100_bstensorop_s256x256x32gemm_ue8m0xf8_ue8m0xf8_f32_f16_ue8m0xe4m3_bias_f16_relu_epiVs32_c0d5c58923aa16c3@cask6_myelin@@YA?AW4Status@1@AEAVContext@1@@Z
    ?InitializeDynamicShaders_cutlass3x_common_cutlass3x_sm100_bstensorop_s256x256x64gemm_ue4m3xf4_ue4m3xf4_f32_bf16_bf16_bias_bf16_gelu_1aae6574c571eea5@cask6_myelin@@YA?AW4Status@1@AEAVContext@1@@Z
    ?InitializeDynamicShaders_cutlass3x_common_cutlass3x_sm100_bstensorop_s256x256x64gemm_ue4m3xf4_ue4m3xf4_f32_bf16_bf16_bias_bf16_gelu_fdc63364463f6226@cask6_myelin@@YA?AW4Status@1@AEAVContext@1@@Z
    ?InitializeDynamicShaders_cutlass3x_common_cutlass3x_sm100_bstensorop_s256x256x64gemm_ue4m3xf4_ue4m3xf4_f32_bf16_bf16_bias_bf16_relu_5a22bdd7cf8ad80f@cask6_myelin@@YA?AW4Status@1@AEAVContext@1@@Z
    ?InitializeDynamicShaders_cutlass3x_common_cutlass3x_sm100_bstensorop_s256x256x64gemm_ue4m3xf4_ue4m3xf4_f32_bf16_bf16_bias_bf16_relu_7b14cea57dee0209@cask6_myelin@@YA?AW4Status@1@AEAVContext@1@@Z
    ?InitializeDynamicShaders_cutlass3x_common_cutlass3x_sm100_bstensorop_s256x256x64gemm_ue4m3xf4_ue4m3xf4_f32_bf16_bf16_bias_bf16_swish_190015506865121a@cask6_myelin@@YA?AW4Status@1@AEAVContext@1@@Z
    ?InitializeDynamicShaders_cutlass3x_common_cutlass3x_sm100_bstensorop_s256x256x64gemm_ue4m3xf4_ue4m3xf4_f32_bf16_bf16_bias_bf16_swish_ae1ce8dbcd756a91@cask6_myelin@@YA?AW4Status@1@AEAVContext@1@@Z
    ?InitializeDynamicShaders_cutlass3x_common_cutlass3x_sm100_bstensorop_s256x256x64gemm_ue4m3xf4_ue4m3xf4_f32_bf16_ue4m3xe2m1_bias_bf16_gelu_epiVs16_792f9a7f1b0f7f22@cask6_myelin@@YA?AW4Status@1@AEAVContext@1@@Z
    ?InitializeDynamicShaders_cutlass3x_common_cutlass3x_sm100_bstensorop_s256x256x64gemm_ue4m3xf4_ue4m3xf4_f32_bf16_ue4m3xe2m1_bias_bf16_gelu_epiVs16_e24556315aa411d9@cask6_myelin@@YA?AW4Status@1@AEAVContext@1@@Z
    ?InitializeDynamicShaders_cutlass3x_common_cutlass3x_sm100_bstensorop_s256x256x64gemm_ue4m3xf4_ue4m3xf4_f32_bf16_ue4m3xe2m1_bias_bf16_relu_epiVs16_8249d521bafbca17@cask6_myelin@@YA?AW4Status@1@AEAVContext@1@@Z
    ?InitializeDynamicShaders_cutlass3x_common_cutlass3x_sm100_bstensorop_s256x256x64gemm_ue4m3xf4_ue4m3xf4_f32_bf16_ue4m3xe2m1_bias_bf16_relu_epiVs16_ca4a680a7aa05d0b@cask6_myelin@@YA?AW4Status@1@AEAVContext@1@@Z
    ?InitializeDynamicShaders_cutlass3x_common_cutlass3x_sm100_bstensorop_s256x256x64gemm_ue4m3xf4_ue4m3xf4_f32_bf16_ue4m3xe2m1_bias_bf16_swish_epiVs16_9463b66ba480ad9@cask6_myelin@@YA?AW4Status@1@AEAVContext@1@@Z
    ?InitializeDynamicShaders_cutlass3x_common_cutlass3x_sm100_bstensorop_s256x256x64gemm_ue4m3xf4_ue4m3xf4_f32_bf16_ue4m3xe2m1_bias_bf16_swish_epiVs16_ff67a58d71506207@cask6_myelin@@YA?AW4Status@1@AEAVContext@1@@Z
    ?InitializeDynamicShaders_cutlass3x_common_cutlass3x_sm100_bstensorop_s256x256x64gemm_ue4m3xf4_ue4m3xf4_f32_f16_f16_bias_f16_gelu_15464b6b774c4cc3@cask6_myelin@@YA?AW4Status@1@AEAVContext@1@@Z
    ?InitializeDynamicShaders_cutlass3x_common_cutlass3x_sm100_bstensorop_s256x256x64gemm_ue4m3xf4_ue4m3xf4_f32_f16_f16_bias_f16_gelu_a8dcd77f5d9691c7@cask6_myelin@@YA?AW4Status@1@AEAVContext@1@@Z
    ?InitializeDynamicShaders_cutlass3x_common_cutlass3x_sm100_bstensorop_s256x256x64gemm_ue4m3xf4_ue4m3xf4_f32_f16_f16_bias_f16_relu_75792d4dd126376d@cask6_myelin@@YA?AW4Status@1@AEAVContext@1@@Z
    ?InitializeDynamicShaders_cutlass3x_common_cutlass3x_sm100_bstensorop_s256x256x64gemm_ue4m3xf4_ue4m3xf4_f32_f16_f16_bias_f16_relu_9d4d6f2a64c45cc3@cask6_myelin@@YA?AW4Status@1@AEAVContext@1@@Z
    ?InitializeDynamicShaders_cutlass3x_common_cutlass3x_sm100_bstensorop_s256x256x64gemm_ue4m3xf4_ue4m3xf4_f32_f16_f16_bias_f16_swish_7bc470787e95044f@cask6_myelin@@YA?AW4Status@1@AEAVContext@1@@Z
    ?InitializeDynamicShaders_cutlass3x_common_cutlass3x_sm100_bstensorop_s256x256x64gemm_ue4m3xf4_ue4m3xf4_f32_f16_f16_bias_f16_swish_dc90f903622367a@cask6_myelin@@YA?AW4Status@1@AEAVContext@1@@Z
    ?InitializeDynamicShaders_cutlass3x_common_cutlass3x_sm100_bstensorop_s256x256x64gemm_ue4m3xf4_ue4m3xf4_f32_f16_ue4m3xe2m1_bias_f16_gelu_epiVs16_df34ef0b0d2e8ded@cask6_myelin@@YA?AW4Status@1@AEAVContext@1@@Z
    ?InitializeDynamicShaders_cutlass3x_common_cutlass3x_sm100_bstensorop_s256x256x64gemm_ue4m3xf4_ue4m3xf4_f32_f16_ue4m3xe2m1_bias_f16_gelu_epiVs16_f99c70169788db64@cask6_myelin@@YA?AW4Status@1@AEAVContext@1@@Z
    ?InitializeDynamicShaders_cutlass3x_common_cutlass3x_sm100_bstensorop_s256x256x64gemm_ue4m3xf4_ue4m3xf4_f32_f16_ue4m3xe2m1_bias_f16_relu_epiVs16_20826bb92a7c3de0@cask6_myelin@@YA?AW4Status@1@AEAVContext@1@@Z
    ?InitializeDynamicShaders_cutlass3x_common_cutlass3x_sm100_bstensorop_s256x256x64gemm_ue4m3xf4_ue4m3xf4_f32_f16_ue4m3xe2m1_bias_f16_relu_epiVs16_2b12d5a4c0c5b224@cask6_myelin@@YA?AW4Status@1@AEAVContext@1@@Z
    ?InitializeDynamicShaders_cutlass3x_common_cutlass3x_sm100_bstensorop_s256x256x64gemm_ue4m3xf4_ue4m3xf4_f32_f16_ue4m3xe2m1_bias_f16_swish_epiVs16_37686c2b9adf2a75@cask6_myelin@@YA?AW4Status@1@AEAVContext@1@@Z
    ?InitializeDynamicShaders_cutlass3x_common_cutlass3x_sm100_bstensorop_s256x256x64gemm_ue4m3xf4_ue4m3xf4_f32_f16_ue4m3xe2m1_bias_f16_swish_epiVs16_be91d431acd175f6@cask6_myelin@@YA?AW4Status@1@AEAVContext@1@@Z
    ?InitializeDynamicShaders_cutlass3x_common_cutlass3x_sm100_bstensorop_s256x256x64gemm_ue4m3xf4_ue4m3xf4_f32_f32_f32_bias_bf16_gelu_f6367a500059ad34@cask6_myelin@@YA?AW4Status@1@AEAVContext@1@@Z
    ?InitializeDynamicShaders_cutlass3x_common_cutlass3x_sm100_bstensorop_s256x256x64gemm_ue4m3xf4_ue4m3xf4_f32_f32_f32_bias_bf16_gelu_f96c75ff4476c968@cask6_myelin@@YA?AW4Status@1@AEAVContext@1@@Z
    ?InitializeDynamicShaders_cutlass3x_common_cutlass3x_sm100_bstensorop_s256x256x64gemm_ue4m3xf4_ue4m3xf4_f32_f32_f32_bias_bf16_relu_5f911941b67a7c2@cask6_myelin@@YA?AW4Status@1@AEAVContext@1@@Z
    ?InitializeDynamicShaders_cutlass3x_common_cutlass3x_sm100_bstensorop_s256x256x64gemm_ue4m3xf4_ue4m3xf4_f32_f32_f32_bias_bf16_relu_e09368cdbc2ffc0f@cask6_myelin@@YA?AW4Status@1@AEAVContext@1@@Z
    ?InitializeDynamicShaders_cutlass3x_common_cutlass3x_sm100_bstensorop_s256x256x64gemm_ue4m3xf4_ue4m3xf4_f32_f32_f32_bias_bf16_swish_59123944e3ce7d2c@cask6_myelin@@YA?AW4Status@1@AEAVContext@1@@Z
    ?InitializeDynamicShaders_cutlass3x_common_cutlass3x_sm100_bstensorop_s256x256x64gemm_ue4m3xf4_ue4m3xf4_f32_f32_f32_bias_bf16_swish_861d78d4cf78f3c2@cask6_myelin@@YA?AW4Status@1@AEAVContext@1@@Z
    ?InitializeDynamicShaders_cutlass3x_common_cutlass3x_sm100_reorder_1fde29107c978e8b@cask6_myelin@@YA?AW4Status@1@AEAVContext@1@@Z
    ?InitializeDynamicShaders_cutlass3x_common_cutlass3x_sm100_reorder_3efd63309f64cd6a@cask6_myelin@@YA?AW4Status@1@AEAVContext@1@@Z
    ?InitializeDynamicShaders_cutlass3x_common_cutlass3x_sm100_reorder_9873aa231504dfde@cask6_myelin@@YA?AW4Status@1@AEAVContext@1@@Z
    ?InitializeDynamicShaders_cutlass3x_common_cutlass3x_sm100_reorder_bc7bf062766a15dc@cask6_myelin@@YA?AW4Status@1@AEAVContext@1@@Z
    ?InitializeDynamicShaders_cutlass3x_common_cutlass3x_sm100_reorder_c316743eabccd799@cask6_myelin@@YA?AW4Status@1@AEAVContext@1@@Z
    ?InitializeDynamicShaders_cutlass3x_common_cutlass3x_sm100_reorder_d53eeea777c0dbff@cask6_myelin@@YA?AW4Status@1@AEAVContext@1@@Z
    ?InitializeDynamicShaders_cutlass3x_common_cutlass3x_sm100_reorder_fa9e3043a2e07844@cask6_myelin@@YA?AW4Status@1@AEAVContext@1@@Z
    ?InitializeDynamicShaders_cutlass3x_common_cutlass3x_sm100_reorder_fd03633c25692bb8@cask6_myelin@@YA?AW4Status@1@AEAVContext@1@@Z
    ?InitializeDynamicShaders_cutlass3x_common_cutlass3x_sm100_sparse_compression_13551dffaee6232@cask6_myelin@@YA?AW4Status@1@AEAVContext@1@@Z
    ?InitializeDynamicShaders_cutlass3x_common_cutlass3x_sm100_sparse_compression_346776dac846b0f1@cask6_myelin@@YA?AW4Status@1@AEAVContext@1@@Z
    ?InitializeDynamicShaders_cutlass3x_common_cutlass3x_sm100_sparse_compression_36d2559049d817c0@cask6_myelin@@YA?AW4Status@1@AEAVContext@1@@Z
    ?InitializeDynamicShaders_cutlass3x_common_cutlass3x_sm100_sparse_compression_3ed74aa023c15220@cask6_myelin@@YA?AW4Status@1@AEAVContext@1@@Z
    ?InitializeDynamicShaders_cutlass3x_common_cutlass3x_sm100_sparse_compression_4280e18efe4718b2@cask6_myelin@@YA?AW4Status@1@AEAVContext@1@@Z
    ?InitializeDynamicShaders_cutlass3x_common_cutlass3x_sm100_sparse_compression_4c4342503c22fa89@cask6_myelin@@YA?AW4Status@1@AEAVContext@1@@Z
    ?InitializeDynamicShaders_cutlass3x_common_cutlass3x_sm100_sparse_compression_4e66d8c02825fab2@cask6_myelin@@YA?AW4Status@1@AEAVContext@1@@Z
    ?InitializeDynamicShaders_cutlass3x_common_cutlass3x_sm100_sparse_compression_64812c771905a792@cask6_myelin@@YA?AW4Status@1@AEAVContext@1@@Z
    ?InitializeDynamicShaders_cutlass3x_common_cutlass3x_sm100_sparse_compression_6f51d567a01e6308@cask6_myelin@@YA?AW4Status@1@AEAVContext@1@@Z
    ?InitializeDynamicShaders_cutlass3x_common_cutlass3x_sm100_sparse_compression_843178fe6b813a25@cask6_myelin@@YA?AW4Status@1@AEAVContext@1@@Z
    ?InitializeDynamicShaders_cutlass3x_common_cutlass3x_sm100_sparse_compression_850790bcc73fa994@cask6_myelin@@YA?AW4Status@1@AEAVContext@1@@Z
    ?InitializeDynamicShaders_cutlass3x_common_cutlass3x_sm100_sparse_compression_a0bc47aae69d2468@cask6_myelin@@YA?AW4Status@1@AEAVContext@1@@Z
    ?InitializeDynamicShaders_cutlass3x_common_cutlass3x_sm100_sparse_compression_a3000c218d3bc964@cask6_myelin@@YA?AW4Status@1@AEAVContext@1@@Z
    ?InitializeDynamicShaders_cutlass3x_common_cutlass3x_sm100_sparse_compression_a49e62139e99997c@cask6_myelin@@YA?AW4Status@1@AEAVContext@1@@Z
    ?InitializeDynamicShaders_cutlass3x_common_cutlass3x_sm100_sparse_compression_d29fcf64077d88a4@cask6_myelin@@YA?AW4Status@1@AEAVContext@1@@Z
    ?InitializeDynamicShaders_cutlass3x_common_cutlass3x_sm100_sparse_compression_dd4a85bba3963e61@cask6_myelin@@YA?AW4Status@1@AEAVContext@1@@Z
    ?InitializeDynamicShaders_cutlass3x_common_cutlass3x_sm100_sparse_compression_e614438e611035f8@cask6_myelin@@YA?AW4Status@1@AEAVContext@1@@Z
    ?InitializeDynamicShaders_cutlass3x_common_cutlass3x_sm100_sparse_compression_e8ea13779d18ee03@cask6_myelin@@YA?AW4Status@1@AEAVContext@1@@Z
    ?InitializeDynamicShaders_cutlass3x_common_cutlass3x_sm100_sparse_compression_f557fa64d6653d@cask6_myelin@@YA?AW4Status@1@AEAVContext@1@@Z
    ?InitializeDynamicShaders_cutlass3x_common_cutlass3x_sm100_sparse_compression_f9c669ebf409bbe2@cask6_myelin@@YA?AW4Status@1@AEAVContext@1@@Z
    ?InitializeDynamicShaders_cutlass3x_common_cutlass3x_sm100_sptensorop_i128x128x64spgemm_s8_s8_s32_bf16_bf16_biasbf16_relu_valpha_vbeta_e23d17ed5255c686@cask6_myelin@@YA?AW4Status@1@AEAVContext@1@@Z
    ?InitializeDynamicShaders_cutlass3x_common_cutlass3x_sm100_sptensorop_i128x128x64spgemm_s8_s8_s32_bf16_bf16_biasbf16_valpha_vbeta_a9f60dfb4d81d631@cask6_myelin@@YA?AW4Status@1@AEAVContext@1@@Z
    ?InitializeDynamicShaders_cutlass3x_common_cutlass3x_sm100_sptensorop_i128x128x64spgemm_s8_s8_s32_f16_f16_biasf16_relu_valpha_vbeta_e0f3e3ae09dfe877@cask6_myelin@@YA?AW4Status@1@AEAVContext@1@@Z
    ?InitializeDynamicShaders_cutlass3x_common_cutlass3x_sm100_sptensorop_i128x128x64spgemm_s8_s8_s32_f16_f16_biasf16_valpha_vbeta_32de7c119c639ea2@cask6_myelin@@YA?AW4Status@1@AEAVContext@1@@Z
    ?InitializeDynamicShaders_cutlass3x_common_cutlass3x_sm100_sptensorop_i128x128x64spgemm_s8_s8_s32_f32_f32_biasf32_relu_valpha_vbeta_5ee844e86dd8ad65@cask6_myelin@@YA?AW4Status@1@AEAVContext@1@@Z
    ?InitializeDynamicShaders_cutlass3x_common_cutlass3x_sm100_sptensorop_i128x128x64spgemm_s8_s8_s32_s8_s8_biasf32_relu_valpha_vbeta_bf6376be20d99b55@cask6_myelin@@YA?AW4Status@1@AEAVContext@1@@Z
    ?InitializeDynamicShaders_cutlass3x_common_cutlass3x_sm100_sptensorop_i128x128x64spgemm_s8_s8_s32_s8_s8_biasf32_valpha_vbeta_5a713485f31a75d2@cask6_myelin@@YA?AW4Status@1@AEAVContext@1@@Z
    ?InitializeDynamicShaders_cutlass3x_common_cutlass3x_sm100_sptensorop_i128x128x64spgemm_s8_s8_s32_s8_s8_biasf32_valpha_vbeta_6d85a07ec20c7634@cask6_myelin@@YA?AW4Status@1@AEAVContext@1@@Z
    ?InitializeDynamicShaders_cutlass3x_common_cutlass3x_sm100_sptensorop_i256x128x64spgemm_s8_s8_s32_bf16_bf16_biasbf16_relu_valpha_vbeta_b1749e3fa5e0310e@cask6_myelin@@YA?AW4Status@1@AEAVContext@1@@Z
    ?InitializeDynamicShaders_cutlass3x_common_cutlass3x_sm100_sptensorop_i256x128x64spgemm_s8_s8_s32_bf16_bf16_biasbf16_valpha_vbeta_2165411067a1b4f@cask6_myelin@@YA?AW4Status@1@AEAVContext@1@@Z
    ?InitializeDynamicShaders_cutlass3x_common_cutlass3x_sm100_sptensorop_i256x128x64spgemm_s8_s8_s32_f16_f16_biasf16_relu_valpha_vbeta_507be511ae7a25c7@cask6_myelin@@YA?AW4Status@1@AEAVContext@1@@Z
    ?InitializeDynamicShaders_cutlass3x_common_cutlass3x_sm100_sptensorop_i256x128x64spgemm_s8_s8_s32_f16_f16_biasf16_valpha_vbeta_41e21de81dd1cd2c@cask6_myelin@@YA?AW4Status@1@AEAVContext@1@@Z
    ?InitializeDynamicShaders_cutlass3x_common_cutlass3x_sm100_sptensorop_i256x128x64spgemm_s8_s8_s32_f32_f32_biasf32_relu_valpha_vbeta_43c91810bb135742@cask6_myelin@@YA?AW4Status@1@AEAVContext@1@@Z
    ?InitializeDynamicShaders_cutlass3x_common_cutlass3x_sm100_sptensorop_i256x128x64spgemm_s8_s8_s32_s8_s8_biasf32_relu_valpha_vbeta_71e92bc6e89544d6@cask6_myelin@@YA?AW4Status@1@AEAVContext@1@@Z
    ?InitializeDynamicShaders_cutlass3x_common_cutlass3x_sm100_sptensorop_i256x128x64spgemm_s8_s8_s32_s8_s8_biasf32_valpha_vbeta_59c5ec68083d7fe2@cask6_myelin@@YA?AW4Status@1@AEAVContext@1@@Z
    ?InitializeDynamicShaders_cutlass3x_common_cutlass3x_sm100_sptensorop_i256x128x64spgemm_s8_s8_s32_s8_s8_biasf32_valpha_vbeta_7f4bd34917b88729@cask6_myelin@@YA?AW4Status@1@AEAVContext@1@@Z
    ?InitializeDynamicShaders_cutlass3x_common_cutlass3x_sm100_sptensorop_s128x128x32spgemm_bf16_bf16_f32_bf16_bf16_biasbf16_2be5974f55192eb1@cask6_myelin@@YA?AW4Status@1@AEAVContext@1@@Z
    ?InitializeDynamicShaders_cutlass3x_common_cutlass3x_sm100_sptensorop_s128x128x32spgemm_bf16_bf16_f32_bf16_bf16_biasbf16_57e7306dc1c3b865@cask6_myelin@@YA?AW4Status@1@AEAVContext@1@@Z
    ?InitializeDynamicShaders_cutlass3x_common_cutlass3x_sm100_sptensorop_s128x128x32spgemm_bf16_bf16_f32_bf16_bf16_biasbf16_dc8b70b9080a2c84@cask6_myelin@@YA?AW4Status@1@AEAVContext@1@@Z
    ?InitializeDynamicShaders_cutlass3x_common_cutlass3x_sm100_sptensorop_s128x128x32spgemm_bf16_bf16_f32_bf16_bf16_biasbf16_f38e34d40ab492a0@cask6_myelin@@YA?AW4Status@1@AEAVContext@1@@Z
    ?InitializeDynamicShaders_cutlass3x_common_cutlass3x_sm100_sptensorop_s128x128x32spgemm_bf16_bf16_f32_bf16_bf16_biasbf16_relu_3571fad6b5615664@cask6_myelin@@YA?AW4Status@1@AEAVContext@1@@Z
    ?InitializeDynamicShaders_cutlass3x_common_cutlass3x_sm100_sptensorop_s128x128x32spgemm_bf16_bf16_f32_bf16_bf16_biasbf16_relu_d5c62ef3e7181df@cask6_myelin@@YA?AW4Status@1@AEAVContext@1@@Z
    ?InitializeDynamicShaders_cutlass3x_common_cutlass3x_sm100_sptensorop_s128x128x32spgemm_f16_f16_f32_f16_f16_biasf16_44575d9ea20cd9b3@cask6_myelin@@YA?AW4Status@1@AEAVContext@1@@Z
    ?InitializeDynamicShaders_cutlass3x_common_cutlass3x_sm100_sptensorop_s128x128x32spgemm_f16_f16_f32_f16_f16_biasf16_536835c230bd1bf4@cask6_myelin@@YA?AW4Status@1@AEAVContext@1@@Z
    ?InitializeDynamicShaders_cutlass3x_common_cutlass3x_sm100_sptensorop_s128x128x32spgemm_f16_f16_f32_f16_f16_biasf16_6cff5390e741d9b7@cask6_myelin@@YA?AW4Status@1@AEAVContext@1@@Z
    ?InitializeDynamicShaders_cutlass3x_common_cutlass3x_sm100_sptensorop_s128x128x32spgemm_f16_f16_f32_f16_f16_biasf16_79159d12593af545@cask6_myelin@@YA?AW4Status@1@AEAVContext@1@@Z
    ?InitializeDynamicShaders_cutlass3x_common_cutlass3x_sm100_sptensorop_s128x128x32spgemm_f16_f16_f32_f16_f16_biasf16_b1f70c7015591614@cask6_myelin@@YA?AW4Status@1@AEAVContext@1@@Z
    ?InitializeDynamicShaders_cutlass3x_common_cutlass3x_sm100_sptensorop_s128x128x32spgemm_f16_f16_f32_f16_f16_biasf16_b755cc4d1e7cbeca@cask6_myelin@@YA?AW4Status@1@AEAVContext@1@@Z
    ?InitializeDynamicShaders_cutlass3x_common_cutlass3x_sm100_sptensorop_s128x128x32spgemm_f16_f16_f32_f16_f16_biasf16_bc51bc392a51dee@cask6_myelin@@YA?AW4Status@1@AEAVContext@1@@Z
    ?InitializeDynamicShaders_cutlass3x_common_cutlass3x_sm100_sptensorop_s128x128x32spgemm_f16_f16_f32_f16_f16_biasf16_e7854ef98d6bad6c@cask6_myelin@@YA?AW4Status@1@AEAVContext@1@@Z
    ?InitializeDynamicShaders_cutlass3x_common_cutlass3x_sm100_sptensorop_s128x128x32spgemm_f16_f16_f32_f16_f16_biasf16_relu_137bf02fb46f2d6d@cask6_myelin@@YA?AW4Status@1@AEAVContext@1@@Z
    ?InitializeDynamicShaders_cutlass3x_common_cutlass3x_sm100_sptensorop_s128x128x32spgemm_f16_f16_f32_f16_f16_biasf16_relu_1da2c0573bbc0758@cask6_myelin@@YA?AW4Status@1@AEAVContext@1@@Z
    ?InitializeDynamicShaders_cutlass3x_common_cutlass3x_sm100_sptensorop_s128x128x32spgemm_f16_f16_f32_f16_f16_biasf16_relu_bcc28c5ebb4cfad8@cask6_myelin@@YA?AW4Status@1@AEAVContext@1@@Z
    ?InitializeDynamicShaders_cutlass3x_common_cutlass3x_sm100_sptensorop_s128x128x32spgemm_f16_f16_f32_f16_f16_biasf16_relu_e5c3568c45a966f1@cask6_myelin@@YA?AW4Status@1@AEAVContext@1@@Z
    ?InitializeDynamicShaders_cutlass3x_common_cutlass3x_sm100_sptensorop_s128x128x64spgemm_e4m3_e4m3_f32_e4m3_e4m3_biasf32_relu_valpha_vbeta_3eac3af85bd65735@cask6_myelin@@YA?AW4Status@1@AEAVContext@1@@Z
    ?InitializeDynamicShaders_cutlass3x_common_cutlass3x_sm100_sptensorop_s128x128x64spgemm_e4m3_e4m3_f32_e4m3_e4m3_biasf32_valpha_vbeta_a5f11d990f9746cf@cask6_myelin@@YA?AW4Status@1@AEAVContext@1@@Z
    ?InitializeDynamicShaders_cutlass3x_common_cutlass3x_sm100_sptensorop_s128x128x64spgemm_e4m3_e4m3_f32_e4m3_e4m3_biasf32_valpha_vbeta_c25bdba999f88dfa@cask6_myelin@@YA?AW4Status@1@AEAVContext@1@@Z
    ?InitializeDynamicShaders_cutlass3x_common_cutlass3x_sm100_sptensorop_s128x128x64spgemm_e4m3_e4m3_f32_f16_f16_biasf16_relu_valpha_vbeta_ca127581b5e91484@cask6_myelin@@YA?AW4Status@1@AEAVContext@1@@Z
    ?InitializeDynamicShaders_cutlass3x_common_cutlass3x_sm100_sptensorop_s128x128x64spgemm_e4m3_e4m3_f32_f16_f16_biasf16_valpha_vbeta_227b0f85d30dcc6a@cask6_myelin@@YA?AW4Status@1@AEAVContext@1@@Z
    ?InitializeDynamicShaders_cutlass3x_common_cutlass3x_sm100_sptensorop_s128x128x64spgemm_e4m3_e4m3_f32_f32_f32_biasf32_relu_valpha_vbeta_6c92499bf1308157@cask6_myelin@@YA?AW4Status@1@AEAVContext@1@@Z
    ?InitializeDynamicShaders_cutlass3x_common_cutlass3x_sm100_sptensorop_s128x128x64spgemm_e4m3_e4m3_f32_f32_f32_biasf32_valpha_vbeta_931deb89e22e86ca@cask6_myelin@@YA?AW4Status@1@AEAVContext@1@@Z
    ?InitializeDynamicShaders_cutlass3x_common_cutlass3x_sm100_sptensorop_s256x128x32spgemm_bf16_bf16_f32_bf16_bf16_biasbf16_19dc608c26c5ec46@cask6_myelin@@YA?AW4Status@1@AEAVContext@1@@Z
    ?InitializeDynamicShaders_cutlass3x_common_cutlass3x_sm100_sptensorop_s256x128x32spgemm_bf16_bf16_f32_bf16_bf16_biasbf16_2cd9740528b4ac2a@cask6_myelin@@YA?AW4Status@1@AEAVContext@1@@Z
    ?InitializeDynamicShaders_cutlass3x_common_cutlass3x_sm100_sptensorop_s256x128x32spgemm_bf16_bf16_f32_bf16_bf16_biasbf16_6f1ac30eaffe7a7f@cask6_myelin@@YA?AW4Status@1@AEAVContext@1@@Z
    ?InitializeDynamicShaders_cutlass3x_common_cutlass3x_sm100_sptensorop_s256x128x32spgemm_bf16_bf16_f32_bf16_bf16_biasbf16_e81416421b324b38@cask6_myelin@@YA?AW4Status@1@AEAVContext@1@@Z
    ?InitializeDynamicShaders_cutlass3x_common_cutlass3x_sm100_sptensorop_s256x128x32spgemm_bf16_bf16_f32_bf16_bf16_biasbf16_relu_735a4ec5e7b5da7f@cask6_myelin@@YA?AW4Status@1@AEAVContext@1@@Z
    ?InitializeDynamicShaders_cutlass3x_common_cutlass3x_sm100_sptensorop_s256x128x32spgemm_bf16_bf16_f32_bf16_bf16_biasbf16_relu_d3858371c198931@cask6_myelin@@YA?AW4Status@1@AEAVContext@1@@Z
    ?InitializeDynamicShaders_cutlass3x_common_cutlass3x_sm100_sptensorop_s256x128x32spgemm_f16_f16_f32_f16_f16_biasf16_43b6e8f87d9d678d@cask6_myelin@@YA?AW4Status@1@AEAVContext@1@@Z
    ?InitializeDynamicShaders_cutlass3x_common_cutlass3x_sm100_sptensorop_s256x128x32spgemm_f16_f16_f32_f16_f16_biasf16_562d6f00592e556f@cask6_myelin@@YA?AW4Status@1@AEAVContext@1@@Z
    ?InitializeDynamicShaders_cutlass3x_common_cutlass3x_sm100_sptensorop_s256x128x32spgemm_f16_f16_f32_f16_f16_biasf16_6497ae608a792640@cask6_myelin@@YA?AW4Status@1@AEAVContext@1@@Z
    ?InitializeDynamicShaders_cutlass3x_common_cutlass3x_sm100_sptensorop_s256x128x32spgemm_f16_f16_f32_f16_f16_biasf16_73fb09e5673a19ba@cask6_myelin@@YA?AW4Status@1@AEAVContext@1@@Z
    ?InitializeDynamicShaders_cutlass3x_common_cutlass3x_sm100_sptensorop_s256x128x32spgemm_f16_f16_f32_f16_f16_biasf16_7f3f6d964dd8c0c8@cask6_myelin@@YA?AW4Status@1@AEAVContext@1@@Z
    ?InitializeDynamicShaders_cutlass3x_common_cutlass3x_sm100_sptensorop_s256x128x32spgemm_f16_f16_f32_f16_f16_biasf16_97c11a93124719f3@cask6_myelin@@YA?AW4Status@1@AEAVContext@1@@Z
    ?InitializeDynamicShaders_cutlass3x_common_cutlass3x_sm100_sptensorop_s256x128x32spgemm_f16_f16_f32_f16_f16_biasf16_a538265e95978796@cask6_myelin@@YA?AW4Status@1@AEAVContext@1@@Z
    ?InitializeDynamicShaders_cutlass3x_common_cutlass3x_sm100_sptensorop_s256x128x32spgemm_f16_f16_f32_f16_f16_biasf16_eb316e225fdd4e79@cask6_myelin@@YA?AW4Status@1@AEAVContext@1@@Z
    ?InitializeDynamicShaders_cutlass3x_common_cutlass3x_sm100_sptensorop_s256x128x32spgemm_f16_f16_f32_f16_f16_biasf16_relu_713d16481d41234@cask6_myelin@@YA?AW4Status@1@AEAVContext@1@@Z
    ?InitializeDynamicShaders_cutlass3x_common_cutlass3x_sm100_sptensorop_s256x128x32spgemm_f16_f16_f32_f16_f16_biasf16_relu_8be9e4d32440d534@cask6_myelin@@YA?AW4Status@1@AEAVContext@1@@Z
    ?InitializeDynamicShaders_cutlass3x_common_cutlass3x_sm100_sptensorop_s256x128x32spgemm_f16_f16_f32_f16_f16_biasf16_relu_add3f070984689c3@cask6_myelin@@YA?AW4Status@1@AEAVContext@1@@Z
    ?InitializeDynamicShaders_cutlass3x_common_cutlass3x_sm100_sptensorop_s256x128x32spgemm_f16_f16_f32_f16_f16_biasf16_relu_ea2bb551221c9a4@cask6_myelin@@YA?AW4Status@1@AEAVContext@1@@Z
    ?InitializeDynamicShaders_cutlass3x_common_cutlass3x_sm100_sptensorop_s256x128x64spgemm_e4m3_e4m3_f32_e4m3_e4m3_biasf32_relu_valpha_vbeta_dfb3b54d3419e298@cask6_myelin@@YA?AW4Status@1@AEAVContext@1@@Z
    ?InitializeDynamicShaders_cutlass3x_common_cutlass3x_sm100_sptensorop_s256x128x64spgemm_e4m3_e4m3_f32_e4m3_e4m3_biasf32_valpha_vbeta_32b39493961927e@cask6_myelin@@YA?AW4Status@1@AEAVContext@1@@Z
    ?InitializeDynamicShaders_cutlass3x_common_cutlass3x_sm100_sptensorop_s256x128x64spgemm_e4m3_e4m3_f32_e4m3_e4m3_biasf32_valpha_vbeta_527a4bcdf025a04e@cask6_myelin@@YA?AW4Status@1@AEAVContext@1@@Z
    ?InitializeDynamicShaders_cutlass3x_common_cutlass3x_sm100_sptensorop_s256x128x64spgemm_e4m3_e4m3_f32_f16_f16_biasf16_relu_valpha_vbeta_a4f8169346149500@cask6_myelin@@YA?AW4Status@1@AEAVContext@1@@Z
    ?InitializeDynamicShaders_cutlass3x_common_cutlass3x_sm100_sptensorop_s256x128x64spgemm_e4m3_e4m3_f32_f16_f16_biasf16_valpha_vbeta_1f4efb82073a8338@cask6_myelin@@YA?AW4Status@1@AEAVContext@1@@Z
    ?InitializeDynamicShaders_cutlass3x_common_cutlass3x_sm100_sptensorop_s256x128x64spgemm_e4m3_e4m3_f32_f32_f32_biasf32_relu_valpha_vbeta_633b1a611679bd92@cask6_myelin@@YA?AW4Status@1@AEAVContext@1@@Z
    ?InitializeDynamicShaders_cutlass3x_common_cutlass3x_sm100_sptensorop_s256x128x64spgemm_e4m3_e4m3_f32_f32_f32_biasf32_valpha_vbeta_65c4f428eeb0ad76@cask6_myelin@@YA?AW4Status@1@AEAVContext@1@@Z
    ?InitializeDynamicShaders_cutlass3x_common_cutlass3x_sm100_tensorop_h128x128x16gemm_f16_f16_f16_f16_f16_bias_f16_gelu_epilogue_f32_e7d5daf20878f8f4@cask6_myelin@@YA?AW4Status@1@AEAVContext@1@@Z
    ?InitializeDynamicShaders_cutlass3x_common_cutlass3x_sm100_tensorop_h128x128x16gemm_f16_f16_f16_f16_f16_bias_f16_gelu_epilogue_f32_f0b57cafa8f7a961@cask6_myelin@@YA?AW4Status@1@AEAVContext@1@@Z
    ?InitializeDynamicShaders_cutlass3x_common_cutlass3x_sm100_tensorop_h128x128x16gemm_f16_f16_f16_f16_f16_bias_f16_gelu_erf_epilogue_f32_95a1d6e8e24970a5@cask6_myelin@@YA?AW4Status@1@AEAVContext@1@@Z
    ?InitializeDynamicShaders_cutlass3x_common_cutlass3x_sm100_tensorop_h128x128x16gemm_f16_f16_f16_f16_f16_bias_f16_gelu_erf_epilogue_f32_cca82b75c51a98a6@cask6_myelin@@YA?AW4Status@1@AEAVContext@1@@Z
    ?InitializeDynamicShaders_cutlass3x_common_cutlass3x_sm100_tensorop_h128x128x16gemm_f16_f16_f16_f16_f16_bias_f16_relu_epilogue_f32_7c02436ba26b51a4@cask6_myelin@@YA?AW4Status@1@AEAVContext@1@@Z
    ?InitializeDynamicShaders_cutlass3x_common_cutlass3x_sm100_tensorop_h128x128x16gemm_f16_f16_f16_f16_f16_bias_f16_relu_epilogue_f32_d0dc7a30faf8f541@cask6_myelin@@YA?AW4Status@1@AEAVContext@1@@Z
    ?InitializeDynamicShaders_cutlass3x_common_cutlass3x_sm100_tensorop_h128x128x16gemm_f16_f16_f16_f16_f16_bias_f16_relu_epilogue_f32_f42a392b8fde409a@cask6_myelin@@YA?AW4Status@1@AEAVContext@1@@Z
    ?InitializeDynamicShaders_cutlass3x_common_cutlass3x_sm100_tensorop_h128x256x16gemm_f16_f16_f16_f16_f16_bias_f16_relu_epilogue_f32_337c00dcc3a1ea38@cask6_myelin@@YA?AW4Status@1@AEAVContext@1@@Z
    ?InitializeDynamicShaders_cutlass3x_common_cutlass3x_sm100_tensorop_h128x256x16gemm_f16_f16_f16_f16_f16_bias_f16_relu_epilogue_f32_c603b75bcb6d1a49@cask6_myelin@@YA?AW4Status@1@AEAVContext@1@@Z
    ?InitializeDynamicShaders_cutlass3x_common_cutlass3x_sm100_tensorop_h128x64x16gemm_f16_f16_f16_f16_f16_bias_f16_gelu_erf_epilogue_f32_3e245f5af927ce07@cask6_myelin@@YA?AW4Status@1@AEAVContext@1@@Z
    ?InitializeDynamicShaders_cutlass3x_common_cutlass3x_sm100_tensorop_h128x64x16gemm_f16_f16_f16_f16_f16_bias_f16_gelu_erf_epilogue_f32_a5d9ccf774c920d5@cask6_myelin@@YA?AW4Status@1@AEAVContext@1@@Z
    ?InitializeDynamicShaders_cutlass3x_common_cutlass3x_sm100_tensorop_h128x64x16gemm_f16_f16_f16_f16_f16_bias_f16_relu_epilogue_f32_1f8abf6e68066119@cask6_myelin@@YA?AW4Status@1@AEAVContext@1@@Z
    ?InitializeDynamicShaders_cutlass3x_common_cutlass3x_sm100_tensorop_h128x64x16gemm_f16_f16_f16_f16_f16_bias_f16_relu_epilogue_f32_6cd03170793ba19a@cask6_myelin@@YA?AW4Status@1@AEAVContext@1@@Z
    ?InitializeDynamicShaders_cutlass3x_common_cutlass3x_sm100_tensorop_h128x64x16gemm_f16_f16_f16_f16_f16_bias_f16_relu_epilogue_f32_89eab1d0b29a959a@cask6_myelin@@YA?AW4Status@1@AEAVContext@1@@Z
    ?InitializeDynamicShaders_cutlass3x_common_cutlass3x_sm100_tensorop_h128x64x16gemm_f16_f16_f16_f16_f16_bias_f16_relu_epilogue_f32_ca5715dbefb0afc5@cask6_myelin@@YA?AW4Status@1@AEAVContext@1@@Z
    ?InitializeDynamicShaders_cutlass3x_common_cutlass3x_sm100_tensorop_h256x128x16gemm_f16_f16_f16_f16_f16_bias_f16_gelu_epilogue_f32_2407b9744285a5a9@cask6_myelin@@YA?AW4Status@1@AEAVContext@1@@Z
    ?InitializeDynamicShaders_cutlass3x_common_cutlass3x_sm100_tensorop_h256x128x16gemm_f16_f16_f16_f16_f16_bias_f16_gelu_epilogue_f32_4ce25c8027b3929a@cask6_myelin@@YA?AW4Status@1@AEAVContext@1@@Z
    ?InitializeDynamicShaders_cutlass3x_common_cutlass3x_sm100_tensorop_h256x128x16gemm_f16_f16_f16_f16_f16_bias_f16_relu_epilogue_f32_3654d14ac8ad3258@cask6_myelin@@YA?AW4Status@1@AEAVContext@1@@Z
    ?InitializeDynamicShaders_cutlass3x_common_cutlass3x_sm100_tensorop_h256x128x16gemm_f16_f16_f16_f16_f16_bias_f16_relu_epilogue_f32_c11264c725016387@cask6_myelin@@YA?AW4Status@1@AEAVContext@1@@Z
    ?InitializeDynamicShaders_cutlass3x_common_cutlass3x_sm100_tensorop_h256x256x16gemm_f16_f16_f16_f16_f16_bias_f16_relu_epilogue_f32_8dda4ba06142fb43@cask6_myelin@@YA?AW4Status@1@AEAVContext@1@@Z
    ?InitializeDynamicShaders_cutlass3x_common_cutlass3x_sm100_tensorop_h256x256x16gemm_f16_f16_f16_f16_f16_bias_f16_relu_epilogue_f32_c6e14438eeea85c1@cask6_myelin@@YA?AW4Status@1@AEAVContext@1@@Z
    ?InitializeDynamicShaders_cutlass3x_common_cutlass3x_sm100_tensorop_h256x64x16gemm_f16_f16_f16_f16_f16_bias_f16_gelu_erf_epilogue_f32_57c686cdab4bfd90@cask6_myelin@@YA?AW4Status@1@AEAVContext@1@@Z
    ?InitializeDynamicShaders_cutlass3x_common_cutlass3x_sm100_tensorop_h256x64x16gemm_f16_f16_f16_f16_f16_bias_f16_gelu_erf_epilogue_f32_68b83a50d6e6dcd9@cask6_myelin@@YA?AW4Status@1@AEAVContext@1@@Z
    ?InitializeDynamicShaders_cutlass3x_common_cutlass3x_sm100_tensorop_h64x128x16gemm_f16_f16_f16_f16_f16_bias_f16_relu_epilogue_f32_b1772c65e0726ebf@cask6_myelin@@YA?AW4Status@1@AEAVContext@1@@Z
    ?InitializeDynamicShaders_cutlass3x_common_cutlass3x_sm100_tensorop_h64x128x16gemm_f16_f16_f16_f16_f16_bias_f16_relu_epilogue_f32_ce26b10692ab4b19@cask6_myelin@@YA?AW4Status@1@AEAVContext@1@@Z
    ?InitializeDynamicShaders_cutlass3x_common_cutlass3x_sm100_tensorop_h64x64x16gemm_f16_f16_f16_f16_f16_bias_f16_relu_epilogue_f32_6a303c72ee7e5@cask6_myelin@@YA?AW4Status@1@AEAVContext@1@@Z
    ?InitializeDynamicShaders_cutlass3x_common_cutlass3x_sm100_tensorop_h64x64x16gemm_f16_f16_f16_f16_f16_bias_f16_relu_epilogue_f32_af55c29d026dece4@cask6_myelin@@YA?AW4Status@1@AEAVContext@1@@Z
    ?InitializeDynamicShaders_cutlass3x_common_cutlass3x_sm100_tensorop_h64x64x16gemm_f16_f16_f16_f16_f16_bias_f16_relu_epilogue_f32_d52dd4b7652799ff@cask6_myelin@@YA?AW4Status@1@AEAVContext@1@@Z
    ?InitializeDynamicShaders_cutlass3x_common_cutlass3x_sm100_tensorop_i128x128x32gemm_s8_s8_s32_bf16_bf16_bias_bf16_relu_valpha_vbeta_375051de9465e1bc@cask6_myelin@@YA?AW4Status@1@AEAVContext@1@@Z
    ?InitializeDynamicShaders_cutlass3x_common_cutlass3x_sm100_tensorop_i128x128x32gemm_s8_s8_s32_bf16_bf16_bias_bf16_relu_valpha_vbeta_5c339565907c8794@cask6_myelin@@YA?AW4Status@1@AEAVContext@1@@Z
    ?InitializeDynamicShaders_cutlass3x_common_cutlass3x_sm100_tensorop_i128x128x32gemm_s8_s8_s32_bf16_bf16_bias_bf16_relu_valpha_vbeta_838ea577e4747b94@cask6_myelin@@YA?AW4Status@1@AEAVContext@1@@Z
    ?InitializeDynamicShaders_cutlass3x_common_cutlass3x_sm100_tensorop_i128x128x32gemm_s8_s8_s32_bf16_bf16_bias_bf16_relu_valpha_vbeta_f41e05774a462485@cask6_myelin@@YA?AW4Status@1@AEAVContext@1@@Z
    ?InitializeDynamicShaders_cutlass3x_common_cutlass3x_sm100_tensorop_i128x128x32gemm_s8_s8_s32_f16_f16_bias_f16_relu_valpha_vbeta_312fe7307c351835@cask6_myelin@@YA?AW4Status@1@AEAVContext@1@@Z
    ?InitializeDynamicShaders_cutlass3x_common_cutlass3x_sm100_tensorop_i128x128x32gemm_s8_s8_s32_f16_f16_bias_f16_relu_valpha_vbeta_54ab21410166dcf5@cask6_myelin@@YA?AW4Status@1@AEAVContext@1@@Z
    ?InitializeDynamicShaders_cutlass3x_common_cutlass3x_sm100_tensorop_i128x128x32gemm_s8_s8_s32_f16_f16_bias_f16_relu_valpha_vbeta_d219f20aaca5a5e3@cask6_myelin@@YA?AW4Status@1@AEAVContext@1@@Z
    ?InitializeDynamicShaders_cutlass3x_common_cutlass3x_sm100_tensorop_i128x128x32gemm_s8_s8_s32_f16_f16_bias_f16_relu_valpha_vbeta_ee4977cdc23f8680@cask6_myelin@@YA?AW4Status@1@AEAVContext@1@@Z
    ?InitializeDynamicShaders_cutlass3x_common_cutlass3x_sm100_tensorop_i128x128x32gemm_s8_s8_s32_f32_f32_bias_f32_relu_valpha_vbeta_6306130dcb8a415f@cask6_myelin@@YA?AW4Status@1@AEAVContext@1@@Z
    ?InitializeDynamicShaders_cutlass3x_common_cutlass3x_sm100_tensorop_i128x128x32gemm_s8_s8_s32_f32_f32_bias_f32_relu_valpha_vbeta_66c813bd29ad800c@cask6_myelin@@YA?AW4Status@1@AEAVContext@1@@Z
    ?InitializeDynamicShaders_cutlass3x_common_cutlass3x_sm100_tensorop_i128x128x32gemm_s8_s8_s32_f32_f32_bias_f32_relu_valpha_vbeta_c4f3930d3b5f000d@cask6_myelin@@YA?AW4Status@1@AEAVContext@1@@Z
    ?InitializeDynamicShaders_cutlass3x_common_cutlass3x_sm100_tensorop_i128x128x32gemm_s8_s8_s32_f32_f32_bias_f32_relu_valpha_vbeta_eee6ba0a1d7fa717@cask6_myelin@@YA?AW4Status@1@AEAVContext@1@@Z
    ?InitializeDynamicShaders_cutlass3x_common_cutlass3x_sm100_tensorop_i128x128x32gemm_s8_s8_s32_s8_s8_bias_f32_gelu_erf_valpha_vbeta_639d18224354f6f1@cask6_myelin@@YA?AW4Status@1@AEAVContext@1@@Z
    ?InitializeDynamicShaders_cutlass3x_common_cutlass3x_sm100_tensorop_i128x128x32gemm_s8_s8_s32_s8_s8_bias_f32_gelu_erf_valpha_vbeta_7a025661047a8084@cask6_myelin@@YA?AW4Status@1@AEAVContext@1@@Z
    ?InitializeDynamicShaders_cutlass3x_common_cutlass3x_sm100_tensorop_i128x128x32gemm_s8_s8_s32_s8_s8_bias_f32_gelu_erf_valpha_vbeta_a734780acffa7d8b@cask6_myelin@@YA?AW4Status@1@AEAVContext@1@@Z
    ?InitializeDynamicShaders_cutlass3x_common_cutlass3x_sm100_tensorop_i128x128x32gemm_s8_s8_s32_s8_s8_bias_f32_gelu_erf_valpha_vbeta_cbcdc3d55ff46947@cask6_myelin@@YA?AW4Status@1@AEAVContext@1@@Z
    ?InitializeDynamicShaders_cutlass3x_common_cutlass3x_sm100_tensorop_i128x128x32gemm_s8_s8_s32_s8_s8_bias_f32_gelu_valpha_vbeta_147525468ea59f46@cask6_myelin@@YA?AW4Status@1@AEAVContext@1@@Z
    ?InitializeDynamicShaders_cutlass3x_common_cutlass3x_sm100_tensorop_i128x128x32gemm_s8_s8_s32_s8_s8_bias_f32_gelu_valpha_vbeta_7acfa71892416337@cask6_myelin@@YA?AW4Status@1@AEAVContext@1@@Z
    ?InitializeDynamicShaders_cutlass3x_common_cutlass3x_sm100_tensorop_i128x128x32gemm_s8_s8_s32_s8_s8_bias_f32_gelu_valpha_vbeta_8b816e61732d5f2d@cask6_myelin@@YA?AW4Status@1@AEAVContext@1@@Z
    ?InitializeDynamicShaders_cutlass3x_common_cutlass3x_sm100_tensorop_i128x128x32gemm_s8_s8_s32_s8_s8_bias_f32_gelu_valpha_vbeta_b68abd8522f785cc@cask6_myelin@@YA?AW4Status@1@AEAVContext@1@@Z
    ?InitializeDynamicShaders_cutlass3x_common_cutlass3x_sm100_tensorop_i128x128x32gemm_s8_s8_s32_s8_s8_bias_f32_relu_valpha_vbeta_3da36189f648f475@cask6_myelin@@YA?AW4Status@1@AEAVContext@1@@Z
    ?InitializeDynamicShaders_cutlass3x_common_cutlass3x_sm100_tensorop_i128x128x32gemm_s8_s8_s32_s8_s8_bias_f32_relu_valpha_vbeta_65c36247d3b78d27@cask6_myelin@@YA?AW4Status@1@AEAVContext@1@@Z
    ?InitializeDynamicShaders_cutlass3x_common_cutlass3x_sm100_tensorop_i128x128x32gemm_s8_s8_s32_s8_s8_bias_f32_relu_valpha_vbeta_7bea5c6ac83d4797@cask6_myelin@@YA?AW4Status@1@AEAVContext@1@@Z
    ?InitializeDynamicShaders_cutlass3x_common_cutlass3x_sm100_tensorop_i128x128x32gemm_s8_s8_s32_s8_s8_bias_f32_relu_valpha_vbeta_d2f3cf3ef4ac7ecf@cask6_myelin@@YA?AW4Status@1@AEAVContext@1@@Z
    ?InitializeDynamicShaders_cutlass3x_common_cutlass3x_sm100_tensorop_i128x256x32gemm_s8_s8_s32_bf16_bf16_bias_bf16_relu_valpha_vbeta_16b865d94dcfe760@cask6_myelin@@YA?AW4Status@1@AEAVContext@1@@Z
    ?InitializeDynamicShaders_cutlass3x_common_cutlass3x_sm100_tensorop_i128x256x32gemm_s8_s8_s32_bf16_bf16_bias_bf16_relu_valpha_vbeta_1fd3586e17eb19c0@cask6_myelin@@YA?AW4Status@1@AEAVContext@1@@Z
    ?InitializeDynamicShaders_cutlass3x_common_cutlass3x_sm100_tensorop_i128x256x32gemm_s8_s8_s32_bf16_bf16_bias_bf16_relu_valpha_vbeta_5a8980a1fd439b94@cask6_myelin@@YA?AW4Status@1@AEAVContext@1@@Z
    ?InitializeDynamicShaders_cutlass3x_common_cutlass3x_sm100_tensorop_i128x256x32gemm_s8_s8_s32_bf16_bf16_bias_bf16_relu_valpha_vbeta_c6b0d28eb61a2c79@cask6_myelin@@YA?AW4Status@1@AEAVContext@1@@Z
    ?InitializeDynamicShaders_cutlass3x_common_cutlass3x_sm100_tensorop_i128x256x32gemm_s8_s8_s32_f16_f16_bias_f16_relu_valpha_vbeta_6427607207414ed3@cask6_myelin@@YA?AW4Status@1@AEAVContext@1@@Z
    ?InitializeDynamicShaders_cutlass3x_common_cutlass3x_sm100_tensorop_i128x256x32gemm_s8_s8_s32_f16_f16_bias_f16_relu_valpha_vbeta_86744b553ff1147a@cask6_myelin@@YA?AW4Status@1@AEAVContext@1@@Z
    ?InitializeDynamicShaders_cutlass3x_common_cutlass3x_sm100_tensorop_i128x256x32gemm_s8_s8_s32_f16_f16_bias_f16_relu_valpha_vbeta_d6d402a1f06aafdf@cask6_myelin@@YA?AW4Status@1@AEAVContext@1@@Z
    ?InitializeDynamicShaders_cutlass3x_common_cutlass3x_sm100_tensorop_i128x256x32gemm_s8_s8_s32_f16_f16_bias_f16_relu_valpha_vbeta_dc14cb4c6edad2c3@cask6_myelin@@YA?AW4Status@1@AEAVContext@1@@Z
    ?InitializeDynamicShaders_cutlass3x_common_cutlass3x_sm100_tensorop_i128x256x32gemm_s8_s8_s32_f32_f32_bias_f32_relu_valpha_vbeta_21a9d65cf88e2a17@cask6_myelin@@YA?AW4Status@1@AEAVContext@1@@Z
    ?InitializeDynamicShaders_cutlass3x_common_cutlass3x_sm100_tensorop_i128x256x32gemm_s8_s8_s32_f32_f32_bias_f32_relu_valpha_vbeta_296bf7a53c311839@cask6_myelin@@YA?AW4Status@1@AEAVContext@1@@Z
    ?InitializeDynamicShaders_cutlass3x_common_cutlass3x_sm100_tensorop_i128x256x32gemm_s8_s8_s32_f32_f32_bias_f32_relu_valpha_vbeta_4db71370dd812a80@cask6_myelin@@YA?AW4Status@1@AEAVContext@1@@Z
    ?InitializeDynamicShaders_cutlass3x_common_cutlass3x_sm100_tensorop_i128x256x32gemm_s8_s8_s32_f32_f32_bias_f32_relu_valpha_vbeta_6ce939874b8404ca@cask6_myelin@@YA?AW4Status@1@AEAVContext@1@@Z
    ?InitializeDynamicShaders_cutlass3x_common_cutlass3x_sm100_tensorop_i128x256x32gemm_s8_s8_s32_s8_s8_bias_f32_gelu_erf_valpha_vbeta_29393248ec198f67@cask6_myelin@@YA?AW4Status@1@AEAVContext@1@@Z
    ?InitializeDynamicShaders_cutlass3x_common_cutlass3x_sm100_tensorop_i128x256x32gemm_s8_s8_s32_s8_s8_bias_f32_gelu_erf_valpha_vbeta_3216849dd3978c2c@cask6_myelin@@YA?AW4Status@1@AEAVContext@1@@Z
    ?InitializeDynamicShaders_cutlass3x_common_cutlass3x_sm100_tensorop_i128x256x32gemm_s8_s8_s32_s8_s8_bias_f32_gelu_erf_valpha_vbeta_662c75a148491104@cask6_myelin@@YA?AW4Status@1@AEAVContext@1@@Z
    ?InitializeDynamicShaders_cutlass3x_common_cutlass3x_sm100_tensorop_i128x256x32gemm_s8_s8_s32_s8_s8_bias_f32_gelu_erf_valpha_vbeta_7fa05ff1f27fdc80@cask6_myelin@@YA?AW4Status@1@AEAVContext@1@@Z
    ?InitializeDynamicShaders_cutlass3x_common_cutlass3x_sm100_tensorop_i128x256x32gemm_s8_s8_s32_s8_s8_bias_f32_gelu_valpha_vbeta_4bd31b9cde0ea61f@cask6_myelin@@YA?AW4Status@1@AEAVContext@1@@Z
    ?InitializeDynamicShaders_cutlass3x_common_cutlass3x_sm100_tensorop_i128x256x32gemm_s8_s8_s32_s8_s8_bias_f32_gelu_valpha_vbeta_8463efd5a8dcd5b@cask6_myelin@@YA?AW4Status@1@AEAVContext@1@@Z
    ?InitializeDynamicShaders_cutlass3x_common_cutlass3x_sm100_tensorop_i128x256x32gemm_s8_s8_s32_s8_s8_bias_f32_gelu_valpha_vbeta_97627c1a4f2dbdf4@cask6_myelin@@YA?AW4Status@1@AEAVContext@1@@Z
    ?InitializeDynamicShaders_cutlass3x_common_cutlass3x_sm100_tensorop_i128x256x32gemm_s8_s8_s32_s8_s8_bias_f32_gelu_valpha_vbeta_c2027de9569de492@cask6_myelin@@YA?AW4Status@1@AEAVContext@1@@Z
    ?InitializeDynamicShaders_cutlass3x_common_cutlass3x_sm100_tensorop_i128x256x32gemm_s8_s8_s32_s8_s8_bias_f32_relu_valpha_vbeta_15f8b50a0adb328c@cask6_myelin@@YA?AW4Status@1@AEAVContext@1@@Z
    ?InitializeDynamicShaders_cutlass3x_common_cutlass3x_sm100_tensorop_i128x256x32gemm_s8_s8_s32_s8_s8_bias_f32_relu_valpha_vbeta_27668380ac6cd802@cask6_myelin@@YA?AW4Status@1@AEAVContext@1@@Z
    ?InitializeDynamicShaders_cutlass3x_common_cutlass3x_sm100_tensorop_i128x256x32gemm_s8_s8_s32_s8_s8_bias_f32_relu_valpha_vbeta_785f19d929d5ac3a@cask6_myelin@@YA?AW4Status@1@AEAVContext@1@@Z
    ?InitializeDynamicShaders_cutlass3x_common_cutlass3x_sm100_tensorop_i128x256x32gemm_s8_s8_s32_s8_s8_bias_f32_relu_valpha_vbeta_e79923d67001da5f@cask6_myelin@@YA?AW4Status@1@AEAVContext@1@@Z
    ?InitializeDynamicShaders_cutlass3x_common_cutlass3x_sm100_tensorop_i256x128x32gemm_s8_s8_s32_bf16_bf16_bias_bf16_relu_valpha_vbeta_14c4e384f110354f@cask6_myelin@@YA?AW4Status@1@AEAVContext@1@@Z
    ?InitializeDynamicShaders_cutlass3x_common_cutlass3x_sm100_tensorop_i256x128x32gemm_s8_s8_s32_bf16_bf16_bias_bf16_relu_valpha_vbeta_4be0a424387ebb70@cask6_myelin@@YA?AW4Status@1@AEAVContext@1@@Z
    ?InitializeDynamicShaders_cutlass3x_common_cutlass3x_sm100_tensorop_i256x128x32gemm_s8_s8_s32_f16_f16_bias_f16_relu_valpha_vbeta_9cdf4e65a882b785@cask6_myelin@@YA?AW4Status@1@AEAVContext@1@@Z
    ?InitializeDynamicShaders_cutlass3x_common_cutlass3x_sm100_tensorop_i256x128x32gemm_s8_s8_s32_f16_f16_bias_f16_relu_valpha_vbeta_b093f3fbc58715@cask6_myelin@@YA?AW4Status@1@AEAVContext@1@@Z
    ?InitializeDynamicShaders_cutlass3x_common_cutlass3x_sm100_tensorop_i256x128x32gemm_s8_s8_s32_f32_f32_bias_f32_relu_valpha_vbeta_153dfad80e36415d@cask6_myelin@@YA?AW4Status@1@AEAVContext@1@@Z
    ?InitializeDynamicShaders_cutlass3x_common_cutlass3x_sm100_tensorop_i256x128x32gemm_s8_s8_s32_f32_f32_bias_f32_relu_valpha_vbeta_904e2683974fbea8@cask6_myelin@@YA?AW4Status@1@AEAVContext@1@@Z
    ?InitializeDynamicShaders_cutlass3x_common_cutlass3x_sm100_tensorop_i256x128x32gemm_s8_s8_s32_s8_s8_bias_f32_gelu_erf_valpha_vbeta_9fee4bd671014b55@cask6_myelin@@YA?AW4Status@1@AEAVContext@1@@Z
    ?InitializeDynamicShaders_cutlass3x_common_cutlass3x_sm100_tensorop_i256x128x32gemm_s8_s8_s32_s8_s8_bias_f32_gelu_erf_valpha_vbeta_b5a00f6491cf24c5@cask6_myelin@@YA?AW4Status@1@AEAVContext@1@@Z
    ?InitializeDynamicShaders_cutlass3x_common_cutlass3x_sm100_tensorop_i256x128x32gemm_s8_s8_s32_s8_s8_bias_f32_gelu_valpha_vbeta_69c6608c99d26340@cask6_myelin@@YA?AW4Status@1@AEAVContext@1@@Z
    ?InitializeDynamicShaders_cutlass3x_common_cutlass3x_sm100_tensorop_i256x128x32gemm_s8_s8_s32_s8_s8_bias_f32_gelu_valpha_vbeta_a67a2e08c938783f@cask6_myelin@@YA?AW4Status@1@AEAVContext@1@@Z
    ?InitializeDynamicShaders_cutlass3x_common_cutlass3x_sm100_tensorop_i256x128x32gemm_s8_s8_s32_s8_s8_bias_f32_relu_valpha_vbeta_980fbedafb4ad6bb@cask6_myelin@@YA?AW4Status@1@AEAVContext@1@@Z
    ?InitializeDynamicShaders_cutlass3x_common_cutlass3x_sm100_tensorop_i256x128x32gemm_s8_s8_s32_s8_s8_bias_f32_relu_valpha_vbeta_b217b5ff060337a@cask6_myelin@@YA?AW4Status@1@AEAVContext@1@@Z
    ?InitializeDynamicShaders_cutlass3x_common_cutlass3x_sm100_tensorop_i256x256x32gemm_s8_s8_s32_bf16_bf16_bias_bf16_relu_valpha_vbeta_167e1c4e2e6b8cfc@cask6_myelin@@YA?AW4Status@1@AEAVContext@1@@Z
    ?InitializeDynamicShaders_cutlass3x_common_cutlass3x_sm100_tensorop_i256x256x32gemm_s8_s8_s32_bf16_bf16_bias_bf16_relu_valpha_vbeta_7483569d793d7307@cask6_myelin@@YA?AW4Status@1@AEAVContext@1@@Z
    ?InitializeDynamicShaders_cutlass3x_common_cutlass3x_sm100_tensorop_i256x256x32gemm_s8_s8_s32_f16_f16_bias_f16_relu_valpha_vbeta_11b7a3beaf05e950@cask6_myelin@@YA?AW4Status@1@AEAVContext@1@@Z
    ?InitializeDynamicShaders_cutlass3x_common_cutlass3x_sm100_tensorop_i256x256x32gemm_s8_s8_s32_f16_f16_bias_f16_relu_valpha_vbeta_77159d44062b709f@cask6_myelin@@YA?AW4Status@1@AEAVContext@1@@Z
    ?InitializeDynamicShaders_cutlass3x_common_cutlass3x_sm100_tensorop_i256x256x32gemm_s8_s8_s32_f32_f32_bias_f32_relu_valpha_vbeta_af93b7343a74e7dd@cask6_myelin@@YA?AW4Status@1@AEAVContext@1@@Z
    ?InitializeDynamicShaders_cutlass3x_common_cutlass3x_sm100_tensorop_i256x256x32gemm_s8_s8_s32_f32_f32_bias_f32_relu_valpha_vbeta_ce2d7d58728a8c3@cask6_myelin@@YA?AW4Status@1@AEAVContext@1@@Z
    ?InitializeDynamicShaders_cutlass3x_common_cutlass3x_sm100_tensorop_i256x256x32gemm_s8_s8_s32_s8_s8_bias_f32_gelu_erf_valpha_vbeta_a8c017846e9bc4b6@cask6_myelin@@YA?AW4Status@1@AEAVContext@1@@Z
    ?InitializeDynamicShaders_cutlass3x_common_cutlass3x_sm100_tensorop_i256x256x32gemm_s8_s8_s32_s8_s8_bias_f32_gelu_erf_valpha_vbeta_d430cfb40677dbd9@cask6_myelin@@YA?AW4Status@1@AEAVContext@1@@Z
    ?InitializeDynamicShaders_cutlass3x_common_cutlass3x_sm100_tensorop_i256x256x32gemm_s8_s8_s32_s8_s8_bias_f32_gelu_valpha_vbeta_6d96c63aef2b1c8c@cask6_myelin@@YA?AW4Status@1@AEAVContext@1@@Z
    ?InitializeDynamicShaders_cutlass3x_common_cutlass3x_sm100_tensorop_i256x256x32gemm_s8_s8_s32_s8_s8_bias_f32_gelu_valpha_vbeta_bba07823779002eb@cask6_myelin@@YA?AW4Status@1@AEAVContext@1@@Z
    ?InitializeDynamicShaders_cutlass3x_common_cutlass3x_sm100_tensorop_i256x256x32gemm_s8_s8_s32_s8_s8_bias_f32_relu_valpha_vbeta_bf3e43392dc34a02@cask6_myelin@@YA?AW4Status@1@AEAVContext@1@@Z
    ?InitializeDynamicShaders_cutlass3x_common_cutlass3x_sm100_tensorop_i256x256x32gemm_s8_s8_s32_s8_s8_bias_f32_relu_valpha_vbeta_ef304b00bf544b83@cask6_myelin@@YA?AW4Status@1@AEAVContext@1@@Z
    ?InitializeDynamicShaders_cutlass3x_common_cutlass3x_sm100_tensorop_i64x128x32gemm_s8_s8_s32_bf16_bf16_bias_bf16_relu_valpha_vbeta_b03f0174543d3906@cask6_myelin@@YA?AW4Status@1@AEAVContext@1@@Z
    ?InitializeDynamicShaders_cutlass3x_common_cutlass3x_sm100_tensorop_i64x128x32gemm_s8_s8_s32_bf16_bf16_bias_bf16_relu_valpha_vbeta_d9131c55fc762dcc@cask6_myelin@@YA?AW4Status@1@AEAVContext@1@@Z
    ?InitializeDynamicShaders_cutlass3x_common_cutlass3x_sm100_tensorop_i64x128x32gemm_s8_s8_s32_f16_f16_bias_f16_relu_valpha_vbeta_a8e2c590f06eb25d@cask6_myelin@@YA?AW4Status@1@AEAVContext@1@@Z
    ?InitializeDynamicShaders_cutlass3x_common_cutlass3x_sm100_tensorop_i64x128x32gemm_s8_s8_s32_f16_f16_bias_f16_relu_valpha_vbeta_c494af923c631d1e@cask6_myelin@@YA?AW4Status@1@AEAVContext@1@@Z
    ?InitializeDynamicShaders_cutlass3x_common_cutlass3x_sm100_tensorop_i64x128x32gemm_s8_s8_s32_f32_f32_bias_f32_relu_valpha_vbeta_2d06403e1a47294a@cask6_myelin@@YA?AW4Status@1@AEAVContext@1@@Z
    ?InitializeDynamicShaders_cutlass3x_common_cutlass3x_sm100_tensorop_i64x128x32gemm_s8_s8_s32_f32_f32_bias_f32_relu_valpha_vbeta_74bcdfc85a89ac6b@cask6_myelin@@YA?AW4Status@1@AEAVContext@1@@Z
    ?InitializeDynamicShaders_cutlass3x_common_cutlass3x_sm100_tensorop_i64x128x32gemm_s8_s8_s32_s8_s8_bias_f32_gelu_erf_valpha_vbeta_88e7e4ab90dde5ea@cask6_myelin@@YA?AW4Status@1@AEAVContext@1@@Z
    ?InitializeDynamicShaders_cutlass3x_common_cutlass3x_sm100_tensorop_i64x128x32gemm_s8_s8_s32_s8_s8_bias_f32_gelu_erf_valpha_vbeta_98176726a14e0d34@cask6_myelin@@YA?AW4Status@1@AEAVContext@1@@Z
    ?InitializeDynamicShaders_cutlass3x_common_cutlass3x_sm100_tensorop_i64x128x32gemm_s8_s8_s32_s8_s8_bias_f32_gelu_valpha_vbeta_666dd16fdcde54f3@cask6_myelin@@YA?AW4Status@1@AEAVContext@1@@Z
    ?InitializeDynamicShaders_cutlass3x_common_cutlass3x_sm100_tensorop_i64x128x32gemm_s8_s8_s32_s8_s8_bias_f32_gelu_valpha_vbeta_d358b98b3ce3d346@cask6_myelin@@YA?AW4Status@1@AEAVContext@1@@Z
    ?InitializeDynamicShaders_cutlass3x_common_cutlass3x_sm100_tensorop_i64x128x32gemm_s8_s8_s32_s8_s8_bias_f32_relu_valpha_vbeta_3702c4ebc5179c01@cask6_myelin@@YA?AW4Status@1@AEAVContext@1@@Z
    ?InitializeDynamicShaders_cutlass3x_common_cutlass3x_sm100_tensorop_i64x128x32gemm_s8_s8_s32_s8_s8_bias_f32_relu_valpha_vbeta_db0a6b407c4c77e6@cask6_myelin@@YA?AW4Status@1@AEAVContext@1@@Z
    ?InitializeDynamicShaders_cutlass3x_common_cutlass3x_sm100_tensorop_s128x128x16gemm_bf16_bf16_f32_bf16_bf16_bias_bf16_gelu_erf_8328ccf525b7d322@cask6_myelin@@YA?AW4Status@1@AEAVContext@1@@Z
    ?InitializeDynamicShaders_cutlass3x_common_cutlass3x_sm100_tensorop_s128x128x16gemm_bf16_bf16_f32_bf16_bf16_bias_bf16_relu_79fec42a8ab99acc@cask6_myelin@@YA?AW4Status@1@AEAVContext@1@@Z
    ?InitializeDynamicShaders_cutlass3x_common_cutlass3x_sm100_tensorop_s128x128x16gemm_bf16_bf16_f32_bf16_bf16_bias_bf16_relu_e94580333bec1a4d@cask6_myelin@@YA?AW4Status@1@AEAVContext@1@@Z
    ?InitializeDynamicShaders_cutlass3x_common_cutlass3x_sm100_tensorop_s128x128x16gemm_f16_f16_f32_f16_f16_bias_f16_gelu_169d4c85920c7af@cask6_myelin@@YA?AW4Status@1@AEAVContext@1@@Z
    ?InitializeDynamicShaders_cutlass3x_common_cutlass3x_sm100_tensorop_s128x128x16gemm_f16_f16_f32_f16_f16_bias_f16_gelu_2873ae3faa627898@cask6_myelin@@YA?AW4Status@1@AEAVContext@1@@Z
    ?InitializeDynamicShaders_cutlass3x_common_cutlass3x_sm100_tensorop_s128x128x16gemm_f16_f16_f32_f16_f16_bias_f16_gelu_d59617be63c318b@cask6_myelin@@YA?AW4Status@1@AEAVContext@1@@Z
    ?InitializeDynamicShaders_cutlass3x_common_cutlass3x_sm100_tensorop_s128x128x16gemm_f16_f16_f32_f16_f16_bias_f16_gelu_erf_264e0636abe78258@cask6_myelin@@YA?AW4Status@1@AEAVContext@1@@Z
    ?InitializeDynamicShaders_cutlass3x_common_cutlass3x_sm100_tensorop_s128x128x16gemm_f16_f16_f32_f16_f16_bias_f16_gelu_erf_8441b3a5a129c3a0@cask6_myelin@@YA?AW4Status@1@AEAVContext@1@@Z
    ?InitializeDynamicShaders_cutlass3x_common_cutlass3x_sm100_tensorop_s128x128x16gemm_f16_f16_f32_f16_f16_bias_f16_gelu_fc2c8c147bf1a37a@cask6_myelin@@YA?AW4Status@1@AEAVContext@1@@Z
    ?InitializeDynamicShaders_cutlass3x_common_cutlass3x_sm100_tensorop_s128x128x16gemm_f16_f16_f32_f16_f16_bias_f16_relu_1a61728cc753b5e4@cask6_myelin@@YA?AW4Status@1@AEAVContext@1@@Z
    ?InitializeDynamicShaders_cutlass3x_common_cutlass3x_sm100_tensorop_s128x128x16gemm_f16_f16_f32_f16_f16_bias_f16_relu_1b72bed9d32277a6@cask6_myelin@@YA?AW4Status@1@AEAVContext@1@@Z
    ?InitializeDynamicShaders_cutlass3x_common_cutlass3x_sm100_tensorop_s128x128x16gemm_f16_f16_f32_f16_f16_bias_f16_relu_9b599db267f8c21a@cask6_myelin@@YA?AW4Status@1@AEAVContext@1@@Z
    ?InitializeDynamicShaders_cutlass3x_common_cutlass3x_sm100_tensorop_s128x128x16gemm_f16_f16_f32_f16_f16_bias_f16_relu_b6659a3b04899884@cask6_myelin@@YA?AW4Status@1@AEAVContext@1@@Z
    ?InitializeDynamicShaders_cutlass3x_common_cutlass3x_sm100_tensorop_s128x128x16gemm_f16_f16_f32_f16_f16_bias_f16_relu_c6a8666dfeecffef@cask6_myelin@@YA?AW4Status@1@AEAVContext@1@@Z
    ?InitializeDynamicShaders_cutlass3x_common_cutlass3x_sm100_tensorop_s128x128x32gemm_f8_f8_f32_bf16_bf16_bias_bf16_relu_valpha_vbeta_535411ce9ff43fb@cask6_myelin@@YA?AW4Status@1@AEAVContext@1@@Z
    ?InitializeDynamicShaders_cutlass3x_common_cutlass3x_sm100_tensorop_s128x128x32gemm_f8_f8_f32_bf16_bf16_bias_bf16_relu_valpha_vbeta_6108c50cb7bebe47@cask6_myelin@@YA?AW4Status@1@AEAVContext@1@@Z
    ?InitializeDynamicShaders_cutlass3x_common_cutlass3x_sm100_tensorop_s128x128x32gemm_f8_f8_f32_bf16_bf16_bias_bf16_relu_valpha_vbeta_c03ce76e8ceee281@cask6_myelin@@YA?AW4Status@1@AEAVContext@1@@Z
    ?InitializeDynamicShaders_cutlass3x_common_cutlass3x_sm100_tensorop_s128x128x32gemm_f8_f8_f32_bf16_bf16_bias_bf16_relu_valpha_vbeta_edcc4ee6991d89a8@cask6_myelin@@YA?AW4Status@1@AEAVContext@1@@Z
    ?InitializeDynamicShaders_cutlass3x_common_cutlass3x_sm100_tensorop_s128x128x32gemm_f8_f8_f32_e4m3_e4m3_bias_f32_gelu_erf_valpha_vbeta_8e563a8938e68628@cask6_myelin@@YA?AW4Status@1@AEAVContext@1@@Z
    ?InitializeDynamicShaders_cutlass3x_common_cutlass3x_sm100_tensorop_s128x128x32gemm_f8_f8_f32_e4m3_e4m3_bias_f32_gelu_erf_valpha_vbeta_b5fff94924f31445@cask6_myelin@@YA?AW4Status@1@AEAVContext@1@@Z
    ?InitializeDynamicShaders_cutlass3x_common_cutlass3x_sm100_tensorop_s128x128x32gemm_f8_f8_f32_e4m3_e4m3_bias_f32_gelu_erf_valpha_vbeta_c15c07d1ecf354c9@cask6_myelin@@YA?AW4Status@1@AEAVContext@1@@Z
    ?InitializeDynamicShaders_cutlass3x_common_cutlass3x_sm100_tensorop_s128x128x32gemm_f8_f8_f32_e4m3_e4m3_bias_f32_gelu_erf_valpha_vbeta_d77733e926debb8d@cask6_myelin@@YA?AW4Status@1@AEAVContext@1@@Z
    ?InitializeDynamicShaders_cutlass3x_common_cutlass3x_sm100_tensorop_s128x128x32gemm_f8_f8_f32_e4m3_e4m3_bias_f32_gelu_valpha_vbeta_7a284351ffe25dab@cask6_myelin@@YA?AW4Status@1@AEAVContext@1@@Z
    ?InitializeDynamicShaders_cutlass3x_common_cutlass3x_sm100_tensorop_s128x128x32gemm_f8_f8_f32_e4m3_e4m3_bias_f32_gelu_valpha_vbeta_9af51b9c9fc24801@cask6_myelin@@YA?AW4Status@1@AEAVContext@1@@Z
    ?InitializeDynamicShaders_cutlass3x_common_cutlass3x_sm100_tensorop_s128x128x32gemm_f8_f8_f32_e4m3_e4m3_bias_f32_gelu_valpha_vbeta_a3e6a2e1105dc9bb@cask6_myelin@@YA?AW4Status@1@AEAVContext@1@@Z
    ?InitializeDynamicShaders_cutlass3x_common_cutlass3x_sm100_tensorop_s128x128x32gemm_f8_f8_f32_e4m3_e4m3_bias_f32_gelu_valpha_vbeta_b05c8812b2673ea2@cask6_myelin@@YA?AW4Status@1@AEAVContext@1@@Z
    ?InitializeDynamicShaders_cutlass3x_common_cutlass3x_sm100_tensorop_s128x128x32gemm_f8_f8_f32_e4m3_e4m3_bias_f32_relu_valpha_vbeta_173e4e7665779e8a@cask6_myelin@@YA?AW4Status@1@AEAVContext@1@@Z
    ?InitializeDynamicShaders_cutlass3x_common_cutlass3x_sm100_tensorop_s128x128x32gemm_f8_f8_f32_e4m3_e4m3_bias_f32_relu_valpha_vbeta_1d1042463735817f@cask6_myelin@@YA?AW4Status@1@AEAVContext@1@@Z
    ?InitializeDynamicShaders_cutlass3x_common_cutlass3x_sm100_tensorop_s128x128x32gemm_f8_f8_f32_e4m3_e4m3_bias_f32_relu_valpha_vbeta_7938d64a63c57103@cask6_myelin@@YA?AW4Status@1@AEAVContext@1@@Z
    ?InitializeDynamicShaders_cutlass3x_common_cutlass3x_sm100_tensorop_s128x128x32gemm_f8_f8_f32_e4m3_e4m3_bias_f32_relu_valpha_vbeta_a0964c76d75c152e@cask6_myelin@@YA?AW4Status@1@AEAVContext@1@@Z
    ?InitializeDynamicShaders_cutlass3x_common_cutlass3x_sm100_tensorop_s128x128x32gemm_f8_f8_f32_f16_f16_bias_f16_relu_valpha_vbeta_6b0f1376a8a5377b@cask6_myelin@@YA?AW4Status@1@AEAVContext@1@@Z
    ?InitializeDynamicShaders_cutlass3x_common_cutlass3x_sm100_tensorop_s128x128x32gemm_f8_f8_f32_f16_f16_bias_f16_relu_valpha_vbeta_7cca7c961e127420@cask6_myelin@@YA?AW4Status@1@AEAVContext@1@@Z
    ?InitializeDynamicShaders_cutlass3x_common_cutlass3x_sm100_tensorop_s128x128x32gemm_f8_f8_f32_f16_f16_bias_f16_relu_valpha_vbeta_acb79786120596bf@cask6_myelin@@YA?AW4Status@1@AEAVContext@1@@Z
    ?InitializeDynamicShaders_cutlass3x_common_cutlass3x_sm100_tensorop_s128x128x32gemm_f8_f8_f32_f16_f16_bias_f16_relu_valpha_vbeta_d1d33f30d39cbf9e@cask6_myelin@@YA?AW4Status@1@AEAVContext@1@@Z
    ?InitializeDynamicShaders_cutlass3x_common_cutlass3x_sm100_tensorop_s128x128x32gemm_f8_f8_f32_f32_f32_bias_f32_relu_valpha_vbeta_2f13956b9baebbfb@cask6_myelin@@YA?AW4Status@1@AEAVContext@1@@Z
    ?InitializeDynamicShaders_cutlass3x_common_cutlass3x_sm100_tensorop_s128x128x32gemm_f8_f8_f32_f32_f32_bias_f32_relu_valpha_vbeta_6ca0e5d8ec0f6894@cask6_myelin@@YA?AW4Status@1@AEAVContext@1@@Z
    ?InitializeDynamicShaders_cutlass3x_common_cutlass3x_sm100_tensorop_s128x128x32gemm_f8_f8_f32_f32_f32_bias_f32_relu_valpha_vbeta_7ab2480d4cbdff83@cask6_myelin@@YA?AW4Status@1@AEAVContext@1@@Z
    ?InitializeDynamicShaders_cutlass3x_common_cutlass3x_sm100_tensorop_s128x128x32gemm_f8_f8_f32_f32_f32_bias_f32_relu_valpha_vbeta_aabbb3c0456df465@cask6_myelin@@YA?AW4Status@1@AEAVContext@1@@Z
    ?InitializeDynamicShaders_cutlass3x_common_cutlass3x_sm100_tensorop_s128x128x8tf32gemm_f32_f32_f32_f32_f32_bias_f32_relu_11f278f69e3690af@cask6_myelin@@YA?AW4Status@1@AEAVContext@1@@Z
    ?InitializeDynamicShaders_cutlass3x_common_cutlass3x_sm100_tensorop_s128x128x8tf32gemm_f32_f32_f32_f32_f32_bias_f32_relu_200d076024851ad@cask6_myelin@@YA?AW4Status@1@AEAVContext@1@@Z
    ?InitializeDynamicShaders_cutlass3x_common_cutlass3x_sm100_tensorop_s128x128x8tf32gemm_f32_f32_f32_f32_f32_bias_f32_relu_24be3dc43e7ed60b@cask6_myelin@@YA?AW4Status@1@AEAVContext@1@@Z
    ?InitializeDynamicShaders_cutlass3x_common_cutlass3x_sm100_tensorop_s128x128x8tf32gemm_f32_f32_f32_f32_f32_bias_f32_relu_323d45ef68509503@cask6_myelin@@YA?AW4Status@1@AEAVContext@1@@Z
    ?InitializeDynamicShaders_cutlass3x_common_cutlass3x_sm100_tensorop_s128x128x8tf32gemm_f32_f32_f32_f32_f32_bias_f32_relu_38646d2c957345b7@cask6_myelin@@YA?AW4Status@1@AEAVContext@1@@Z
    ?InitializeDynamicShaders_cutlass3x_common_cutlass3x_sm100_tensorop_s128x128x8tf32gemm_f32_f32_f32_f32_f32_bias_f32_relu_3c91eb5e16151fdd@cask6_myelin@@YA?AW4Status@1@AEAVContext@1@@Z
    ?InitializeDynamicShaders_cutlass3x_common_cutlass3x_sm100_tensorop_s128x128x8tf32gemm_f32_f32_f32_f32_f32_bias_f32_relu_3e65bd4195973b66@cask6_myelin@@YA?AW4Status@1@AEAVContext@1@@Z
    ?InitializeDynamicShaders_cutlass3x_common_cutlass3x_sm100_tensorop_s128x128x8tf32gemm_f32_f32_f32_f32_f32_bias_f32_relu_6090ebf0029531dd@cask6_myelin@@YA?AW4Status@1@AEAVContext@1@@Z
    ?InitializeDynamicShaders_cutlass3x_common_cutlass3x_sm100_tensorop_s128x128x8tf32gemm_f32_f32_f32_f32_f32_bias_f32_relu_726aaf0d4daf1aeb@cask6_myelin@@YA?AW4Status@1@AEAVContext@1@@Z
    ?InitializeDynamicShaders_cutlass3x_common_cutlass3x_sm100_tensorop_s128x128x8tf32gemm_f32_f32_f32_f32_f32_bias_f32_relu_7759af4e20acb811@cask6_myelin@@YA?AW4Status@1@AEAVContext@1@@Z
    ?InitializeDynamicShaders_cutlass3x_common_cutlass3x_sm100_tensorop_s128x128x8tf32gemm_f32_f32_f32_f32_f32_bias_f32_relu_8ca9e68ff95818d4@cask6_myelin@@YA?AW4Status@1@AEAVContext@1@@Z
    ?InitializeDynamicShaders_cutlass3x_common_cutlass3x_sm100_tensorop_s128x128x8tf32gemm_f32_f32_f32_f32_f32_bias_f32_relu_8feac515504f486@cask6_myelin@@YA?AW4Status@1@AEAVContext@1@@Z
    ?InitializeDynamicShaders_cutlass3x_common_cutlass3x_sm100_tensorop_s128x128x8tf32gemm_f32_f32_f32_f32_f32_bias_f32_relu_c8a0ab226934d8ed@cask6_myelin@@YA?AW4Status@1@AEAVContext@1@@Z
    ?InitializeDynamicShaders_cutlass3x_common_cutlass3x_sm100_tensorop_s128x128x8tf32gemm_f32_f32_f32_f32_f32_bias_f32_relu_d14c0494418e4ef7@cask6_myelin@@YA?AW4Status@1@AEAVContext@1@@Z
    ?InitializeDynamicShaders_cutlass3x_common_cutlass3x_sm100_tensorop_s128x128x8tf32gemm_f32_f32_f32_f32_f32_bias_f32_relu_e29e84c28c7e07b3@cask6_myelin@@YA?AW4Status@1@AEAVContext@1@@Z
    ?InitializeDynamicShaders_cutlass3x_common_cutlass3x_sm100_tensorop_s128x128x8tf32gemm_f32_f32_f32_f32_f32_bias_f32_relu_fe668a2d83a8686c@cask6_myelin@@YA?AW4Status@1@AEAVContext@1@@Z
    ?InitializeDynamicShaders_cutlass3x_common_cutlass3x_sm100_tensorop_s128x256x16gemm_f16_f16_f32_f16_f16_bias_f16_gelu_2532d7e6ef8f2f91@cask6_myelin@@YA?AW4Status@1@AEAVContext@1@@Z
    ?InitializeDynamicShaders_cutlass3x_common_cutlass3x_sm100_tensorop_s128x256x16gemm_f16_f16_f32_f16_f16_bias_f16_gelu_5e8ba7231e0355c4@cask6_myelin@@YA?AW4Status@1@AEAVContext@1@@Z
    ?InitializeDynamicShaders_cutlass3x_common_cutlass3x_sm100_tensorop_s128x256x16gemm_f16_f16_f32_f16_f16_bias_f16_gelu_89cc77d1e288e35d@cask6_myelin@@YA?AW4Status@1@AEAVContext@1@@Z
    ?InitializeDynamicShaders_cutlass3x_common_cutlass3x_sm100_tensorop_s128x256x16gemm_f16_f16_f32_f16_f16_bias_f16_gelu_d581bff0ff41947a@cask6_myelin@@YA?AW4Status@1@AEAVContext@1@@Z
    ?InitializeDynamicShaders_cutlass3x_common_cutlass3x_sm100_tensorop_s128x256x16gemm_f16_f16_f32_f16_f16_bias_f16_relu_6dc55d81274c6557@cask6_myelin@@YA?AW4Status@1@AEAVContext@1@@Z
    ?InitializeDynamicShaders_cutlass3x_common_cutlass3x_sm100_tensorop_s128x256x16gemm_f16_f16_f32_f16_f16_bias_f16_relu_9c6d685cd00a25d4@cask6_myelin@@YA?AW4Status@1@AEAVContext@1@@Z
    ?InitializeDynamicShaders_cutlass3x_common_cutlass3x_sm100_tensorop_s128x256x16gemm_f16_f16_f32_f16_f16_bias_f16_relu_b7c0c0a8be3c445c@cask6_myelin@@YA?AW4Status@1@AEAVContext@1@@Z
    ?InitializeDynamicShaders_cutlass3x_common_cutlass3x_sm100_tensorop_s128x256x32gemm_f8_f8_f32_bf16_bf16_bias_bf16_relu_valpha_vbeta_334d3ea9fc7f9a82@cask6_myelin@@YA?AW4Status@1@AEAVContext@1@@Z
    ?InitializeDynamicShaders_cutlass3x_common_cutlass3x_sm100_tensorop_s128x256x32gemm_f8_f8_f32_bf16_bf16_bias_bf16_relu_valpha_vbeta_3a69cf606d352fd9@cask6_myelin@@YA?AW4Status@1@AEAVContext@1@@Z
    ?InitializeDynamicShaders_cutlass3x_common_cutlass3x_sm100_tensorop_s128x256x32gemm_f8_f8_f32_bf16_bf16_bias_bf16_relu_valpha_vbeta_67d8f56bbe984dea@cask6_myelin@@YA?AW4Status@1@AEAVContext@1@@Z
    ?InitializeDynamicShaders_cutlass3x_common_cutlass3x_sm100_tensorop_s128x256x32gemm_f8_f8_f32_bf16_bf16_bias_bf16_relu_valpha_vbeta_a13c36fced1b59dd@cask6_myelin@@YA?AW4Status@1@AEAVContext@1@@Z
    ?InitializeDynamicShaders_cutlass3x_common_cutlass3x_sm100_tensorop_s128x256x32gemm_f8_f8_f32_e4m3_e4m3_bias_f32_gelu_erf_valpha_vbeta_2e30b4947673277a@cask6_myelin@@YA?AW4Status@1@AEAVContext@1@@Z
    ?InitializeDynamicShaders_cutlass3x_common_cutlass3x_sm100_tensorop_s128x256x32gemm_f8_f8_f32_e4m3_e4m3_bias_f32_gelu_erf_valpha_vbeta_ab3af94ac98e5cf4@cask6_myelin@@YA?AW4Status@1@AEAVContext@1@@Z
    ?InitializeDynamicShaders_cutlass3x_common_cutlass3x_sm100_tensorop_s128x256x32gemm_f8_f8_f32_e4m3_e4m3_bias_f32_gelu_erf_valpha_vbeta_bb95ae6788e1508d@cask6_myelin@@YA?AW4Status@1@AEAVContext@1@@Z
    ?InitializeDynamicShaders_cutlass3x_common_cutlass3x_sm100_tensorop_s128x256x32gemm_f8_f8_f32_e4m3_e4m3_bias_f32_gelu_erf_valpha_vbeta_f4f014570d947527@cask6_myelin@@YA?AW4Status@1@AEAVContext@1@@Z
    ?InitializeDynamicShaders_cutlass3x_common_cutlass3x_sm100_tensorop_s128x256x32gemm_f8_f8_f32_e4m3_e4m3_bias_f32_gelu_valpha_vbeta_1656f86a573848c6@cask6_myelin@@YA?AW4Status@1@AEAVContext@1@@Z
    ?InitializeDynamicShaders_cutlass3x_common_cutlass3x_sm100_tensorop_s128x256x32gemm_f8_f8_f32_e4m3_e4m3_bias_f32_gelu_valpha_vbeta_7ffd5da9e4c64058@cask6_myelin@@YA?AW4Status@1@AEAVContext@1@@Z
    ?InitializeDynamicShaders_cutlass3x_common_cutlass3x_sm100_tensorop_s128x256x32gemm_f8_f8_f32_e4m3_e4m3_bias_f32_gelu_valpha_vbeta_a9202b212ab5463@cask6_myelin@@YA?AW4Status@1@AEAVContext@1@@Z
    ?InitializeDynamicShaders_cutlass3x_common_cutlass3x_sm100_tensorop_s128x256x32gemm_f8_f8_f32_e4m3_e4m3_bias_f32_gelu_valpha_vbeta_e5723a3f9adc9375@cask6_myelin@@YA?AW4Status@1@AEAVContext@1@@Z
    ?InitializeDynamicShaders_cutlass3x_common_cutlass3x_sm100_tensorop_s128x256x32gemm_f8_f8_f32_e4m3_e4m3_bias_f32_relu_valpha_vbeta_885893617769cdc7@cask6_myelin@@YA?AW4Status@1@AEAVContext@1@@Z
    ?InitializeDynamicShaders_cutlass3x_common_cutlass3x_sm100_tensorop_s128x256x32gemm_f8_f8_f32_e4m3_e4m3_bias_f32_relu_valpha_vbeta_b11a9844159953d7@cask6_myelin@@YA?AW4Status@1@AEAVContext@1@@Z
    ?InitializeDynamicShaders_cutlass3x_common_cutlass3x_sm100_tensorop_s128x256x32gemm_f8_f8_f32_e4m3_e4m3_bias_f32_relu_valpha_vbeta_d43a3745ed30a97b@cask6_myelin@@YA?AW4Status@1@AEAVContext@1@@Z
    ?InitializeDynamicShaders_cutlass3x_common_cutlass3x_sm100_tensorop_s128x256x32gemm_f8_f8_f32_e4m3_e4m3_bias_f32_relu_valpha_vbeta_f963b8071bf0915b@cask6_myelin@@YA?AW4Status@1@AEAVContext@1@@Z
    ?InitializeDynamicShaders_cutlass3x_common_cutlass3x_sm100_tensorop_s128x256x32gemm_f8_f8_f32_f16_f16_bias_f16_relu_valpha_vbeta_2144589c3a4c4d3a@cask6_myelin@@YA?AW4Status@1@AEAVContext@1@@Z
    ?InitializeDynamicShaders_cutlass3x_common_cutlass3x_sm100_tensorop_s128x256x32gemm_f8_f8_f32_f16_f16_bias_f16_relu_valpha_vbeta_25f79d0d2f2abf2d@cask6_myelin@@YA?AW4Status@1@AEAVContext@1@@Z
    ?InitializeDynamicShaders_cutlass3x_common_cutlass3x_sm100_tensorop_s128x256x32gemm_f8_f8_f32_f16_f16_bias_f16_relu_valpha_vbeta_855b32aa17a4e4ad@cask6_myelin@@YA?AW4Status@1@AEAVContext@1@@Z
    ?InitializeDynamicShaders_cutlass3x_common_cutlass3x_sm100_tensorop_s128x256x32gemm_f8_f8_f32_f16_f16_bias_f16_relu_valpha_vbeta_8b12083238e4daee@cask6_myelin@@YA?AW4Status@1@AEAVContext@1@@Z
    ?InitializeDynamicShaders_cutlass3x_common_cutlass3x_sm100_tensorop_s128x256x32gemm_f8_f8_f32_f32_f32_bias_f32_relu_valpha_vbeta_11020922d8aae139@cask6_myelin@@YA?AW4Status@1@AEAVContext@1@@Z
    ?InitializeDynamicShaders_cutlass3x_common_cutlass3x_sm100_tensorop_s128x256x32gemm_f8_f8_f32_f32_f32_bias_f32_relu_valpha_vbeta_1fab81e1ff6d0189@cask6_myelin@@YA?AW4Status@1@AEAVContext@1@@Z
    ?InitializeDynamicShaders_cutlass3x_common_cutlass3x_sm100_tensorop_s128x256x32gemm_f8_f8_f32_f32_f32_bias_f32_relu_valpha_vbeta_a97376e4ced6d4dd@cask6_myelin@@YA?AW4Status@1@AEAVContext@1@@Z
    ?InitializeDynamicShaders_cutlass3x_common_cutlass3x_sm100_tensorop_s128x256x32gemm_f8_f8_f32_f32_f32_bias_f32_relu_valpha_vbeta_f0000a4f1cb63925@cask6_myelin@@YA?AW4Status@1@AEAVContext@1@@Z
    ?InitializeDynamicShaders_cutlass3x_common_cutlass3x_sm100_tensorop_s128x256x8tf32gemm_f32_f32_f32_f32_f32_bias_f32_relu_13fa3eb52c67ffc3@cask6_myelin@@YA?AW4Status@1@AEAVContext@1@@Z
    ?InitializeDynamicShaders_cutlass3x_common_cutlass3x_sm100_tensorop_s128x256x8tf32gemm_f32_f32_f32_f32_f32_bias_f32_relu_1cc5fbc3f05eb164@cask6_myelin@@YA?AW4Status@1@AEAVContext@1@@Z
    ?InitializeDynamicShaders_cutlass3x_common_cutlass3x_sm100_tensorop_s128x256x8tf32gemm_f32_f32_f32_f32_f32_bias_f32_relu_20dff411f62909ad@cask6_myelin@@YA?AW4Status@1@AEAVContext@1@@Z
    ?InitializeDynamicShaders_cutlass3x_common_cutlass3x_sm100_tensorop_s128x256x8tf32gemm_f32_f32_f32_f32_f32_bias_f32_relu_25792ff316861fc6@cask6_myelin@@YA?AW4Status@1@AEAVContext@1@@Z
    ?InitializeDynamicShaders_cutlass3x_common_cutlass3x_sm100_tensorop_s128x256x8tf32gemm_f32_f32_f32_f32_f32_bias_f32_relu_39a1e6de7932aa3e@cask6_myelin@@YA?AW4Status@1@AEAVContext@1@@Z
    ?InitializeDynamicShaders_cutlass3x_common_cutlass3x_sm100_tensorop_s128x256x8tf32gemm_f32_f32_f32_f32_f32_bias_f32_relu_3dbbde7513433460@cask6_myelin@@YA?AW4Status@1@AEAVContext@1@@Z
    ?InitializeDynamicShaders_cutlass3x_common_cutlass3x_sm100_tensorop_s128x256x8tf32gemm_f32_f32_f32_f32_f32_bias_f32_relu_40cc5b7323501ace@cask6_myelin@@YA?AW4Status@1@AEAVContext@1@@Z
    ?InitializeDynamicShaders_cutlass3x_common_cutlass3x_sm100_tensorop_s128x256x8tf32gemm_f32_f32_f32_f32_f32_bias_f32_relu_481700d01cbad6fc@cask6_myelin@@YA?AW4Status@1@AEAVContext@1@@Z
    ?InitializeDynamicShaders_cutlass3x_common_cutlass3x_sm100_tensorop_s128x256x8tf32gemm_f32_f32_f32_f32_f32_bias_f32_relu_57a9d6cc6c390068@cask6_myelin@@YA?AW4Status@1@AEAVContext@1@@Z
    ?InitializeDynamicShaders_cutlass3x_common_cutlass3x_sm100_tensorop_s128x256x8tf32gemm_f32_f32_f32_f32_f32_bias_f32_relu_7f70c6f6fd330fe2@cask6_myelin@@YA?AW4Status@1@AEAVContext@1@@Z
    ?InitializeDynamicShaders_cutlass3x_common_cutlass3x_sm100_tensorop_s128x256x8tf32gemm_f32_f32_f32_f32_f32_bias_f32_relu_9f86bdc04a1fd06c@cask6_myelin@@YA?AW4Status@1@AEAVContext@1@@Z
    ?InitializeDynamicShaders_cutlass3x_common_cutlass3x_sm100_tensorop_s128x256x8tf32gemm_f32_f32_f32_f32_f32_bias_f32_relu_b1485d14d98f9016@cask6_myelin@@YA?AW4Status@1@AEAVContext@1@@Z
    ?InitializeDynamicShaders_cutlass3x_common_cutlass3x_sm100_tensorop_s128x256x8tf32gemm_f32_f32_f32_f32_f32_bias_f32_relu_d5e303235da0ac35@cask6_myelin@@YA?AW4Status@1@AEAVContext@1@@Z
    ?InitializeDynamicShaders_cutlass3x_common_cutlass3x_sm100_tensorop_s128x256x8tf32gemm_f32_f32_f32_f32_f32_bias_f32_relu_d9a359a2a660f828@cask6_myelin@@YA?AW4Status@1@AEAVContext@1@@Z
    ?InitializeDynamicShaders_cutlass3x_common_cutlass3x_sm100_tensorop_s128x256x8tf32gemm_f32_f32_f32_f32_f32_bias_f32_relu_dae815cae7551269@cask6_myelin@@YA?AW4Status@1@AEAVContext@1@@Z
    ?InitializeDynamicShaders_cutlass3x_common_cutlass3x_sm100_tensorop_s128x256x8tf32gemm_f32_f32_f32_f32_f32_bias_f32_relu_fb8051667478f40a@cask6_myelin@@YA?AW4Status@1@AEAVContext@1@@Z
    ?InitializeDynamicShaders_cutlass3x_common_cutlass3x_sm100_tensorop_s128x64x16gemm_bf16_bf16_f32_bf16_bf16_bias_bf16_relu_c4c29aedac21c0b@cask6_myelin@@YA?AW4Status@1@AEAVContext@1@@Z
    ?InitializeDynamicShaders_cutlass3x_common_cutlass3x_sm100_tensorop_s128x64x16gemm_bf16_bf16_f32_bf16_bf16_bias_bf16_relu_e6258df44807b9da@cask6_myelin@@YA?AW4Status@1@AEAVContext@1@@Z
    ?InitializeDynamicShaders_cutlass3x_common_cutlass3x_sm100_tensorop_s128x64x16gemm_f16_f16_f32_f16_f16_bias_f16_gelu_11153a4402a70859@cask6_myelin@@YA?AW4Status@1@AEAVContext@1@@Z
    ?InitializeDynamicShaders_cutlass3x_common_cutlass3x_sm100_tensorop_s128x64x16gemm_f16_f16_f32_f16_f16_bias_f16_gelu_cf96c6db68605d63@cask6_myelin@@YA?AW4Status@1@AEAVContext@1@@Z
    ?InitializeDynamicShaders_cutlass3x_common_cutlass3x_sm100_tensorop_s128x64x16gemm_f16_f16_f32_f16_f16_bias_f16_gelu_erf_3062bce832552147@cask6_myelin@@YA?AW4Status@1@AEAVContext@1@@Z
    ?InitializeDynamicShaders_cutlass3x_common_cutlass3x_sm100_tensorop_s128x64x16gemm_f16_f16_f32_f16_f16_bias_f16_gelu_erf_a881d76c9b258@cask6_myelin@@YA?AW4Status@1@AEAVContext@1@@Z
    ?InitializeDynamicShaders_cutlass3x_common_cutlass3x_sm100_tensorop_s128x64x16gemm_f16_f16_f32_f16_f16_bias_f16_gelu_erf_ad2be23a64f2c867@cask6_myelin@@YA?AW4Status@1@AEAVContext@1@@Z
    ?InitializeDynamicShaders_cutlass3x_common_cutlass3x_sm100_tensorop_s128x64x16gemm_f16_f16_f32_f16_f16_bias_f16_relu_1132ed6bb1aff0c8@cask6_myelin@@YA?AW4Status@1@AEAVContext@1@@Z
    ?InitializeDynamicShaders_cutlass3x_common_cutlass3x_sm100_tensorop_s128x64x16gemm_f16_f16_f32_f16_f16_bias_f16_relu_3a85b8017444e35c@cask6_myelin@@YA?AW4Status@1@AEAVContext@1@@Z
    ?InitializeDynamicShaders_cutlass3x_common_cutlass3x_sm100_tensorop_s128x64x16gemm_f16_f16_f32_f16_f16_bias_f16_relu_72653d760f55f50d@cask6_myelin@@YA?AW4Status@1@AEAVContext@1@@Z
    ?InitializeDynamicShaders_cutlass3x_common_cutlass3x_sm100_tensorop_s128x64x16gemm_f16_f16_f32_f16_f16_bias_f16_relu_c128f6587b21fda2@cask6_myelin@@YA?AW4Status@1@AEAVContext@1@@Z
    ?InitializeDynamicShaders_cutlass3x_common_cutlass3x_sm100_tensorop_s256x128x16gemm_bf16_bf16_f32_bf16_bf16_bias_bf16_relu_c776eaf0fbdc74cc@cask6_myelin@@YA?AW4Status@1@AEAVContext@1@@Z
    ?InitializeDynamicShaders_cutlass3x_common_cutlass3x_sm100_tensorop_s256x128x16gemm_f16_f16_f32_f16_f16_bias_f16_gelu_bf2e04347cc01565@cask6_myelin@@YA?AW4Status@1@AEAVContext@1@@Z
    ?InitializeDynamicShaders_cutlass3x_common_cutlass3x_sm100_tensorop_s256x128x16gemm_f16_f16_f32_f16_f16_bias_f16_gelu_f6d99f8260577bfc@cask6_myelin@@YA?AW4Status@1@AEAVContext@1@@Z
    ?InitializeDynamicShaders_cutlass3x_common_cutlass3x_sm100_tensorop_s256x128x16gemm_f16_f16_f32_f16_f16_bias_f16_relu_e07597462df73248@cask6_myelin@@YA?AW4Status@1@AEAVContext@1@@Z
    ?InitializeDynamicShaders_cutlass3x_common_cutlass3x_sm100_tensorop_s256x128x16gemm_f16_f16_f32_f16_f16_bias_f16_relu_f1148a9705b62584@cask6_myelin@@YA?AW4Status@1@AEAVContext@1@@Z
    ?InitializeDynamicShaders_cutlass3x_common_cutlass3x_sm100_tensorop_s256x128x32gemm_f8_f8_f32_bf16_bf16_bias_bf16_relu_valpha_vbeta_2384516a9c6139c4@cask6_myelin@@YA?AW4Status@1@AEAVContext@1@@Z
    ?InitializeDynamicShaders_cutlass3x_common_cutlass3x_sm100_tensorop_s256x128x32gemm_f8_f8_f32_bf16_bf16_bias_bf16_relu_valpha_vbeta_e7c2b45902da0ddd@cask6_myelin@@YA?AW4Status@1@AEAVContext@1@@Z
    ?InitializeDynamicShaders_cutlass3x_common_cutlass3x_sm100_tensorop_s256x128x32gemm_f8_f8_f32_e4m3_e4m3_bias_f32_gelu_erf_valpha_vbeta_a080847093341927@cask6_myelin@@YA?AW4Status@1@AEAVContext@1@@Z
    ?InitializeDynamicShaders_cutlass3x_common_cutlass3x_sm100_tensorop_s256x128x32gemm_f8_f8_f32_e4m3_e4m3_bias_f32_gelu_erf_valpha_vbeta_ea881873b3512ba5@cask6_myelin@@YA?AW4Status@1@AEAVContext@1@@Z
    ?InitializeDynamicShaders_cutlass3x_common_cutlass3x_sm100_tensorop_s256x128x32gemm_f8_f8_f32_e4m3_e4m3_bias_f32_gelu_valpha_vbeta_68658893df77f21f@cask6_myelin@@YA?AW4Status@1@AEAVContext@1@@Z
    ?InitializeDynamicShaders_cutlass3x_common_cutlass3x_sm100_tensorop_s256x128x32gemm_f8_f8_f32_e4m3_e4m3_bias_f32_gelu_valpha_vbeta_8e4ea7cead3c01ea@cask6_myelin@@YA?AW4Status@1@AEAVContext@1@@Z
    ?InitializeDynamicShaders_cutlass3x_common_cutlass3x_sm100_tensorop_s256x128x32gemm_f8_f8_f32_e4m3_e4m3_bias_f32_relu_valpha_vbeta_6c530bf101ba5ccb@cask6_myelin@@YA?AW4Status@1@AEAVContext@1@@Z
    ?InitializeDynamicShaders_cutlass3x_common_cutlass3x_sm100_tensorop_s256x128x32gemm_f8_f8_f32_e4m3_e4m3_bias_f32_relu_valpha_vbeta_89f7dadbbbdf175e@cask6_myelin@@YA?AW4Status@1@AEAVContext@1@@Z
    ?InitializeDynamicShaders_cutlass3x_common_cutlass3x_sm100_tensorop_s256x128x32gemm_f8_f8_f32_f16_f16_bias_f16_relu_valpha_vbeta_4c2edc5fade7483b@cask6_myelin@@YA?AW4Status@1@AEAVContext@1@@Z
    ?InitializeDynamicShaders_cutlass3x_common_cutlass3x_sm100_tensorop_s256x128x32gemm_f8_f8_f32_f16_f16_bias_f16_relu_valpha_vbeta_549e3a4d1b6a0a79@cask6_myelin@@YA?AW4Status@1@AEAVContext@1@@Z
    ?InitializeDynamicShaders_cutlass3x_common_cutlass3x_sm100_tensorop_s256x128x32gemm_f8_f8_f32_f32_f32_bias_f32_relu_valpha_vbeta_52f357b968f34d93@cask6_myelin@@YA?AW4Status@1@AEAVContext@1@@Z
    ?InitializeDynamicShaders_cutlass3x_common_cutlass3x_sm100_tensorop_s256x128x32gemm_f8_f8_f32_f32_f32_bias_f32_relu_valpha_vbeta_86dc1f0f512c8bd0@cask6_myelin@@YA?AW4Status@1@AEAVContext@1@@Z
    ?InitializeDynamicShaders_cutlass3x_common_cutlass3x_sm100_tensorop_s256x128x8tf32gemm_f32_f32_f32_f32_f32_bias_f32_relu_298975cbc468108b@cask6_myelin@@YA?AW4Status@1@AEAVContext@1@@Z
    ?InitializeDynamicShaders_cutlass3x_common_cutlass3x_sm100_tensorop_s256x128x8tf32gemm_f32_f32_f32_f32_f32_bias_f32_relu_367b02d32ee9dbf7@cask6_myelin@@YA?AW4Status@1@AEAVContext@1@@Z
    ?InitializeDynamicShaders_cutlass3x_common_cutlass3x_sm100_tensorop_s256x128x8tf32gemm_f32_f32_f32_f32_f32_bias_f32_relu_5fea69321ac3f122@cask6_myelin@@YA?AW4Status@1@AEAVContext@1@@Z
    ?InitializeDynamicShaders_cutlass3x_common_cutlass3x_sm100_tensorop_s256x128x8tf32gemm_f32_f32_f32_f32_f32_bias_f32_relu_7c5b5604590ee959@cask6_myelin@@YA?AW4Status@1@AEAVContext@1@@Z
    ?InitializeDynamicShaders_cutlass3x_common_cutlass3x_sm100_tensorop_s256x128x8tf32gemm_f32_f32_f32_f32_f32_bias_f32_relu_8cd3ff1ef914b3c8@cask6_myelin@@YA?AW4Status@1@AEAVContext@1@@Z
    ?InitializeDynamicShaders_cutlass3x_common_cutlass3x_sm100_tensorop_s256x128x8tf32gemm_f32_f32_f32_f32_f32_bias_f32_relu_995ca46a79ab871f@cask6_myelin@@YA?AW4Status@1@AEAVContext@1@@Z
    ?InitializeDynamicShaders_cutlass3x_common_cutlass3x_sm100_tensorop_s256x128x8tf32gemm_f32_f32_f32_f32_f32_bias_f32_relu_b5ed1f32c859d7e4@cask6_myelin@@YA?AW4Status@1@AEAVContext@1@@Z
    ?InitializeDynamicShaders_cutlass3x_common_cutlass3x_sm100_tensorop_s256x128x8tf32gemm_f32_f32_f32_f32_f32_bias_f32_relu_f2808d8ba8a7c407@cask6_myelin@@YA?AW4Status@1@AEAVContext@1@@Z
    ?InitializeDynamicShaders_cutlass3x_common_cutlass3x_sm100_tensorop_s256x256x16gemm_bf16_bf16_f32_bf16_bf16_bias_bf16_relu_33d7b59e683d188c@cask6_myelin@@YA?AW4Status@1@AEAVContext@1@@Z
    ?InitializeDynamicShaders_cutlass3x_common_cutlass3x_sm100_tensorop_s256x256x16gemm_f16_f16_f32_f16_f16_bias_f16_relu_8cad3320333d268f@cask6_myelin@@YA?AW4Status@1@AEAVContext@1@@Z
    ?InitializeDynamicShaders_cutlass3x_common_cutlass3x_sm100_tensorop_s256x256x16gemm_f16_f16_f32_f16_f16_bias_f16_relu_f3ebbd7e2cb110db@cask6_myelin@@YA?AW4Status@1@AEAVContext@1@@Z
    ?InitializeDynamicShaders_cutlass3x_common_cutlass3x_sm100_tensorop_s256x256x32gemm_f8_f8_f32_bf16_bf16_bias_bf16_relu_valpha_vbeta_57d016a30143e014@cask6_myelin@@YA?AW4Status@1@AEAVContext@1@@Z
    ?InitializeDynamicShaders_cutlass3x_common_cutlass3x_sm100_tensorop_s256x256x32gemm_f8_f8_f32_bf16_bf16_bias_bf16_relu_valpha_vbeta_b35264a8aec0b2f8@cask6_myelin@@YA?AW4Status@1@AEAVContext@1@@Z
    ?InitializeDynamicShaders_cutlass3x_common_cutlass3x_sm100_tensorop_s256x256x32gemm_f8_f8_f32_e4m3_e4m3_bias_f32_gelu_erf_valpha_vbeta_9dff6e1ea7e5ccae@cask6_myelin@@YA?AW4Status@1@AEAVContext@1@@Z
    ?InitializeDynamicShaders_cutlass3x_common_cutlass3x_sm100_tensorop_s256x256x32gemm_f8_f8_f32_e4m3_e4m3_bias_f32_gelu_erf_valpha_vbeta_bdcdac60e2388b11@cask6_myelin@@YA?AW4Status@1@AEAVContext@1@@Z
    ?InitializeDynamicShaders_cutlass3x_common_cutlass3x_sm100_tensorop_s256x256x32gemm_f8_f8_f32_e4m3_e4m3_bias_f32_gelu_valpha_vbeta_78515e6c84950389@cask6_myelin@@YA?AW4Status@1@AEAVContext@1@@Z
    ?InitializeDynamicShaders_cutlass3x_common_cutlass3x_sm100_tensorop_s256x256x32gemm_f8_f8_f32_e4m3_e4m3_bias_f32_gelu_valpha_vbeta_b94bae041326d62f@cask6_myelin@@YA?AW4Status@1@AEAVContext@1@@Z
    ?InitializeDynamicShaders_cutlass3x_common_cutlass3x_sm100_tensorop_s256x256x32gemm_f8_f8_f32_e4m3_e4m3_bias_f32_relu_valpha_vbeta_22c079e9a9d155ab@cask6_myelin@@YA?AW4Status@1@AEAVContext@1@@Z
    ?InitializeDynamicShaders_cutlass3x_common_cutlass3x_sm100_tensorop_s256x256x32gemm_f8_f8_f32_e4m3_e4m3_bias_f32_relu_valpha_vbeta_d2378667be06ebf6@cask6_myelin@@YA?AW4Status@1@AEAVContext@1@@Z
    ?InitializeDynamicShaders_cutlass3x_common_cutlass3x_sm100_tensorop_s256x256x32gemm_f8_f8_f32_f16_f16_bias_f16_relu_valpha_vbeta_43c05077e140df3@cask6_myelin@@YA?AW4Status@1@AEAVContext@1@@Z
    ?InitializeDynamicShaders_cutlass3x_common_cutlass3x_sm100_tensorop_s256x256x32gemm_f8_f8_f32_f16_f16_bias_f16_relu_valpha_vbeta_7ece9c27dc8d1c9@cask6_myelin@@YA?AW4Status@1@AEAVContext@1@@Z
    ?InitializeDynamicShaders_cutlass3x_common_cutlass3x_sm100_tensorop_s256x256x32gemm_f8_f8_f32_f32_f32_bias_f32_relu_valpha_vbeta_8e1f2f495ea104c4@cask6_myelin@@YA?AW4Status@1@AEAVContext@1@@Z
    ?InitializeDynamicShaders_cutlass3x_common_cutlass3x_sm100_tensorop_s256x256x32gemm_f8_f8_f32_f32_f32_bias_f32_relu_valpha_vbeta_d9a34ba341ed3a06@cask6_myelin@@YA?AW4Status@1@AEAVContext@1@@Z
    ?InitializeDynamicShaders_cutlass3x_common_cutlass3x_sm100_tensorop_s256x256x8tf32gemm_f32_f32_f32_f32_f32_bias_f32_relu_4e91994fe198a73c@cask6_myelin@@YA?AW4Status@1@AEAVContext@1@@Z
    ?InitializeDynamicShaders_cutlass3x_common_cutlass3x_sm100_tensorop_s256x256x8tf32gemm_f32_f32_f32_f32_f32_bias_f32_relu_7009288660401953@cask6_myelin@@YA?AW4Status@1@AEAVContext@1@@Z
    ?InitializeDynamicShaders_cutlass3x_common_cutlass3x_sm100_tensorop_s256x256x8tf32gemm_f32_f32_f32_f32_f32_bias_f32_relu_8da97cf7bc48d9d5@cask6_myelin@@YA?AW4Status@1@AEAVContext@1@@Z
    ?InitializeDynamicShaders_cutlass3x_common_cutlass3x_sm100_tensorop_s256x256x8tf32gemm_f32_f32_f32_f32_f32_bias_f32_relu_97207da8b435f03c@cask6_myelin@@YA?AW4Status@1@AEAVContext@1@@Z
    ?InitializeDynamicShaders_cutlass3x_common_cutlass3x_sm100_tensorop_s256x256x8tf32gemm_f32_f32_f32_f32_f32_bias_f32_relu_982a39af24a18f0d@cask6_myelin@@YA?AW4Status@1@AEAVContext@1@@Z
    ?InitializeDynamicShaders_cutlass3x_common_cutlass3x_sm100_tensorop_s256x256x8tf32gemm_f32_f32_f32_f32_f32_bias_f32_relu_9a8c4fb415c068f6@cask6_myelin@@YA?AW4Status@1@AEAVContext@1@@Z
    ?InitializeDynamicShaders_cutlass3x_common_cutlass3x_sm100_tensorop_s256x256x8tf32gemm_f32_f32_f32_f32_f32_bias_f32_relu_b0d595010800b3b0@cask6_myelin@@YA?AW4Status@1@AEAVContext@1@@Z
    ?InitializeDynamicShaders_cutlass3x_common_cutlass3x_sm100_tensorop_s256x256x8tf32gemm_f32_f32_f32_f32_f32_bias_f32_relu_e6818465e36467d3@cask6_myelin@@YA?AW4Status@1@AEAVContext@1@@Z
    ?InitializeDynamicShaders_cutlass3x_common_cutlass3x_sm100_tensorop_s256x64x16gemm_f16_f16_f32_f16_f16_bias_f16_gelu_4f122154997fab47@cask6_myelin@@YA?AW4Status@1@AEAVContext@1@@Z
    ?InitializeDynamicShaders_cutlass3x_common_cutlass3x_sm100_tensorop_s256x64x16gemm_f16_f16_f32_f16_f16_bias_f16_relu_69f0d18805ffcc9a@cask6_myelin@@YA?AW4Status@1@AEAVContext@1@@Z
    ?InitializeDynamicShaders_cutlass3x_common_cutlass3x_sm100_tensorop_s256x64x16gemm_f16_f16_f32_f16_f16_bias_f16_relu_c8fa7372bb1ca7@cask6_myelin@@YA?AW4Status@1@AEAVContext@1@@Z
    ?InitializeDynamicShaders_cutlass3x_common_cutlass3x_sm100_tensorop_s64x128x16gemm_f16_f16_f32_f16_f16_bias_f16_relu_251e61841a5c0945@cask6_myelin@@YA?AW4Status@1@AEAVContext@1@@Z
    ?InitializeDynamicShaders_cutlass3x_common_cutlass3x_sm100_tensorop_s64x128x16gemm_f16_f16_f32_f16_f16_bias_f16_relu_78c12e643ae15f86@cask6_myelin@@YA?AW4Status@1@AEAVContext@1@@Z
    ?InitializeDynamicShaders_cutlass3x_common_cutlass3x_sm100_tensorop_s64x128x16gemm_f16_f16_f32_f16_f16_bias_f16_relu_7d793af52f01c150@cask6_myelin@@YA?AW4Status@1@AEAVContext@1@@Z
    ?InitializeDynamicShaders_cutlass3x_common_cutlass3x_sm100_tensorop_s64x128x32gemm_f8_f8_f32_bf16_bf16_bias_bf16_relu_valpha_vbeta_38a70ca3672f5aa2@cask6_myelin@@YA?AW4Status@1@AEAVContext@1@@Z
    ?InitializeDynamicShaders_cutlass3x_common_cutlass3x_sm100_tensorop_s64x128x32gemm_f8_f8_f32_bf16_bf16_bias_bf16_relu_valpha_vbeta_8583cbe86d09035d@cask6_myelin@@YA?AW4Status@1@AEAVContext@1@@Z
    ?InitializeDynamicShaders_cutlass3x_common_cutlass3x_sm100_tensorop_s64x128x32gemm_f8_f8_f32_e4m3_e4m3_bias_f32_gelu_erf_valpha_vbeta_8e6dfea28e6156be@cask6_myelin@@YA?AW4Status@1@AEAVContext@1@@Z
    ?InitializeDynamicShaders_cutlass3x_common_cutlass3x_sm100_tensorop_s64x128x32gemm_f8_f8_f32_e4m3_e4m3_bias_f32_gelu_erf_valpha_vbeta_c7571f292ae646b5@cask6_myelin@@YA?AW4Status@1@AEAVContext@1@@Z
    ?InitializeDynamicShaders_cutlass3x_common_cutlass3x_sm100_tensorop_s64x128x32gemm_f8_f8_f32_e4m3_e4m3_bias_f32_gelu_valpha_vbeta_3a14d0461226b01a@cask6_myelin@@YA?AW4Status@1@AEAVContext@1@@Z
    ?InitializeDynamicShaders_cutlass3x_common_cutlass3x_sm100_tensorop_s64x128x32gemm_f8_f8_f32_e4m3_e4m3_bias_f32_gelu_valpha_vbeta_4e0f5cd6965751d7@cask6_myelin@@YA?AW4Status@1@AEAVContext@1@@Z
    ?InitializeDynamicShaders_cutlass3x_common_cutlass3x_sm100_tensorop_s64x128x32gemm_f8_f8_f32_e4m3_e4m3_bias_f32_relu_valpha_vbeta_ebc71875a70f6776@cask6_myelin@@YA?AW4Status@1@AEAVContext@1@@Z
    ?InitializeDynamicShaders_cutlass3x_common_cutlass3x_sm100_tensorop_s64x128x32gemm_f8_f8_f32_e4m3_e4m3_bias_f32_relu_valpha_vbeta_f4722a6ad798bb31@cask6_myelin@@YA?AW4Status@1@AEAVContext@1@@Z
    ?InitializeDynamicShaders_cutlass3x_common_cutlass3x_sm100_tensorop_s64x128x32gemm_f8_f8_f32_f16_f16_bias_f16_relu_valpha_vbeta_23d7872c5b921a18@cask6_myelin@@YA?AW4Status@1@AEAVContext@1@@Z
    ?InitializeDynamicShaders_cutlass3x_common_cutlass3x_sm100_tensorop_s64x128x32gemm_f8_f8_f32_f16_f16_bias_f16_relu_valpha_vbeta_6fce504a015a35a@cask6_myelin@@YA?AW4Status@1@AEAVContext@1@@Z
    ?InitializeDynamicShaders_cutlass3x_common_cutlass3x_sm100_tensorop_s64x128x32gemm_f8_f8_f32_f32_f32_bias_f32_relu_valpha_vbeta_57c1dbef5fc90d2b@cask6_myelin@@YA?AW4Status@1@AEAVContext@1@@Z
    ?InitializeDynamicShaders_cutlass3x_common_cutlass3x_sm100_tensorop_s64x128x32gemm_f8_f8_f32_f32_f32_bias_f32_relu_valpha_vbeta_bfa8ed48708e124a@cask6_myelin@@YA?AW4Status@1@AEAVContext@1@@Z
    ?InitializeDynamicShaders_cutlass3x_common_cutlass3x_sm100_tensorop_s64x128x8tf32gemm_f32_f32_f32_f32_f32_bias_f32_relu_10b235b2af88705@cask6_myelin@@YA?AW4Status@1@AEAVContext@1@@Z
    ?InitializeDynamicShaders_cutlass3x_common_cutlass3x_sm100_tensorop_s64x128x8tf32gemm_f32_f32_f32_f32_f32_bias_f32_relu_12ead2f0eb2f3206@cask6_myelin@@YA?AW4Status@1@AEAVContext@1@@Z
    ?InitializeDynamicShaders_cutlass3x_common_cutlass3x_sm100_tensorop_s64x128x8tf32gemm_f32_f32_f32_f32_f32_bias_f32_relu_52b3a002e0d92dd0@cask6_myelin@@YA?AW4Status@1@AEAVContext@1@@Z
    ?InitializeDynamicShaders_cutlass3x_common_cutlass3x_sm100_tensorop_s64x128x8tf32gemm_f32_f32_f32_f32_f32_bias_f32_relu_63b475b0f2dce580@cask6_myelin@@YA?AW4Status@1@AEAVContext@1@@Z
    ?InitializeDynamicShaders_cutlass3x_common_cutlass3x_sm100_tensorop_s64x128x8tf32gemm_f32_f32_f32_f32_f32_bias_f32_relu_776f41f8d1ba9d18@cask6_myelin@@YA?AW4Status@1@AEAVContext@1@@Z
    ?InitializeDynamicShaders_cutlass3x_common_cutlass3x_sm100_tensorop_s64x128x8tf32gemm_f32_f32_f32_f32_f32_bias_f32_relu_b5e60466a2175912@cask6_myelin@@YA?AW4Status@1@AEAVContext@1@@Z
    ?InitializeDynamicShaders_cutlass3x_common_cutlass3x_sm100_tensorop_s64x128x8tf32gemm_f32_f32_f32_f32_f32_bias_f32_relu_b6b49580d2abbff5@cask6_myelin@@YA?AW4Status@1@AEAVContext@1@@Z
    ?InitializeDynamicShaders_cutlass3x_common_cutlass3x_sm100_tensorop_s64x128x8tf32gemm_f32_f32_f32_f32_f32_bias_f32_relu_db4576014604f5e6@cask6_myelin@@YA?AW4Status@1@AEAVContext@1@@Z
    ?InitializeDynamicShaders_cutlass3x_common_cutlass3x_sm100_tensorop_s64x64x16gemm_f16_f16_f32_f16_f16_bias_f16_gelu_8cf8f670cf3eabeb@cask6_myelin@@YA?AW4Status@1@AEAVContext@1@@Z
    ?InitializeDynamicShaders_cutlass3x_common_cutlass3x_sm100_tensorop_s64x64x16gemm_f16_f16_f32_f16_f16_bias_f16_gelu_erf_56de7ade95f12b88@cask6_myelin@@YA?AW4Status@1@AEAVContext@1@@Z
    ?InitializeDynamicShaders_cutlass3x_common_cutlass3x_sm100_tensorop_s64x64x16gemm_f16_f16_f32_f16_f16_bias_f16_relu_46d05fdffb0671e@cask6_myelin@@YA?AW4Status@1@AEAVContext@1@@Z
    ?InitializeDynamicShaders_cutlass3x_common_cutlass3x_sm100_tensorop_s64x64x16gemm_f16_f16_f32_f16_f16_bias_f16_relu_72e780056d9db395@cask6_myelin@@YA?AW4Status@1@AEAVContext@1@@Z
    ?InitializeDynamicShaders_cutlass3x_common_cutlass3x_sm100_tensorop_s64x64x16gemm_f16_f16_f32_f16_f16_bias_f16_relu_f66a94dab5839934@cask6_myelin@@YA?AW4Status@1@AEAVContext@1@@Z
    ?InitializeDynamicShaders_cutlass3x_common_cutlass3x_sm103_bstensorop_s128x128x96gemm_ue4m3xf4_ue4m3xf4_f32_bf16_bf16_bias_bf16_gelu_c26c8b09af203422@cask6_myelin@@YA?AW4Status@1@AEAVContext@1@@Z
    ?InitializeDynamicShaders_cutlass3x_common_cutlass3x_sm103_bstensorop_s128x128x96gemm_ue4m3xf4_ue4m3xf4_f32_bf16_bf16_bias_bf16_gelu_d999508ed0373505@cask6_myelin@@YA?AW4Status@1@AEAVContext@1@@Z
    ?InitializeDynamicShaders_cutlass3x_common_cutlass3x_sm103_bstensorop_s128x128x96gemm_ue4m3xf4_ue4m3xf4_f32_bf16_bf16_bias_bf16_relu_27955037c3d0855b@cask6_myelin@@YA?AW4Status@1@AEAVContext@1@@Z
    ?InitializeDynamicShaders_cutlass3x_common_cutlass3x_sm103_bstensorop_s128x128x96gemm_ue4m3xf4_ue4m3xf4_f32_bf16_bf16_bias_bf16_relu_a98a8ad2bf7ab7a0@cask6_myelin@@YA?AW4Status@1@AEAVContext@1@@Z
    ?InitializeDynamicShaders_cutlass3x_common_cutlass3x_sm103_bstensorop_s128x128x96gemm_ue4m3xf4_ue4m3xf4_f32_bf16_bf16_bias_bf16_swish_57f777323179fae7@cask6_myelin@@YA?AW4Status@1@AEAVContext@1@@Z
    ?InitializeDynamicShaders_cutlass3x_common_cutlass3x_sm103_bstensorop_s128x128x96gemm_ue4m3xf4_ue4m3xf4_f32_bf16_bf16_bias_bf16_swish_ff044a5ae6c9d8@cask6_myelin@@YA?AW4Status@1@AEAVContext@1@@Z
    ?InitializeDynamicShaders_cutlass3x_common_cutlass3x_sm103_bstensorop_s128x128x96gemm_ue4m3xf4_ue4m3xf4_f32_bf16_bf16_identity_30e679fad02105f1@cask6_myelin@@YA?AW4Status@1@AEAVContext@1@@Z
    ?InitializeDynamicShaders_cutlass3x_common_cutlass3x_sm103_bstensorop_s128x128x96gemm_ue4m3xf4_ue4m3xf4_f32_bf16_bf16_identity_3474477aa85bf34c@cask6_myelin@@YA?AW4Status@1@AEAVContext@1@@Z
    ?InitializeDynamicShaders_cutlass3x_common_cutlass3x_sm103_bstensorop_s128x128x96gemm_ue4m3xf4_ue4m3xf4_f32_bf16_ue4m3xe2m1_bias_bf16_gelu_epiVs16_8d384f6701f5ce10@cask6_myelin@@YA?AW4Status@1@AEAVContext@1@@Z
    ?InitializeDynamicShaders_cutlass3x_common_cutlass3x_sm103_bstensorop_s128x128x96gemm_ue4m3xf4_ue4m3xf4_f32_bf16_ue4m3xe2m1_bias_bf16_gelu_epiVs16_b538b7ce65f7640c@cask6_myelin@@YA?AW4Status@1@AEAVContext@1@@Z
    ?InitializeDynamicShaders_cutlass3x_common_cutlass3x_sm103_bstensorop_s128x128x96gemm_ue4m3xf4_ue4m3xf4_f32_bf16_ue4m3xe2m1_bias_bf16_relu_epiVs16_aaef46359067ee93@cask6_myelin@@YA?AW4Status@1@AEAVContext@1@@Z
    ?InitializeDynamicShaders_cutlass3x_common_cutlass3x_sm103_bstensorop_s128x128x96gemm_ue4m3xf4_ue4m3xf4_f32_bf16_ue4m3xe2m1_bias_bf16_relu_epiVs16_be8f8ab3d2f0a504@cask6_myelin@@YA?AW4Status@1@AEAVContext@1@@Z
    ?InitializeDynamicShaders_cutlass3x_common_cutlass3x_sm103_bstensorop_s128x128x96gemm_ue4m3xf4_ue4m3xf4_f32_bf16_ue4m3xe2m1_bias_bf16_swish_epiVs16_1cb600e12350d009@cask6_myelin@@YA?AW4Status@1@AEAVContext@1@@Z
    ?InitializeDynamicShaders_cutlass3x_common_cutlass3x_sm103_bstensorop_s128x128x96gemm_ue4m3xf4_ue4m3xf4_f32_bf16_ue4m3xe2m1_bias_bf16_swish_epiVs16_7492815f24336cc9@cask6_myelin@@YA?AW4Status@1@AEAVContext@1@@Z
    ?InitializeDynamicShaders_cutlass3x_common_cutlass3x_sm103_bstensorop_s128x128x96gemm_ue4m3xf4_ue4m3xf4_f32_f16_f16_bias_f16_gelu_4d68b73504066b7e@cask6_myelin@@YA?AW4Status@1@AEAVContext@1@@Z
    ?InitializeDynamicShaders_cutlass3x_common_cutlass3x_sm103_bstensorop_s128x128x96gemm_ue4m3xf4_ue4m3xf4_f32_f16_f16_bias_f16_gelu_7db4ce5e84f2e01d@cask6_myelin@@YA?AW4Status@1@AEAVContext@1@@Z
    ?InitializeDynamicShaders_cutlass3x_common_cutlass3x_sm103_bstensorop_s128x128x96gemm_ue4m3xf4_ue4m3xf4_f32_f16_f16_bias_f16_relu_154028c31dd53726@cask6_myelin@@YA?AW4Status@1@AEAVContext@1@@Z
    ?InitializeDynamicShaders_cutlass3x_common_cutlass3x_sm103_bstensorop_s128x128x96gemm_ue4m3xf4_ue4m3xf4_f32_f16_f16_bias_f16_relu_1d9e6e71cd8058c2@cask6_myelin@@YA?AW4Status@1@AEAVContext@1@@Z
    ?InitializeDynamicShaders_cutlass3x_common_cutlass3x_sm103_bstensorop_s128x128x96gemm_ue4m3xf4_ue4m3xf4_f32_f16_f16_bias_f16_swish_e015f8a30f726f12@cask6_myelin@@YA?AW4Status@1@AEAVContext@1@@Z
    ?InitializeDynamicShaders_cutlass3x_common_cutlass3x_sm103_bstensorop_s128x128x96gemm_ue4m3xf4_ue4m3xf4_f32_f16_f16_bias_f16_swish_e1db0b39a67a6e3f@cask6_myelin@@YA?AW4Status@1@AEAVContext@1@@Z
    ?InitializeDynamicShaders_cutlass3x_common_cutlass3x_sm103_bstensorop_s128x128x96gemm_ue4m3xf4_ue4m3xf4_f32_f16_f16_identity_2b20ac207acd0e30@cask6_myelin@@YA?AW4Status@1@AEAVContext@1@@Z
    ?InitializeDynamicShaders_cutlass3x_common_cutlass3x_sm103_bstensorop_s128x128x96gemm_ue4m3xf4_ue4m3xf4_f32_f16_f16_identity_78caffe32084bfe0@cask6_myelin@@YA?AW4Status@1@AEAVContext@1@@Z
    ?InitializeDynamicShaders_cutlass3x_common_cutlass3x_sm103_bstensorop_s128x128x96gemm_ue4m3xf4_ue4m3xf4_f32_f16_ue4m3xe2m1_bias_f16_gelu_epiVs16_70fabf3ad8b108b3@cask6_myelin@@YA?AW4Status@1@AEAVContext@1@@Z
    ?InitializeDynamicShaders_cutlass3x_common_cutlass3x_sm103_bstensorop_s128x128x96gemm_ue4m3xf4_ue4m3xf4_f32_f16_ue4m3xe2m1_bias_f16_gelu_epiVs16_e278471aa9dd1385@cask6_myelin@@YA?AW4Status@1@AEAVContext@1@@Z
    ?InitializeDynamicShaders_cutlass3x_common_cutlass3x_sm103_bstensorop_s128x128x96gemm_ue4m3xf4_ue4m3xf4_f32_f16_ue4m3xe2m1_bias_f16_relu_epiVs16_5752fbc6a9ae5b95@cask6_myelin@@YA?AW4Status@1@AEAVContext@1@@Z
    ?InitializeDynamicShaders_cutlass3x_common_cutlass3x_sm103_bstensorop_s128x128x96gemm_ue4m3xf4_ue4m3xf4_f32_f16_ue4m3xe2m1_bias_f16_relu_epiVs16_7f0d7c9214e6e16b@cask6_myelin@@YA?AW4Status@1@AEAVContext@1@@Z
    ?InitializeDynamicShaders_cutlass3x_common_cutlass3x_sm103_bstensorop_s128x128x96gemm_ue4m3xf4_ue4m3xf4_f32_f16_ue4m3xe2m1_bias_f16_swish_epiVs16_bd2b39fd4f5f8f93@cask6_myelin@@YA?AW4Status@1@AEAVContext@1@@Z
    ?InitializeDynamicShaders_cutlass3x_common_cutlass3x_sm103_bstensorop_s128x128x96gemm_ue4m3xf4_ue4m3xf4_f32_f16_ue4m3xe2m1_bias_f16_swish_epiVs16_ce6e599b72d7e4a8@cask6_myelin@@YA?AW4Status@1@AEAVContext@1@@Z
    ?InitializeDynamicShaders_cutlass3x_common_cutlass3x_sm103_bstensorop_s128x192x96gemm_ue4m3xf4_ue4m3xf4_f32_bf16_bf16_bias_bf16_gelu_9bd0a9b136079bbf@cask6_myelin@@YA?AW4Status@1@AEAVContext@1@@Z
    ?InitializeDynamicShaders_cutlass3x_common_cutlass3x_sm103_bstensorop_s128x192x96gemm_ue4m3xf4_ue4m3xf4_f32_bf16_bf16_bias_bf16_gelu_fda7b42655dd01ce@cask6_myelin@@YA?AW4Status@1@AEAVContext@1@@Z
    ?InitializeDynamicShaders_cutlass3x_common_cutlass3x_sm103_bstensorop_s128x192x96gemm_ue4m3xf4_ue4m3xf4_f32_bf16_bf16_bias_bf16_relu_998a9cc0351f5f5a@cask6_myelin@@YA?AW4Status@1@AEAVContext@1@@Z
    ?InitializeDynamicShaders_cutlass3x_common_cutlass3x_sm103_bstensorop_s128x192x96gemm_ue4m3xf4_ue4m3xf4_f32_bf16_bf16_bias_bf16_relu_d58ace26ac7649a7@cask6_myelin@@YA?AW4Status@1@AEAVContext@1@@Z
    ?InitializeDynamicShaders_cutlass3x_common_cutlass3x_sm103_bstensorop_s128x192x96gemm_ue4m3xf4_ue4m3xf4_f32_bf16_bf16_bias_bf16_swish_c151262bc3e72336@cask6_myelin@@YA?AW4Status@1@AEAVContext@1@@Z
    ?InitializeDynamicShaders_cutlass3x_common_cutlass3x_sm103_bstensorop_s128x192x96gemm_ue4m3xf4_ue4m3xf4_f32_bf16_bf16_bias_bf16_swish_f756c0424a46a563@cask6_myelin@@YA?AW4Status@1@AEAVContext@1@@Z
    ?InitializeDynamicShaders_cutlass3x_common_cutlass3x_sm103_bstensorop_s128x192x96gemm_ue4m3xf4_ue4m3xf4_f32_bf16_bf16_identity_82100331d7d07495@cask6_myelin@@YA?AW4Status@1@AEAVContext@1@@Z
    ?InitializeDynamicShaders_cutlass3x_common_cutlass3x_sm103_bstensorop_s128x192x96gemm_ue4m3xf4_ue4m3xf4_f32_bf16_bf16_identity_8b3ed818d696bd02@cask6_myelin@@YA?AW4Status@1@AEAVContext@1@@Z
    ?InitializeDynamicShaders_cutlass3x_common_cutlass3x_sm103_bstensorop_s128x192x96gemm_ue4m3xf4_ue4m3xf4_f32_bf16_ue4m3xe2m1_bias_bf16_gelu_epiVs16_11f302849021c3c9@cask6_myelin@@YA?AW4Status@1@AEAVContext@1@@Z
    ?InitializeDynamicShaders_cutlass3x_common_cutlass3x_sm103_bstensorop_s128x192x96gemm_ue4m3xf4_ue4m3xf4_f32_bf16_ue4m3xe2m1_bias_bf16_gelu_epiVs16_e7c45347b1435784@cask6_myelin@@YA?AW4Status@1@AEAVContext@1@@Z
    ?InitializeDynamicShaders_cutlass3x_common_cutlass3x_sm103_bstensorop_s128x192x96gemm_ue4m3xf4_ue4m3xf4_f32_bf16_ue4m3xe2m1_bias_bf16_relu_epiVs16_61cb25607815c8a@cask6_myelin@@YA?AW4Status@1@AEAVContext@1@@Z
    ?InitializeDynamicShaders_cutlass3x_common_cutlass3x_sm103_bstensorop_s128x192x96gemm_ue4m3xf4_ue4m3xf4_f32_bf16_ue4m3xe2m1_bias_bf16_relu_epiVs16_c70247e87541dd18@cask6_myelin@@YA?AW4Status@1@AEAVContext@1@@Z
    ?InitializeDynamicShaders_cutlass3x_common_cutlass3x_sm103_bstensorop_s128x192x96gemm_ue4m3xf4_ue4m3xf4_f32_bf16_ue4m3xe2m1_bias_bf16_swish_epiVs16_a4ade56a5d5beb2@cask6_myelin@@YA?AW4Status@1@AEAVContext@1@@Z
    ?InitializeDynamicShaders_cutlass3x_common_cutlass3x_sm103_bstensorop_s128x192x96gemm_ue4m3xf4_ue4m3xf4_f32_bf16_ue4m3xe2m1_bias_bf16_swish_epiVs16_c905775b47e79ac2@cask6_myelin@@YA?AW4Status@1@AEAVContext@1@@Z
    ?InitializeDynamicShaders_cutlass3x_common_cutlass3x_sm103_bstensorop_s128x192x96gemm_ue4m3xf4_ue4m3xf4_f32_f16_f16_bias_f16_gelu_24dd22c3c858edca@cask6_myelin@@YA?AW4Status@1@AEAVContext@1@@Z
    ?InitializeDynamicShaders_cutlass3x_common_cutlass3x_sm103_bstensorop_s128x192x96gemm_ue4m3xf4_ue4m3xf4_f32_f16_f16_bias_f16_gelu_2c45a3c0888591b1@cask6_myelin@@YA?AW4Status@1@AEAVContext@1@@Z
    ?InitializeDynamicShaders_cutlass3x_common_cutlass3x_sm103_bstensorop_s128x192x96gemm_ue4m3xf4_ue4m3xf4_f32_f16_f16_bias_f16_relu_9a44ca605bec8c5e@cask6_myelin@@YA?AW4Status@1@AEAVContext@1@@Z
    ?InitializeDynamicShaders_cutlass3x_common_cutlass3x_sm103_bstensorop_s128x192x96gemm_ue4m3xf4_ue4m3xf4_f32_f16_f16_bias_f16_relu_a9a8b05ade8e7705@cask6_myelin@@YA?AW4Status@1@AEAVContext@1@@Z
    ?InitializeDynamicShaders_cutlass3x_common_cutlass3x_sm103_bstensorop_s128x192x96gemm_ue4m3xf4_ue4m3xf4_f32_f16_f16_bias_f16_swish_77e36cc4f378008d@cask6_myelin@@YA?AW4Status@1@AEAVContext@1@@Z
    ?InitializeDynamicShaders_cutlass3x_common_cutlass3x_sm103_bstensorop_s128x192x96gemm_ue4m3xf4_ue4m3xf4_f32_f16_f16_bias_f16_swish_dcceb2de54945a5d@cask6_myelin@@YA?AW4Status@1@AEAVContext@1@@Z
    ?InitializeDynamicShaders_cutlass3x_common_cutlass3x_sm103_bstensorop_s128x192x96gemm_ue4m3xf4_ue4m3xf4_f32_f16_f16_identity_37348de042e87fa5@cask6_myelin@@YA?AW4Status@1@AEAVContext@1@@Z
    ?InitializeDynamicShaders_cutlass3x_common_cutlass3x_sm103_bstensorop_s128x192x96gemm_ue4m3xf4_ue4m3xf4_f32_f16_f16_identity_604241867363f4e4@cask6_myelin@@YA?AW4Status@1@AEAVContext@1@@Z
    ?InitializeDynamicShaders_cutlass3x_common_cutlass3x_sm103_bstensorop_s128x192x96gemm_ue4m3xf4_ue4m3xf4_f32_f16_ue4m3xe2m1_bias_f16_gelu_epiVs16_663619f8b6412554@cask6_myelin@@YA?AW4Status@1@AEAVContext@1@@Z
    ?InitializeDynamicShaders_cutlass3x_common_cutlass3x_sm103_bstensorop_s128x192x96gemm_ue4m3xf4_ue4m3xf4_f32_f16_ue4m3xe2m1_bias_f16_gelu_epiVs16_fb3b6d25ee1e6c93@cask6_myelin@@YA?AW4Status@1@AEAVContext@1@@Z
    ?InitializeDynamicShaders_cutlass3x_common_cutlass3x_sm103_bstensorop_s128x192x96gemm_ue4m3xf4_ue4m3xf4_f32_f16_ue4m3xe2m1_bias_f16_relu_epiVs16_44f66a3692e14059@cask6_myelin@@YA?AW4Status@1@AEAVContext@1@@Z
    ?InitializeDynamicShaders_cutlass3x_common_cutlass3x_sm103_bstensorop_s128x192x96gemm_ue4m3xf4_ue4m3xf4_f32_f16_ue4m3xe2m1_bias_f16_relu_epiVs16_73b867865a943502@cask6_myelin@@YA?AW4Status@1@AEAVContext@1@@Z
    ?InitializeDynamicShaders_cutlass3x_common_cutlass3x_sm103_bstensorop_s128x192x96gemm_ue4m3xf4_ue4m3xf4_f32_f16_ue4m3xe2m1_bias_f16_swish_epiVs16_13e893a44531005d@cask6_myelin@@YA?AW4Status@1@AEAVContext@1@@Z
    ?InitializeDynamicShaders_cutlass3x_common_cutlass3x_sm103_bstensorop_s128x192x96gemm_ue4m3xf4_ue4m3xf4_f32_f16_ue4m3xe2m1_bias_f16_swish_epiVs16_6adc06981e2babd1@cask6_myelin@@YA?AW4Status@1@AEAVContext@1@@Z
    ?InitializeDynamicShaders_cutlass3x_common_cutlass3x_sm103_bstensorop_s128x256x96gemm_ue4m3xf4_ue4m3xf4_f32_bf16_bf16_bias_bf16_gelu_c0422c19b40b030e@cask6_myelin@@YA?AW4Status@1@AEAVContext@1@@Z
    ?InitializeDynamicShaders_cutlass3x_common_cutlass3x_sm103_bstensorop_s128x256x96gemm_ue4m3xf4_ue4m3xf4_f32_bf16_bf16_bias_bf16_gelu_fc562530fa42475d@cask6_myelin@@YA?AW4Status@1@AEAVContext@1@@Z
    ?InitializeDynamicShaders_cutlass3x_common_cutlass3x_sm103_bstensorop_s128x256x96gemm_ue4m3xf4_ue4m3xf4_f32_bf16_bf16_bias_bf16_relu_d20c3d9fb79f890b@cask6_myelin@@YA?AW4Status@1@AEAVContext@1@@Z
    ?InitializeDynamicShaders_cutlass3x_common_cutlass3x_sm103_bstensorop_s128x256x96gemm_ue4m3xf4_ue4m3xf4_f32_bf16_bf16_bias_bf16_relu_d84fceb5318bc6f5@cask6_myelin@@YA?AW4Status@1@AEAVContext@1@@Z
    ?InitializeDynamicShaders_cutlass3x_common_cutlass3x_sm103_bstensorop_s128x256x96gemm_ue4m3xf4_ue4m3xf4_f32_bf16_bf16_bias_bf16_swish_375bc2f1a9e208a0@cask6_myelin@@YA?AW4Status@1@AEAVContext@1@@Z
    ?InitializeDynamicShaders_cutlass3x_common_cutlass3x_sm103_bstensorop_s128x256x96gemm_ue4m3xf4_ue4m3xf4_f32_bf16_bf16_bias_bf16_swish_e97b2d09b2ad4405@cask6_myelin@@YA?AW4Status@1@AEAVContext@1@@Z
    ?InitializeDynamicShaders_cutlass3x_common_cutlass3x_sm103_bstensorop_s128x256x96gemm_ue4m3xf4_ue4m3xf4_f32_bf16_bf16_identity_7ca2671ba02986cf@cask6_myelin@@YA?AW4Status@1@AEAVContext@1@@Z
    ?InitializeDynamicShaders_cutlass3x_common_cutlass3x_sm103_bstensorop_s128x256x96gemm_ue4m3xf4_ue4m3xf4_f32_bf16_bf16_identity_fee17188b3e06149@cask6_myelin@@YA?AW4Status@1@AEAVContext@1@@Z
    ?InitializeDynamicShaders_cutlass3x_common_cutlass3x_sm103_bstensorop_s128x256x96gemm_ue4m3xf4_ue4m3xf4_f32_bf16_ue4m3xe2m1_bias_bf16_gelu_epiVs16_89bda3ed7dc16e93@cask6_myelin@@YA?AW4Status@1@AEAVContext@1@@Z
    ?InitializeDynamicShaders_cutlass3x_common_cutlass3x_sm103_bstensorop_s128x256x96gemm_ue4m3xf4_ue4m3xf4_f32_bf16_ue4m3xe2m1_bias_bf16_gelu_epiVs16_a3df4d932e0d2047@cask6_myelin@@YA?AW4Status@1@AEAVContext@1@@Z
    ?InitializeDynamicShaders_cutlass3x_common_cutlass3x_sm103_bstensorop_s128x256x96gemm_ue4m3xf4_ue4m3xf4_f32_bf16_ue4m3xe2m1_bias_bf16_relu_epiVs16_18719d6bef7940b8@cask6_myelin@@YA?AW4Status@1@AEAVContext@1@@Z
    ?InitializeDynamicShaders_cutlass3x_common_cutlass3x_sm103_bstensorop_s128x256x96gemm_ue4m3xf4_ue4m3xf4_f32_bf16_ue4m3xe2m1_bias_bf16_relu_epiVs16_84f7105aa56557b0@cask6_myelin@@YA?AW4Status@1@AEAVContext@1@@Z
    ?InitializeDynamicShaders_cutlass3x_common_cutlass3x_sm103_bstensorop_s128x256x96gemm_ue4m3xf4_ue4m3xf4_f32_bf16_ue4m3xe2m1_bias_bf16_swish_epiVs16_8528886f0e512af6@cask6_myelin@@YA?AW4Status@1@AEAVContext@1@@Z
    ?InitializeDynamicShaders_cutlass3x_common_cutlass3x_sm103_bstensorop_s128x256x96gemm_ue4m3xf4_ue4m3xf4_f32_bf16_ue4m3xe2m1_bias_bf16_swish_epiVs16_fc8f9c56bafca8ed@cask6_myelin@@YA?AW4Status@1@AEAVContext@1@@Z
    ?InitializeDynamicShaders_cutlass3x_common_cutlass3x_sm103_bstensorop_s128x256x96gemm_ue4m3xf4_ue4m3xf4_f32_f16_f16_bias_f16_gelu_1ef5d527d3a21f5e@cask6_myelin@@YA?AW4Status@1@AEAVContext@1@@Z
    ?InitializeDynamicShaders_cutlass3x_common_cutlass3x_sm103_bstensorop_s128x256x96gemm_ue4m3xf4_ue4m3xf4_f32_f16_f16_bias_f16_gelu_5f6c14d01497becf@cask6_myelin@@YA?AW4Status@1@AEAVContext@1@@Z
    ?InitializeDynamicShaders_cutlass3x_common_cutlass3x_sm103_bstensorop_s128x256x96gemm_ue4m3xf4_ue4m3xf4_f32_f16_f16_bias_f16_relu_13267fd39dcdd5f6@cask6_myelin@@YA?AW4Status@1@AEAVContext@1@@Z
    ?InitializeDynamicShaders_cutlass3x_common_cutlass3x_sm103_bstensorop_s128x256x96gemm_ue4m3xf4_ue4m3xf4_f32_f16_f16_bias_f16_relu_b619e63f5fbce001@cask6_myelin@@YA?AW4Status@1@AEAVContext@1@@Z
    ?InitializeDynamicShaders_cutlass3x_common_cutlass3x_sm103_bstensorop_s128x256x96gemm_ue4m3xf4_ue4m3xf4_f32_f16_f16_bias_f16_swish_d709b6040c8cfcab@cask6_myelin@@YA?AW4Status@1@AEAVContext@1@@Z
    ?InitializeDynamicShaders_cutlass3x_common_cutlass3x_sm103_bstensorop_s128x256x96gemm_ue4m3xf4_ue4m3xf4_f32_f16_f16_bias_f16_swish_e185f434d89544b0@cask6_myelin@@YA?AW4Status@1@AEAVContext@1@@Z
    ?InitializeDynamicShaders_cutlass3x_common_cutlass3x_sm103_bstensorop_s128x256x96gemm_ue4m3xf4_ue4m3xf4_f32_f16_f16_identity_1a31552c32e38496@cask6_myelin@@YA?AW4Status@1@AEAVContext@1@@Z
    ?InitializeDynamicShaders_cutlass3x_common_cutlass3x_sm103_bstensorop_s128x256x96gemm_ue4m3xf4_ue4m3xf4_f32_f16_f16_identity_ab6ab3c5a6973089@cask6_myelin@@YA?AW4Status@1@AEAVContext@1@@Z
    ?InitializeDynamicShaders_cutlass3x_common_cutlass3x_sm103_bstensorop_s128x256x96gemm_ue4m3xf4_ue4m3xf4_f32_f16_ue4m3xe2m1_bias_f16_gelu_epiVs16_4e2744f936ae3888@cask6_myelin@@YA?AW4Status@1@AEAVContext@1@@Z
    ?InitializeDynamicShaders_cutlass3x_common_cutlass3x_sm103_bstensorop_s128x256x96gemm_ue4m3xf4_ue4m3xf4_f32_f16_ue4m3xe2m1_bias_f16_gelu_epiVs16_f5cc94f04332339d@cask6_myelin@@YA?AW4Status@1@AEAVContext@1@@Z
    ?InitializeDynamicShaders_cutlass3x_common_cutlass3x_sm103_bstensorop_s128x256x96gemm_ue4m3xf4_ue4m3xf4_f32_f16_ue4m3xe2m1_bias_f16_relu_epiVs16_afff6e929e1ba009@cask6_myelin@@YA?AW4Status@1@AEAVContext@1@@Z
    ?InitializeDynamicShaders_cutlass3x_common_cutlass3x_sm103_bstensorop_s128x256x96gemm_ue4m3xf4_ue4m3xf4_f32_f16_ue4m3xe2m1_bias_f16_relu_epiVs16_f3d43c5a672be510@cask6_myelin@@YA?AW4Status@1@AEAVContext@1@@Z
    ?InitializeDynamicShaders_cutlass3x_common_cutlass3x_sm103_bstensorop_s128x256x96gemm_ue4m3xf4_ue4m3xf4_f32_f16_ue4m3xe2m1_bias_f16_swish_epiVs16_64f299590fb9c5f0@cask6_myelin@@YA?AW4Status@1@AEAVContext@1@@Z
    ?InitializeDynamicShaders_cutlass3x_common_cutlass3x_sm103_bstensorop_s128x256x96gemm_ue4m3xf4_ue4m3xf4_f32_f16_ue4m3xe2m1_bias_f16_swish_epiVs16_7134d513690e1790@cask6_myelin@@YA?AW4Status@1@AEAVContext@1@@Z
    ?InitializeDynamicShaders_cutlass3x_common_cutlass3x_sm103_bstensorop_s256x128x96gemm_ue4m3xf4_ue4m3xf4_f32_bf16_bf16_bias_bf16_gelu_141fa3b7d825e55d@cask6_myelin@@YA?AW4Status@1@AEAVContext@1@@Z
    ?InitializeDynamicShaders_cutlass3x_common_cutlass3x_sm103_bstensorop_s256x128x96gemm_ue4m3xf4_ue4m3xf4_f32_bf16_bf16_bias_bf16_gelu_5c1c02adbb0b005e@cask6_myelin@@YA?AW4Status@1@AEAVContext@1@@Z
    ?InitializeDynamicShaders_cutlass3x_common_cutlass3x_sm103_bstensorop_s256x128x96gemm_ue4m3xf4_ue4m3xf4_f32_bf16_bf16_bias_bf16_relu_2494c4989651a173@cask6_myelin@@YA?AW4Status@1@AEAVContext@1@@Z
    ?InitializeDynamicShaders_cutlass3x_common_cutlass3x_sm103_bstensorop_s256x128x96gemm_ue4m3xf4_ue4m3xf4_f32_bf16_bf16_bias_bf16_relu_a311039001d5312e@cask6_myelin@@YA?AW4Status@1@AEAVContext@1@@Z
    ?InitializeDynamicShaders_cutlass3x_common_cutlass3x_sm103_bstensorop_s256x128x96gemm_ue4m3xf4_ue4m3xf4_f32_bf16_bf16_bias_bf16_swish_87b50fcc777312ef@cask6_myelin@@YA?AW4Status@1@AEAVContext@1@@Z
    ?InitializeDynamicShaders_cutlass3x_common_cutlass3x_sm103_bstensorop_s256x128x96gemm_ue4m3xf4_ue4m3xf4_f32_bf16_bf16_bias_bf16_swish_d37f846f0bbbe7be@cask6_myelin@@YA?AW4Status@1@AEAVContext@1@@Z
    ?InitializeDynamicShaders_cutlass3x_common_cutlass3x_sm103_bstensorop_s256x128x96gemm_ue4m3xf4_ue4m3xf4_f32_bf16_bf16_identity_195244d399c25355@cask6_myelin@@YA?AW4Status@1@AEAVContext@1@@Z
    ?InitializeDynamicShaders_cutlass3x_common_cutlass3x_sm103_bstensorop_s256x128x96gemm_ue4m3xf4_ue4m3xf4_f32_bf16_bf16_identity_5c1a943c580ee067@cask6_myelin@@YA?AW4Status@1@AEAVContext@1@@Z
    ?InitializeDynamicShaders_cutlass3x_common_cutlass3x_sm103_bstensorop_s256x128x96gemm_ue4m3xf4_ue4m3xf4_f32_bf16_ue4m3xe2m1_bias_bf16_gelu_epiVs16_2e663728529f5b00@cask6_myelin@@YA?AW4Status@1@AEAVContext@1@@Z
    ?InitializeDynamicShaders_cutlass3x_common_cutlass3x_sm103_bstensorop_s256x128x96gemm_ue4m3xf4_ue4m3xf4_f32_bf16_ue4m3xe2m1_bias_bf16_gelu_epiVs16_f7ebe576b2178848@cask6_myelin@@YA?AW4Status@1@AEAVContext@1@@Z
    ?InitializeDynamicShaders_cutlass3x_common_cutlass3x_sm103_bstensorop_s256x128x96gemm_ue4m3xf4_ue4m3xf4_f32_bf16_ue4m3xe2m1_bias_bf16_relu_epiVs16_9b865db74cf3415e@cask6_myelin@@YA?AW4Status@1@AEAVContext@1@@Z
    ?InitializeDynamicShaders_cutlass3x_common_cutlass3x_sm103_bstensorop_s256x128x96gemm_ue4m3xf4_ue4m3xf4_f32_bf16_ue4m3xe2m1_bias_bf16_relu_epiVs16_d8e40df25df39420@cask6_myelin@@YA?AW4Status@1@AEAVContext@1@@Z
    ?InitializeDynamicShaders_cutlass3x_common_cutlass3x_sm103_bstensorop_s256x128x96gemm_ue4m3xf4_ue4m3xf4_f32_bf16_ue4m3xe2m1_bias_bf16_swish_epiVs16_69081ec157b56649@cask6_myelin@@YA?AW4Status@1@AEAVContext@1@@Z
    ?InitializeDynamicShaders_cutlass3x_common_cutlass3x_sm103_bstensorop_s256x128x96gemm_ue4m3xf4_ue4m3xf4_f32_bf16_ue4m3xe2m1_bias_bf16_swish_epiVs16_b1252c490720817b@cask6_myelin@@YA?AW4Status@1@AEAVContext@1@@Z
    ?InitializeDynamicShaders_cutlass3x_common_cutlass3x_sm103_bstensorop_s256x128x96gemm_ue4m3xf4_ue4m3xf4_f32_f16_f16_bias_f16_gelu_1f96b760116ad6fb@cask6_myelin@@YA?AW4Status@1@AEAVContext@1@@Z
    ?InitializeDynamicShaders_cutlass3x_common_cutlass3x_sm103_bstensorop_s256x128x96gemm_ue4m3xf4_ue4m3xf4_f32_f16_f16_bias_f16_gelu_b634e1f94c8551b5@cask6_myelin@@YA?AW4Status@1@AEAVContext@1@@Z
    ?InitializeDynamicShaders_cutlass3x_common_cutlass3x_sm103_bstensorop_s256x128x96gemm_ue4m3xf4_ue4m3xf4_f32_f16_f16_bias_f16_relu_8144aa8b74ddbad4@cask6_myelin@@YA?AW4Status@1@AEAVContext@1@@Z
    ?InitializeDynamicShaders_cutlass3x_common_cutlass3x_sm103_bstensorop_s256x128x96gemm_ue4m3xf4_ue4m3xf4_f32_f16_f16_bias_f16_relu_f6086d3b9801f745@cask6_myelin@@YA?AW4Status@1@AEAVContext@1@@Z
    ?InitializeDynamicShaders_cutlass3x_common_cutlass3x_sm103_bstensorop_s256x128x96gemm_ue4m3xf4_ue4m3xf4_f32_f16_f16_bias_f16_swish_71972a0447c57183@cask6_myelin@@YA?AW4Status@1@AEAVContext@1@@Z
    ?InitializeDynamicShaders_cutlass3x_common_cutlass3x_sm103_bstensorop_s256x128x96gemm_ue4m3xf4_ue4m3xf4_f32_f16_f16_bias_f16_swish_cdaeff9eb2500862@cask6_myelin@@YA?AW4Status@1@AEAVContext@1@@Z
    ?InitializeDynamicShaders_cutlass3x_common_cutlass3x_sm103_bstensorop_s256x128x96gemm_ue4m3xf4_ue4m3xf4_f32_f16_f16_identity_1f9f0821bac8c78b@cask6_myelin@@YA?AW4Status@1@AEAVContext@1@@Z
    ?InitializeDynamicShaders_cutlass3x_common_cutlass3x_sm103_bstensorop_s256x128x96gemm_ue4m3xf4_ue4m3xf4_f32_f16_f16_identity_9cb13e915f0a0947@cask6_myelin@@YA?AW4Status@1@AEAVContext@1@@Z
    ?InitializeDynamicShaders_cutlass3x_common_cutlass3x_sm103_bstensorop_s256x128x96gemm_ue4m3xf4_ue4m3xf4_f32_f16_ue4m3xe2m1_bias_f16_gelu_epiVs16_36e7e36fe71be1df@cask6_myelin@@YA?AW4Status@1@AEAVContext@1@@Z
    ?InitializeDynamicShaders_cutlass3x_common_cutlass3x_sm103_bstensorop_s256x128x96gemm_ue4m3xf4_ue4m3xf4_f32_f16_ue4m3xe2m1_bias_f16_gelu_epiVs16_88f0f6aad591ff79@cask6_myelin@@YA?AW4Status@1@AEAVContext@1@@Z
    ?InitializeDynamicShaders_cutlass3x_common_cutlass3x_sm103_bstensorop_s256x128x96gemm_ue4m3xf4_ue4m3xf4_f32_f16_ue4m3xe2m1_bias_f16_relu_epiVs16_343f2a91b91c9b6f@cask6_myelin@@YA?AW4Status@1@AEAVContext@1@@Z
    ?InitializeDynamicShaders_cutlass3x_common_cutlass3x_sm103_bstensorop_s256x128x96gemm_ue4m3xf4_ue4m3xf4_f32_f16_ue4m3xe2m1_bias_f16_relu_epiVs16_38b3fb7eeea5d555@cask6_myelin@@YA?AW4Status@1@AEAVContext@1@@Z
    ?InitializeDynamicShaders_cutlass3x_common_cutlass3x_sm103_bstensorop_s256x128x96gemm_ue4m3xf4_ue4m3xf4_f32_f16_ue4m3xe2m1_bias_f16_swish_epiVs16_488ce9e88a5354af@cask6_myelin@@YA?AW4Status@1@AEAVContext@1@@Z
    ?InitializeDynamicShaders_cutlass3x_common_cutlass3x_sm103_bstensorop_s256x128x96gemm_ue4m3xf4_ue4m3xf4_f32_f16_ue4m3xe2m1_bias_f16_swish_epiVs16_e484b06c5d223104@cask6_myelin@@YA?AW4Status@1@AEAVContext@1@@Z
    ?InitializeDynamicShaders_cutlass3x_common_cutlass3x_sm103_bstensorop_s256x192x96gemm_ue4m3xf4_ue4m3xf4_f32_bf16_bf16_bias_bf16_gelu_27a170ee3bd12fa1@cask6_myelin@@YA?AW4Status@1@AEAVContext@1@@Z
    ?InitializeDynamicShaders_cutlass3x_common_cutlass3x_sm103_bstensorop_s256x192x96gemm_ue4m3xf4_ue4m3xf4_f32_bf16_bf16_bias_bf16_gelu_b9b53687871bc56@cask6_myelin@@YA?AW4Status@1@AEAVContext@1@@Z
    ?InitializeDynamicShaders_cutlass3x_common_cutlass3x_sm103_bstensorop_s256x192x96gemm_ue4m3xf4_ue4m3xf4_f32_bf16_bf16_bias_bf16_relu_18e4132cfa39a5d1@cask6_myelin@@YA?AW4Status@1@AEAVContext@1@@Z
    ?InitializeDynamicShaders_cutlass3x_common_cutlass3x_sm103_bstensorop_s256x192x96gemm_ue4m3xf4_ue4m3xf4_f32_bf16_bf16_bias_bf16_relu_af6eb0a1101e418@cask6_myelin@@YA?AW4Status@1@AEAVContext@1@@Z
    ?InitializeDynamicShaders_cutlass3x_common_cutlass3x_sm103_bstensorop_s256x192x96gemm_ue4m3xf4_ue4m3xf4_f32_bf16_bf16_bias_bf16_swish_23c8840de3367d42@cask6_myelin@@YA?AW4Status@1@AEAVContext@1@@Z
    ?InitializeDynamicShaders_cutlass3x_common_cutlass3x_sm103_bstensorop_s256x192x96gemm_ue4m3xf4_ue4m3xf4_f32_bf16_bf16_bias_bf16_swish_383efd100fb82e8@cask6_myelin@@YA?AW4Status@1@AEAVContext@1@@Z
    ?InitializeDynamicShaders_cutlass3x_common_cutlass3x_sm103_bstensorop_s256x192x96gemm_ue4m3xf4_ue4m3xf4_f32_bf16_bf16_identity_888760a7895616e0@cask6_myelin@@YA?AW4Status@1@AEAVContext@1@@Z
    ?InitializeDynamicShaders_cutlass3x_common_cutlass3x_sm103_bstensorop_s256x192x96gemm_ue4m3xf4_ue4m3xf4_f32_bf16_bf16_identity_b67ea5210e280a1f@cask6_myelin@@YA?AW4Status@1@AEAVContext@1@@Z
    ?InitializeDynamicShaders_cutlass3x_common_cutlass3x_sm103_bstensorop_s256x192x96gemm_ue4m3xf4_ue4m3xf4_f32_bf16_ue4m3xe2m1_bias_bf16_gelu_epiVs16_2737d58c905dee2d@cask6_myelin@@YA?AW4Status@1@AEAVContext@1@@Z
    ?InitializeDynamicShaders_cutlass3x_common_cutlass3x_sm103_bstensorop_s256x192x96gemm_ue4m3xf4_ue4m3xf4_f32_bf16_ue4m3xe2m1_bias_bf16_gelu_epiVs16_b8c60cb4ae2f86dd@cask6_myelin@@YA?AW4Status@1@AEAVContext@1@@Z
    ?InitializeDynamicShaders_cutlass3x_common_cutlass3x_sm103_bstensorop_s256x192x96gemm_ue4m3xf4_ue4m3xf4_f32_bf16_ue4m3xe2m1_bias_bf16_relu_epiVs16_2e8162a929258db3@cask6_myelin@@YA?AW4Status@1@AEAVContext@1@@Z
    ?InitializeDynamicShaders_cutlass3x_common_cutlass3x_sm103_bstensorop_s256x192x96gemm_ue4m3xf4_ue4m3xf4_f32_bf16_ue4m3xe2m1_bias_bf16_relu_epiVs16_c845ca92fad5da80@cask6_myelin@@YA?AW4Status@1@AEAVContext@1@@Z
    ?InitializeDynamicShaders_cutlass3x_common_cutlass3x_sm103_bstensorop_s256x192x96gemm_ue4m3xf4_ue4m3xf4_f32_bf16_ue4m3xe2m1_bias_bf16_swish_epiVs16_5248cc6ae7f9474b@cask6_myelin@@YA?AW4Status@1@AEAVContext@1@@Z
    ?InitializeDynamicShaders_cutlass3x_common_cutlass3x_sm103_bstensorop_s256x192x96gemm_ue4m3xf4_ue4m3xf4_f32_bf16_ue4m3xe2m1_bias_bf16_swish_epiVs16_545da5cb68943984@cask6_myelin@@YA?AW4Status@1@AEAVContext@1@@Z
    ?InitializeDynamicShaders_cutlass3x_common_cutlass3x_sm103_bstensorop_s256x192x96gemm_ue4m3xf4_ue4m3xf4_f32_f16_f16_bias_f16_gelu_1face994bb3b1ba@cask6_myelin@@YA?AW4Status@1@AEAVContext@1@@Z
    ?InitializeDynamicShaders_cutlass3x_common_cutlass3x_sm103_bstensorop_s256x192x96gemm_ue4m3xf4_ue4m3xf4_f32_f16_f16_bias_f16_gelu_f46faeeb3c4d5289@cask6_myelin@@YA?AW4Status@1@AEAVContext@1@@Z
    ?InitializeDynamicShaders_cutlass3x_common_cutlass3x_sm103_bstensorop_s256x192x96gemm_ue4m3xf4_ue4m3xf4_f32_f16_f16_bias_f16_relu_44d2143670884f12@cask6_myelin@@YA?AW4Status@1@AEAVContext@1@@Z
    ?InitializeDynamicShaders_cutlass3x_common_cutlass3x_sm103_bstensorop_s256x192x96gemm_ue4m3xf4_ue4m3xf4_f32_f16_f16_bias_f16_relu_759058f8e53884ce@cask6_myelin@@YA?AW4Status@1@AEAVContext@1@@Z
    ?InitializeDynamicShaders_cutlass3x_common_cutlass3x_sm103_bstensorop_s256x192x96gemm_ue4m3xf4_ue4m3xf4_f32_f16_f16_bias_f16_swish_7aa869ef5a6cc08@cask6_myelin@@YA?AW4Status@1@AEAVContext@1@@Z
    ?InitializeDynamicShaders_cutlass3x_common_cutlass3x_sm103_bstensorop_s256x192x96gemm_ue4m3xf4_ue4m3xf4_f32_f16_f16_bias_f16_swish_c5473f5e53281260@cask6_myelin@@YA?AW4Status@1@AEAVContext@1@@Z
    ?InitializeDynamicShaders_cutlass3x_common_cutlass3x_sm103_bstensorop_s256x192x96gemm_ue4m3xf4_ue4m3xf4_f32_f16_f16_identity_57dc019d84caaa17@cask6_myelin@@YA?AW4Status@1@AEAVContext@1@@Z
    ?InitializeDynamicShaders_cutlass3x_common_cutlass3x_sm103_bstensorop_s256x192x96gemm_ue4m3xf4_ue4m3xf4_f32_f16_f16_identity_6201e48f528f87b0@cask6_myelin@@YA?AW4Status@1@AEAVContext@1@@Z
    ?InitializeDynamicShaders_cutlass3x_common_cutlass3x_sm103_bstensorop_s256x192x96gemm_ue4m3xf4_ue4m3xf4_f32_f16_ue4m3xe2m1_bias_f16_gelu_epiVs16_622f03a2d1622756@cask6_myelin@@YA?AW4Status@1@AEAVContext@1@@Z
    ?InitializeDynamicShaders_cutlass3x_common_cutlass3x_sm103_bstensorop_s256x192x96gemm_ue4m3xf4_ue4m3xf4_f32_f16_ue4m3xe2m1_bias_f16_gelu_epiVs16_9b8387e8b10d8b71@cask6_myelin@@YA?AW4Status@1@AEAVContext@1@@Z
    ?InitializeDynamicShaders_cutlass3x_common_cutlass3x_sm103_bstensorop_s256x192x96gemm_ue4m3xf4_ue4m3xf4_f32_f16_ue4m3xe2m1_bias_f16_relu_epiVs16_8ad9809d084f986c@cask6_myelin@@YA?AW4Status@1@AEAVContext@1@@Z
    ?InitializeDynamicShaders_cutlass3x_common_cutlass3x_sm103_bstensorop_s256x192x96gemm_ue4m3xf4_ue4m3xf4_f32_f16_ue4m3xe2m1_bias_f16_relu_epiVs16_ef6918908612654@cask6_myelin@@YA?AW4Status@1@AEAVContext@1@@Z
    ?InitializeDynamicShaders_cutlass3x_common_cutlass3x_sm103_bstensorop_s256x192x96gemm_ue4m3xf4_ue4m3xf4_f32_f16_ue4m3xe2m1_bias_f16_swish_epiVs16_bd6126bbf184f1fd@cask6_myelin@@YA?AW4Status@1@AEAVContext@1@@Z
    ?InitializeDynamicShaders_cutlass3x_common_cutlass3x_sm103_bstensorop_s256x192x96gemm_ue4m3xf4_ue4m3xf4_f32_f16_ue4m3xe2m1_bias_f16_swish_epiVs16_ee2ac66c42336e@cask6_myelin@@YA?AW4Status@1@AEAVContext@1@@Z
    ?InitializeDynamicShaders_cutlass3x_common_cutlass3x_sm103_bstensorop_s256x256x96gemm_ue4m3xf4_ue4m3xf4_f32_bf16_bf16_bias_bf16_gelu_5ada84551cd261e2@cask6_myelin@@YA?AW4Status@1@AEAVContext@1@@Z
    ?InitializeDynamicShaders_cutlass3x_common_cutlass3x_sm103_bstensorop_s256x256x96gemm_ue4m3xf4_ue4m3xf4_f32_bf16_bf16_bias_bf16_gelu_5b9a2bc954b18d8d@cask6_myelin@@YA?AW4Status@1@AEAVContext@1@@Z
    ?InitializeDynamicShaders_cutlass3x_common_cutlass3x_sm103_bstensorop_s256x256x96gemm_ue4m3xf4_ue4m3xf4_f32_bf16_bf16_bias_bf16_relu_4ea097da4c37a2e5@cask6_myelin@@YA?AW4Status@1@AEAVContext@1@@Z
    ?InitializeDynamicShaders_cutlass3x_common_cutlass3x_sm103_bstensorop_s256x256x96gemm_ue4m3xf4_ue4m3xf4_f32_bf16_bf16_bias_bf16_relu_87dd1ca5168750@cask6_myelin@@YA?AW4Status@1@AEAVContext@1@@Z
    ?InitializeDynamicShaders_cutlass3x_common_cutlass3x_sm103_bstensorop_s256x256x96gemm_ue4m3xf4_ue4m3xf4_f32_bf16_bf16_bias_bf16_swish_6871fd176c23fdfc@cask6_myelin@@YA?AW4Status@1@AEAVContext@1@@Z
    ?InitializeDynamicShaders_cutlass3x_common_cutlass3x_sm103_bstensorop_s256x256x96gemm_ue4m3xf4_ue4m3xf4_f32_bf16_bf16_bias_bf16_swish_d9aa52dbd768cb5@cask6_myelin@@YA?AW4Status@1@AEAVContext@1@@Z
    ?InitializeDynamicShaders_cutlass3x_common_cutlass3x_sm103_bstensorop_s256x256x96gemm_ue4m3xf4_ue4m3xf4_f32_bf16_bf16_identity_ba020c93e385935d@cask6_myelin@@YA?AW4Status@1@AEAVContext@1@@Z
    ?InitializeDynamicShaders_cutlass3x_common_cutlass3x_sm103_bstensorop_s256x256x96gemm_ue4m3xf4_ue4m3xf4_f32_bf16_bf16_identity_fc282a7f449f9d79@cask6_myelin@@YA?AW4Status@1@AEAVContext@1@@Z
    ?InitializeDynamicShaders_cutlass3x_common_cutlass3x_sm103_bstensorop_s256x256x96gemm_ue4m3xf4_ue4m3xf4_f32_bf16_ue4m3xe2m1_bias_bf16_gelu_epiVs16_52fe080add56383b@cask6_myelin@@YA?AW4Status@1@AEAVContext@1@@Z
    ?InitializeDynamicShaders_cutlass3x_common_cutlass3x_sm103_bstensorop_s256x256x96gemm_ue4m3xf4_ue4m3xf4_f32_bf16_ue4m3xe2m1_bias_bf16_gelu_epiVs16_7dc2ea4ee99908d3@cask6_myelin@@YA?AW4Status@1@AEAVContext@1@@Z
    ?InitializeDynamicShaders_cutlass3x_common_cutlass3x_sm103_bstensorop_s256x256x96gemm_ue4m3xf4_ue4m3xf4_f32_bf16_ue4m3xe2m1_bias_bf16_relu_epiVs16_481917bc9ee0bbfe@cask6_myelin@@YA?AW4Status@1@AEAVContext@1@@Z
    ?InitializeDynamicShaders_cutlass3x_common_cutlass3x_sm103_bstensorop_s256x256x96gemm_ue4m3xf4_ue4m3xf4_f32_bf16_ue4m3xe2m1_bias_bf16_relu_epiVs16_e88ba55f7e238630@cask6_myelin@@YA?AW4Status@1@AEAVContext@1@@Z
    ?InitializeDynamicShaders_cutlass3x_common_cutlass3x_sm103_bstensorop_s256x256x96gemm_ue4m3xf4_ue4m3xf4_f32_bf16_ue4m3xe2m1_bias_bf16_swish_epiVs16_7c8d4dac704a1dd6@cask6_myelin@@YA?AW4Status@1@AEAVContext@1@@Z
    ?InitializeDynamicShaders_cutlass3x_common_cutlass3x_sm103_bstensorop_s256x256x96gemm_ue4m3xf4_ue4m3xf4_f32_bf16_ue4m3xe2m1_bias_bf16_swish_epiVs16_a72e70121d423d02@cask6_myelin@@YA?AW4Status@1@AEAVContext@1@@Z
    ?InitializeDynamicShaders_cutlass3x_common_cutlass3x_sm103_bstensorop_s256x256x96gemm_ue4m3xf4_ue4m3xf4_f32_f16_f16_bias_f16_gelu_670010e5a8f74550@cask6_myelin@@YA?AW4Status@1@AEAVContext@1@@Z
    ?InitializeDynamicShaders_cutlass3x_common_cutlass3x_sm103_bstensorop_s256x256x96gemm_ue4m3xf4_ue4m3xf4_f32_f16_f16_bias_f16_gelu_7f728377099a0066@cask6_myelin@@YA?AW4Status@1@AEAVContext@1@@Z
    ?InitializeDynamicShaders_cutlass3x_common_cutlass3x_sm103_bstensorop_s256x256x96gemm_ue4m3xf4_ue4m3xf4_f32_f16_f16_bias_f16_relu_56436b6f40a6609b@cask6_myelin@@YA?AW4Status@1@AEAVContext@1@@Z
    ?InitializeDynamicShaders_cutlass3x_common_cutlass3x_sm103_bstensorop_s256x256x96gemm_ue4m3xf4_ue4m3xf4_f32_f16_f16_bias_f16_relu_7c6f97d0b68d1c12@cask6_myelin@@YA?AW4Status@1@AEAVContext@1@@Z
    ?InitializeDynamicShaders_cutlass3x_common_cutlass3x_sm103_bstensorop_s256x256x96gemm_ue4m3xf4_ue4m3xf4_f32_f16_f16_bias_f16_swish_79682eeda8ce5b6a@cask6_myelin@@YA?AW4Status@1@AEAVContext@1@@Z
    ?InitializeDynamicShaders_cutlass3x_common_cutlass3x_sm103_bstensorop_s256x256x96gemm_ue4m3xf4_ue4m3xf4_f32_f16_f16_bias_f16_swish_a569224f3692071f@cask6_myelin@@YA?AW4Status@1@AEAVContext@1@@Z
    ?InitializeDynamicShaders_cutlass3x_common_cutlass3x_sm103_bstensorop_s256x256x96gemm_ue4m3xf4_ue4m3xf4_f32_f16_f16_identity_5424ae3c24d0e214@cask6_myelin@@YA?AW4Status@1@AEAVContext@1@@Z
    ?InitializeDynamicShaders_cutlass3x_common_cutlass3x_sm103_bstensorop_s256x256x96gemm_ue4m3xf4_ue4m3xf4_f32_f16_f16_identity_eb6f38ec22c5ffa3@cask6_myelin@@YA?AW4Status@1@AEAVContext@1@@Z
    ?InitializeDynamicShaders_cutlass3x_common_cutlass3x_sm103_bstensorop_s256x256x96gemm_ue4m3xf4_ue4m3xf4_f32_f16_ue4m3xe2m1_bias_f16_gelu_epiVs16_6e6031bca1413e6e@cask6_myelin@@YA?AW4Status@1@AEAVContext@1@@Z
    ?InitializeDynamicShaders_cutlass3x_common_cutlass3x_sm103_bstensorop_s256x256x96gemm_ue4m3xf4_ue4m3xf4_f32_f16_ue4m3xe2m1_bias_f16_gelu_epiVs16_c50979c16680b748@cask6_myelin@@YA?AW4Status@1@AEAVContext@1@@Z
    ?InitializeDynamicShaders_cutlass3x_common_cutlass3x_sm103_bstensorop_s256x256x96gemm_ue4m3xf4_ue4m3xf4_f32_f16_ue4m3xe2m1_bias_f16_relu_epiVs16_129898eb365e03b5@cask6_myelin@@YA?AW4Status@1@AEAVContext@1@@Z
    ?InitializeDynamicShaders_cutlass3x_common_cutlass3x_sm103_bstensorop_s256x256x96gemm_ue4m3xf4_ue4m3xf4_f32_f16_ue4m3xe2m1_bias_f16_relu_epiVs16_3b3187a6ed4cf39b@cask6_myelin@@YA?AW4Status@1@AEAVContext@1@@Z
    ?InitializeDynamicShaders_cutlass3x_common_cutlass3x_sm103_bstensorop_s256x256x96gemm_ue4m3xf4_ue4m3xf4_f32_f16_ue4m3xe2m1_bias_f16_swish_epiVs16_c693c1d8f74d32b6@cask6_myelin@@YA?AW4Status@1@AEAVContext@1@@Z
    ?InitializeDynamicShaders_cutlass3x_common_cutlass3x_sm103_bstensorop_s256x256x96gemm_ue4m3xf4_ue4m3xf4_f32_f16_ue4m3xe2m1_bias_f16_swish_epiVs16_f0b29e1dce4b060f@cask6_myelin@@YA?AW4Status@1@AEAVContext@1@@Z
    ?InitializeDynamicShaders_cutlass3x_common_cutlass3x_sm120_bstensorop_s16832gemm_ue8m0xe4m3_ue8m0xe4m3_f32_bf16_bf16_bias_bf16_gelu_868550cef964ed85@cask6_myelin@@YA?AW4Status@1@AEAVContext@1@@Z
    ?InitializeDynamicShaders_cutlass3x_common_cutlass3x_sm120_bstensorop_s16832gemm_ue8m0xe4m3_ue8m0xe4m3_f32_bf16_bf16_bias_bf16_gelu_a1399193cc2bc9c2@cask6_myelin@@YA?AW4Status@1@AEAVContext@1@@Z
    ?InitializeDynamicShaders_cutlass3x_common_cutlass3x_sm120_bstensorop_s16832gemm_ue8m0xe4m3_ue8m0xe4m3_f32_bf16_bf16_bias_bf16_relu_8b38ccc6812e31aa@cask6_myelin@@YA?AW4Status@1@AEAVContext@1@@Z
    ?InitializeDynamicShaders_cutlass3x_common_cutlass3x_sm120_bstensorop_s16832gemm_ue8m0xe4m3_ue8m0xe4m3_f32_bf16_bf16_bias_bf16_relu_ca656ca6c942fc7e@cask6_myelin@@YA?AW4Status@1@AEAVContext@1@@Z
    ?InitializeDynamicShaders_cutlass3x_common_cutlass3x_sm120_bstensorop_s16832gemm_ue8m0xe4m3_ue8m0xe4m3_f32_bf16_bf16_identity_819255519a6995db@cask6_myelin@@YA?AW4Status@1@AEAVContext@1@@Z
    ?InitializeDynamicShaders_cutlass3x_common_cutlass3x_sm120_bstensorop_s16832gemm_ue8m0xe4m3_ue8m0xe4m3_f32_bf16_bf16_identity_93e9aecc4671a55@cask6_myelin@@YA?AW4Status@1@AEAVContext@1@@Z
    ?InitializeDynamicShaders_cutlass3x_common_cutlass3x_sm120_bstensorop_s16832gemm_ue8m0xe4m3_ue8m0xe4m3_f32_bf16_ue8m0xe4m3_bias_bf16_gelu_epiVs32_a1a06950a3cb6088@cask6_myelin@@YA?AW4Status@1@AEAVContext@1@@Z
    ?InitializeDynamicShaders_cutlass3x_common_cutlass3x_sm120_bstensorop_s16832gemm_ue8m0xe4m3_ue8m0xe4m3_f32_bf16_ue8m0xe4m3_bias_bf16_gelu_epiVs32_cd42253d30a05f7e@cask6_myelin@@YA?AW4Status@1@AEAVContext@1@@Z
    ?InitializeDynamicShaders_cutlass3x_common_cutlass3x_sm120_bstensorop_s16832gemm_ue8m0xe4m3_ue8m0xe4m3_f32_bf16_ue8m0xe4m3_bias_bf16_relu_epiVs32_aea486017a2ab1d3@cask6_myelin@@YA?AW4Status@1@AEAVContext@1@@Z
    ?InitializeDynamicShaders_cutlass3x_common_cutlass3x_sm120_bstensorop_s16832gemm_ue8m0xe4m3_ue8m0xe4m3_f32_bf16_ue8m0xe4m3_bias_bf16_relu_epiVs32_b8c7859f4a097f0@cask6_myelin@@YA?AW4Status@1@AEAVContext@1@@Z
    ?InitializeDynamicShaders_cutlass3x_common_cutlass3x_sm120_bstensorop_s16832gemm_ue8m0xe4m3_ue8m0xe4m3_f32_f16_f16_bias_f16_gelu_32b277bd6220a0c2@cask6_myelin@@YA?AW4Status@1@AEAVContext@1@@Z
    ?InitializeDynamicShaders_cutlass3x_common_cutlass3x_sm120_bstensorop_s16832gemm_ue8m0xe4m3_ue8m0xe4m3_f32_f16_f16_bias_f16_gelu_e6f686385d6806f4@cask6_myelin@@YA?AW4Status@1@AEAVContext@1@@Z
    ?InitializeDynamicShaders_cutlass3x_common_cutlass3x_sm120_bstensorop_s16832gemm_ue8m0xe4m3_ue8m0xe4m3_f32_f16_f16_bias_f16_relu_35aa8ee66e56f6d3@cask6_myelin@@YA?AW4Status@1@AEAVContext@1@@Z
    ?InitializeDynamicShaders_cutlass3x_common_cutlass3x_sm120_bstensorop_s16832gemm_ue8m0xe4m3_ue8m0xe4m3_f32_f16_f16_bias_f16_relu_b86571b50819d53a@cask6_myelin@@YA?AW4Status@1@AEAVContext@1@@Z
    ?InitializeDynamicShaders_cutlass3x_common_cutlass3x_sm120_bstensorop_s16832gemm_ue8m0xe4m3_ue8m0xe4m3_f32_f16_f16_identity_3414369986a738e1@cask6_myelin@@YA?AW4Status@1@AEAVContext@1@@Z
    ?InitializeDynamicShaders_cutlass3x_common_cutlass3x_sm120_bstensorop_s16832gemm_ue8m0xe4m3_ue8m0xe4m3_f32_f16_f16_identity_a503e96838b3e2c@cask6_myelin@@YA?AW4Status@1@AEAVContext@1@@Z
    ?InitializeDynamicShaders_cutlass3x_common_cutlass3x_sm120_bstensorop_s16832gemm_ue8m0xe4m3_ue8m0xe4m3_f32_f16_ue8m0xe4m3_bias_f16_gelu_epiVs32_6f3fe1518183f9b8@cask6_myelin@@YA?AW4Status@1@AEAVContext@1@@Z
    ?InitializeDynamicShaders_cutlass3x_common_cutlass3x_sm120_bstensorop_s16832gemm_ue8m0xe4m3_ue8m0xe4m3_f32_f16_ue8m0xe4m3_bias_f16_gelu_epiVs32_96df4e6528980e9@cask6_myelin@@YA?AW4Status@1@AEAVContext@1@@Z
    ?InitializeDynamicShaders_cutlass3x_common_cutlass3x_sm120_bstensorop_s16832gemm_ue8m0xe4m3_ue8m0xe4m3_f32_f16_ue8m0xe4m3_bias_f16_relu_epiVs32_3abe247d18797443@cask6_myelin@@YA?AW4Status@1@AEAVContext@1@@Z
    ?InitializeDynamicShaders_cutlass3x_common_cutlass3x_sm120_bstensorop_s16832gemm_ue8m0xe4m3_ue8m0xe4m3_f32_f16_ue8m0xe4m3_bias_f16_relu_epiVs32_a9b36c18e3a975@cask6_myelin@@YA?AW4Status@1@AEAVContext@1@@Z
    ?InitializeDynamicShaders_cutlass3x_common_cutlass3x_sm120_bstensorop_s16832gemm_ue8m0xe4m3_ue8m0xe4m3_f32_f32_f32_identity_6f3759629e461eeb@cask6_myelin@@YA?AW4Status@1@AEAVContext@1@@Z
    ?InitializeDynamicShaders_cutlass3x_common_cutlass3x_sm120_bstensorop_s16832gemm_ue8m0xe4m3_ue8m0xe4m3_f32_f32_f32_identity_c0b366f8978c7575@cask6_myelin@@YA?AW4Status@1@AEAVContext@1@@Z
    ?InitializeDynamicShaders_cutlass3x_common_cutlass3x_sm120_bstensorop_s16864gemm_ue4m3xe2m1_ue4m3xe2m1_f32_bf16_bf16_bias_bf16_gelu_1e36998b2c9ac1d6@cask6_myelin@@YA?AW4Status@1@AEAVContext@1@@Z
    ?InitializeDynamicShaders_cutlass3x_common_cutlass3x_sm120_bstensorop_s16864gemm_ue4m3xe2m1_ue4m3xe2m1_f32_bf16_bf16_bias_bf16_gelu_e4a577c058ac94f1@cask6_myelin@@YA?AW4Status@1@AEAVContext@1@@Z
    ?InitializeDynamicShaders_cutlass3x_common_cutlass3x_sm120_bstensorop_s16864gemm_ue4m3xe2m1_ue4m3xe2m1_f32_bf16_bf16_bias_bf16_gelu_ede5acd75fcb6875@cask6_myelin@@YA?AW4Status@1@AEAVContext@1@@Z
    ?InitializeDynamicShaders_cutlass3x_common_cutlass3x_sm120_bstensorop_s16864gemm_ue4m3xe2m1_ue4m3xe2m1_f32_bf16_bf16_bias_bf16_relu_1a24047e1966a83f@cask6_myelin@@YA?AW4Status@1@AEAVContext@1@@Z
    ?InitializeDynamicShaders_cutlass3x_common_cutlass3x_sm120_bstensorop_s16864gemm_ue4m3xe2m1_ue4m3xe2m1_f32_bf16_bf16_bias_bf16_relu_4404b9ca9c08a693@cask6_myelin@@YA?AW4Status@1@AEAVContext@1@@Z
    ?InitializeDynamicShaders_cutlass3x_common_cutlass3x_sm120_bstensorop_s16864gemm_ue4m3xe2m1_ue4m3xe2m1_f32_bf16_bf16_bias_bf16_relu_f5c398cae1b7b0be@cask6_myelin@@YA?AW4Status@1@AEAVContext@1@@Z
    ?InitializeDynamicShaders_cutlass3x_common_cutlass3x_sm120_bstensorop_s16864gemm_ue4m3xe2m1_ue4m3xe2m1_f32_bf16_bf16_bias_bf16_swish_6ae61477f5604742@cask6_myelin@@YA?AW4Status@1@AEAVContext@1@@Z
    ?InitializeDynamicShaders_cutlass3x_common_cutlass3x_sm120_bstensorop_s16864gemm_ue4m3xe2m1_ue4m3xe2m1_f32_bf16_bf16_bias_bf16_swish_9f982ca3ae9c92c2@cask6_myelin@@YA?AW4Status@1@AEAVContext@1@@Z
    ?InitializeDynamicShaders_cutlass3x_common_cutlass3x_sm120_bstensorop_s16864gemm_ue4m3xe2m1_ue4m3xe2m1_f32_bf16_bf16_bias_bf16_swish_edc281a2444e304a@cask6_myelin@@YA?AW4Status@1@AEAVContext@1@@Z
    ?InitializeDynamicShaders_cutlass3x_common_cutlass3x_sm120_bstensorop_s16864gemm_ue4m3xe2m1_ue4m3xe2m1_f32_bf16_ue4m3xe2m1_bias_bf16_gelu_epiVs16_4e3a6f845c403b02@cask6_myelin@@YA?AW4Status@1@AEAVContext@1@@Z
    ?InitializeDynamicShaders_cutlass3x_common_cutlass3x_sm120_bstensorop_s16864gemm_ue4m3xe2m1_ue4m3xe2m1_f32_bf16_ue4m3xe2m1_bias_bf16_gelu_epiVs16_80c61d37278b9777@cask6_myelin@@YA?AW4Status@1@AEAVContext@1@@Z
    ?InitializeDynamicShaders_cutlass3x_common_cutlass3x_sm120_bstensorop_s16864gemm_ue4m3xe2m1_ue4m3xe2m1_f32_bf16_ue4m3xe2m1_bias_bf16_gelu_epiVs16_c41c5aa1c9c5ca1f@cask6_myelin@@YA?AW4Status@1@AEAVContext@1@@Z
    ?InitializeDynamicShaders_cutlass3x_common_cutlass3x_sm120_bstensorop_s16864gemm_ue4m3xe2m1_ue4m3xe2m1_f32_bf16_ue4m3xe2m1_bias_bf16_relu_epiVs16_302f0ef75f7861d4@cask6_myelin@@YA?AW4Status@1@AEAVContext@1@@Z
    ?InitializeDynamicShaders_cutlass3x_common_cutlass3x_sm120_bstensorop_s16864gemm_ue4m3xe2m1_ue4m3xe2m1_f32_bf16_ue4m3xe2m1_bias_bf16_relu_epiVs16_667fadbeddec05ed@cask6_myelin@@YA?AW4Status@1@AEAVContext@1@@Z
    ?InitializeDynamicShaders_cutlass3x_common_cutlass3x_sm120_bstensorop_s16864gemm_ue4m3xe2m1_ue4m3xe2m1_f32_bf16_ue4m3xe2m1_bias_bf16_relu_epiVs16_9789d1e06f22b49@cask6_myelin@@YA?AW4Status@1@AEAVContext@1@@Z
    ?InitializeDynamicShaders_cutlass3x_common_cutlass3x_sm120_bstensorop_s16864gemm_ue4m3xe2m1_ue4m3xe2m1_f32_bf16_ue4m3xe2m1_bias_bf16_swish_epiVs16_2f44b617861eeab8@cask6_myelin@@YA?AW4Status@1@AEAVContext@1@@Z
    ?InitializeDynamicShaders_cutlass3x_common_cutlass3x_sm120_bstensorop_s16864gemm_ue4m3xe2m1_ue4m3xe2m1_f32_bf16_ue4m3xe2m1_bias_bf16_swish_epiVs16_41f79d460d9bb484@cask6_myelin@@YA?AW4Status@1@AEAVContext@1@@Z
    ?InitializeDynamicShaders_cutlass3x_common_cutlass3x_sm120_bstensorop_s16864gemm_ue4m3xe2m1_ue4m3xe2m1_f32_bf16_ue4m3xe2m1_bias_bf16_swish_epiVs16_e7430cfa415b7a5b@cask6_myelin@@YA?AW4Status@1@AEAVContext@1@@Z
    ?InitializeDynamicShaders_cutlass3x_common_cutlass3x_sm120_bstensorop_s16864gemm_ue4m3xe2m1_ue4m3xe2m1_f32_f16_f16_bias_f16_gelu_66cc224d829c3f67@cask6_myelin@@YA?AW4Status@1@AEAVContext@1@@Z
    ?InitializeDynamicShaders_cutlass3x_common_cutlass3x_sm120_bstensorop_s16864gemm_ue4m3xe2m1_ue4m3xe2m1_f32_f16_f16_bias_f16_gelu_771d8fe84f5564d5@cask6_myelin@@YA?AW4Status@1@AEAVContext@1@@Z
    ?InitializeDynamicShaders_cutlass3x_common_cutlass3x_sm120_bstensorop_s16864gemm_ue4m3xe2m1_ue4m3xe2m1_f32_f16_f16_bias_f16_gelu_878afd5b230e92ea@cask6_myelin@@YA?AW4Status@1@AEAVContext@1@@Z
    ?InitializeDynamicShaders_cutlass3x_common_cutlass3x_sm120_bstensorop_s16864gemm_ue4m3xe2m1_ue4m3xe2m1_f32_f16_f16_bias_f16_relu_41c9ec37d3ff29de@cask6_myelin@@YA?AW4Status@1@AEAVContext@1@@Z
    ?InitializeDynamicShaders_cutlass3x_common_cutlass3x_sm120_bstensorop_s16864gemm_ue4m3xe2m1_ue4m3xe2m1_f32_f16_f16_bias_f16_relu_56464127ae0c0664@cask6_myelin@@YA?AW4Status@1@AEAVContext@1@@Z
    ?InitializeDynamicShaders_cutlass3x_common_cutlass3x_sm120_bstensorop_s16864gemm_ue4m3xe2m1_ue4m3xe2m1_f32_f16_f16_bias_f16_relu_e8be25c802bd52fa@cask6_myelin@@YA?AW4Status@1@AEAVContext@1@@Z
    ?InitializeDynamicShaders_cutlass3x_common_cutlass3x_sm120_bstensorop_s16864gemm_ue4m3xe2m1_ue4m3xe2m1_f32_f16_f16_bias_f16_swish_3bb44d5229c5b24b@cask6_myelin@@YA?AW4Status@1@AEAVContext@1@@Z
    ?InitializeDynamicShaders_cutlass3x_common_cutlass3x_sm120_bstensorop_s16864gemm_ue4m3xe2m1_ue4m3xe2m1_f32_f16_f16_bias_f16_swish_747f4bbc54d3132@cask6_myelin@@YA?AW4Status@1@AEAVContext@1@@Z
    ?InitializeDynamicShaders_cutlass3x_common_cutlass3x_sm120_bstensorop_s16864gemm_ue4m3xe2m1_ue4m3xe2m1_f32_f16_f16_bias_f16_swish_f806b3e4759aff5a@cask6_myelin@@YA?AW4Status@1@AEAVContext@1@@Z
    ?InitializeDynamicShaders_cutlass3x_common_cutlass3x_sm120_bstensorop_s16864gemm_ue4m3xe2m1_ue4m3xe2m1_f32_f16_ue4m3xe2m1_bias_f16_gelu_epiVs16_2e22ab06c93d5162@cask6_myelin@@YA?AW4Status@1@AEAVContext@1@@Z
    ?InitializeDynamicShaders_cutlass3x_common_cutlass3x_sm120_bstensorop_s16864gemm_ue4m3xe2m1_ue4m3xe2m1_f32_f16_ue4m3xe2m1_bias_f16_gelu_epiVs16_70fff4c4ebd67200@cask6_myelin@@YA?AW4Status@1@AEAVContext@1@@Z
    ?InitializeDynamicShaders_cutlass3x_common_cutlass3x_sm120_bstensorop_s16864gemm_ue4m3xe2m1_ue4m3xe2m1_f32_f16_ue4m3xe2m1_bias_f16_gelu_epiVs16_8b5fcb78df3dba1f@cask6_myelin@@YA?AW4Status@1@AEAVContext@1@@Z
    ?InitializeDynamicShaders_cutlass3x_common_cutlass3x_sm120_bstensorop_s16864gemm_ue4m3xe2m1_ue4m3xe2m1_f32_f16_ue4m3xe2m1_bias_f16_relu_epiVs16_354749b6451ceba9@cask6_myelin@@YA?AW4Status@1@AEAVContext@1@@Z
    ?InitializeDynamicShaders_cutlass3x_common_cutlass3x_sm120_bstensorop_s16864gemm_ue4m3xe2m1_ue4m3xe2m1_f32_f16_ue4m3xe2m1_bias_f16_relu_epiVs16_695340e183ef9284@cask6_myelin@@YA?AW4Status@1@AEAVContext@1@@Z
    ?InitializeDynamicShaders_cutlass3x_common_cutlass3x_sm120_bstensorop_s16864gemm_ue4m3xe2m1_ue4m3xe2m1_f32_f16_ue4m3xe2m1_bias_f16_relu_epiVs16_e445ed9ecb04247f@cask6_myelin@@YA?AW4Status@1@AEAVContext@1@@Z
    ?InitializeDynamicShaders_cutlass3x_common_cutlass3x_sm120_bstensorop_s16864gemm_ue4m3xe2m1_ue4m3xe2m1_f32_f16_ue4m3xe2m1_bias_f16_swish_epiVs16_1afe59631760b188@cask6_myelin@@YA?AW4Status@1@AEAVContext@1@@Z
    ?InitializeDynamicShaders_cutlass3x_common_cutlass3x_sm120_bstensorop_s16864gemm_ue4m3xe2m1_ue4m3xe2m1_f32_f16_ue4m3xe2m1_bias_f16_swish_epiVs16_26a534b47b4853b9@cask6_myelin@@YA?AW4Status@1@AEAVContext@1@@Z
    ?InitializeDynamicShaders_cutlass3x_common_cutlass3x_sm120_bstensorop_s16864gemm_ue4m3xe2m1_ue4m3xe2m1_f32_f16_ue4m3xe2m1_bias_f16_swish_epiVs16_d36ce988797927de@cask6_myelin@@YA?AW4Status@1@AEAVContext@1@@Z
    ?InitializeDynamicShaders_cutlass3x_common_cutlass3x_sm120_bstensorop_s16864gemm_ue4m3xe2m1_ue4m3xe2m1_f32_f32_f32_bias_bf16_gelu_1ec738b6e0f437c3@cask6_myelin@@YA?AW4Status@1@AEAVContext@1@@Z
    ?InitializeDynamicShaders_cutlass3x_common_cutlass3x_sm120_bstensorop_s16864gemm_ue4m3xe2m1_ue4m3xe2m1_f32_f32_f32_bias_bf16_gelu_2a6430e8168650fb@cask6_myelin@@YA?AW4Status@1@AEAVContext@1@@Z
    ?InitializeDynamicShaders_cutlass3x_common_cutlass3x_sm120_bstensorop_s16864gemm_ue4m3xe2m1_ue4m3xe2m1_f32_f32_f32_bias_bf16_gelu_2b36efc0aaa78372@cask6_myelin@@YA?AW4Status@1@AEAVContext@1@@Z
    ?InitializeDynamicShaders_cutlass3x_common_cutlass3x_sm120_bstensorop_s16864gemm_ue4m3xe2m1_ue4m3xe2m1_f32_f32_f32_bias_bf16_relu_28b9dd269bd74924@cask6_myelin@@YA?AW4Status@1@AEAVContext@1@@Z
    ?InitializeDynamicShaders_cutlass3x_common_cutlass3x_sm120_bstensorop_s16864gemm_ue4m3xe2m1_ue4m3xe2m1_f32_f32_f32_bias_bf16_relu_bd054379b48f687@cask6_myelin@@YA?AW4Status@1@AEAVContext@1@@Z
    ?InitializeDynamicShaders_cutlass3x_common_cutlass3x_sm120_bstensorop_s16864gemm_ue4m3xe2m1_ue4m3xe2m1_f32_f32_f32_bias_bf16_relu_ffab830e00bf805b@cask6_myelin@@YA?AW4Status@1@AEAVContext@1@@Z
    ?InitializeDynamicShaders_cutlass3x_common_cutlass3x_sm120_bstensorop_s16864gemm_ue4m3xe2m1_ue4m3xe2m1_f32_f32_f32_bias_bf16_swish_1d21940e277c8532@cask6_myelin@@YA?AW4Status@1@AEAVContext@1@@Z
    ?InitializeDynamicShaders_cutlass3x_common_cutlass3x_sm120_bstensorop_s16864gemm_ue4m3xe2m1_ue4m3xe2m1_f32_f32_f32_bias_bf16_swish_3a0328e2f5b5dbe1@cask6_myelin@@YA?AW4Status@1@AEAVContext@1@@Z
    ?InitializeDynamicShaders_cutlass3x_common_cutlass3x_sm120_bstensorop_s16864gemm_ue4m3xe2m1_ue4m3xe2m1_f32_f32_f32_bias_bf16_swish_4be7217472bdc9fe@cask6_myelin@@YA?AW4Status@1@AEAVContext@1@@Z
    ?InitializeDynamicShaders_cutlass3x_common_cutlass3x_sm120_sptensorop_s16864gemm_e4m3_e4m3_f32_bf16_bf16_bias_bf16_relu_valpha_vbeta_41ee70ad2fa79989@cask6_myelin@@YA?AW4Status@1@AEAVContext@1@@Z
    ?InitializeDynamicShaders_cutlass3x_common_cutlass3x_sm120_sptensorop_s16864gemm_e4m3_e4m3_f32_bf16_bf16_bias_bf16_relu_valpha_vbeta_487b1818fd8d7950@cask6_myelin@@YA?AW4Status@1@AEAVContext@1@@Z
    ?InitializeDynamicShaders_cutlass3x_common_cutlass3x_sm120_sptensorop_s16864gemm_e4m3_e4m3_f32_bf16_bf16_bias_bf16_relu_valpha_vbeta_4aa5c83817b971d7@cask6_myelin@@YA?AW4Status@1@AEAVContext@1@@Z
    ?InitializeDynamicShaders_cutlass3x_common_cutlass3x_sm120_sptensorop_s16864gemm_e4m3_e4m3_f32_bf16_bf16_bias_bf16_relu_valpha_vbeta_add053736b7c8e9c@cask6_myelin@@YA?AW4Status@1@AEAVContext@1@@Z
    ?InitializeDynamicShaders_cutlass3x_common_cutlass3x_sm120_sptensorop_s16864gemm_e4m3_e4m3_f32_e4m3_e4m3_bias_f32_gelu_erf_valpha_vbeta_4f6ae2c865535d2b@cask6_myelin@@YA?AW4Status@1@AEAVContext@1@@Z
    ?InitializeDynamicShaders_cutlass3x_common_cutlass3x_sm120_sptensorop_s16864gemm_e4m3_e4m3_f32_e4m3_e4m3_bias_f32_gelu_erf_valpha_vbeta_60c9f6d0b051ff6b@cask6_myelin@@YA?AW4Status@1@AEAVContext@1@@Z
    ?InitializeDynamicShaders_cutlass3x_common_cutlass3x_sm120_sptensorop_s16864gemm_e4m3_e4m3_f32_e4m3_e4m3_bias_f32_gelu_erf_valpha_vbeta_7355d10b8e03af68@cask6_myelin@@YA?AW4Status@1@AEAVContext@1@@Z
    ?InitializeDynamicShaders_cutlass3x_common_cutlass3x_sm120_sptensorop_s16864gemm_e4m3_e4m3_f32_e4m3_e4m3_bias_f32_gelu_erf_valpha_vbeta_d7a35d7366085f29@cask6_myelin@@YA?AW4Status@1@AEAVContext@1@@Z
    ?InitializeDynamicShaders_cutlass3x_common_cutlass3x_sm120_sptensorop_s16864gemm_e4m3_e4m3_f32_e4m3_e4m3_bias_f32_gelu_valpha_vbeta_2f575ef9af7900c3@cask6_myelin@@YA?AW4Status@1@AEAVContext@1@@Z
    ?InitializeDynamicShaders_cutlass3x_common_cutlass3x_sm120_sptensorop_s16864gemm_e4m3_e4m3_f32_e4m3_e4m3_bias_f32_gelu_valpha_vbeta_37fc23edf3021af9@cask6_myelin@@YA?AW4Status@1@AEAVContext@1@@Z
    ?InitializeDynamicShaders_cutlass3x_common_cutlass3x_sm120_sptensorop_s16864gemm_e4m3_e4m3_f32_e4m3_e4m3_bias_f32_gelu_valpha_vbeta_8444e5dd9b8aceb7@cask6_myelin@@YA?AW4Status@1@AEAVContext@1@@Z
    ?InitializeDynamicShaders_cutlass3x_common_cutlass3x_sm120_sptensorop_s16864gemm_e4m3_e4m3_f32_e4m3_e4m3_bias_f32_gelu_valpha_vbeta_a3c261ecee4a1af6@cask6_myelin@@YA?AW4Status@1@AEAVContext@1@@Z
    ?InitializeDynamicShaders_cutlass3x_common_cutlass3x_sm120_sptensorop_s16864gemm_e4m3_e4m3_f32_e4m3_e4m3_bias_f32_relu_valpha_vbeta_2a30e52692d25b9a@cask6_myelin@@YA?AW4Status@1@AEAVContext@1@@Z
    ?InitializeDynamicShaders_cutlass3x_common_cutlass3x_sm120_sptensorop_s16864gemm_e4m3_e4m3_f32_e4m3_e4m3_bias_f32_relu_valpha_vbeta_86c529cbfe9f2bb0@cask6_myelin@@YA?AW4Status@1@AEAVContext@1@@Z
    ?InitializeDynamicShaders_cutlass3x_common_cutlass3x_sm120_sptensorop_s16864gemm_e4m3_e4m3_f32_e4m3_e4m3_bias_f32_relu_valpha_vbeta_9ff07eab6a2a64b7@cask6_myelin@@YA?AW4Status@1@AEAVContext@1@@Z
    ?InitializeDynamicShaders_cutlass3x_common_cutlass3x_sm120_sptensorop_s16864gemm_e4m3_e4m3_f32_e4m3_e4m3_bias_f32_relu_valpha_vbeta_e905adaa69c00288@cask6_myelin@@YA?AW4Status@1@AEAVContext@1@@Z
    ?InitializeDynamicShaders_cutlass3x_common_cutlass3x_sm120_sptensorop_s16864gemm_e4m3_e4m3_f32_f16_f16_bias_f16_relu_valpha_vbeta_19f842e58fe49e24@cask6_myelin@@YA?AW4Status@1@AEAVContext@1@@Z
    ?InitializeDynamicShaders_cutlass3x_common_cutlass3x_sm120_sptensorop_s16864gemm_e4m3_e4m3_f32_f16_f16_bias_f16_relu_valpha_vbeta_3a779dbc3a7e4daf@cask6_myelin@@YA?AW4Status@1@AEAVContext@1@@Z
    ?InitializeDynamicShaders_cutlass3x_common_cutlass3x_sm120_sptensorop_s16864gemm_e4m3_e4m3_f32_f16_f16_bias_f16_relu_valpha_vbeta_4ed9f0574da4f485@cask6_myelin@@YA?AW4Status@1@AEAVContext@1@@Z
    ?InitializeDynamicShaders_cutlass3x_common_cutlass3x_sm120_sptensorop_s16864gemm_e4m3_e4m3_f32_f16_f16_bias_f16_relu_valpha_vbeta_b2599910167d133@cask6_myelin@@YA?AW4Status@1@AEAVContext@1@@Z
    ?InitializeDynamicShaders_cutlass3x_common_cutlass3x_sm120_sptensorop_s16864gemm_e4m3_e4m3_f32_f32_f32_bias_f32_relu_valpha_vbeta_70896c8affbaaf2d@cask6_myelin@@YA?AW4Status@1@AEAVContext@1@@Z
    ?InitializeDynamicShaders_cutlass3x_common_cutlass3x_sm120_sptensorop_s16864gemm_e4m3_e4m3_f32_f32_f32_bias_f32_relu_valpha_vbeta_8c06124e3ee6e7d1@cask6_myelin@@YA?AW4Status@1@AEAVContext@1@@Z
    ?InitializeDynamicShaders_cutlass3x_common_cutlass3x_sm120_sptensorop_s16864gemm_e4m3_e4m3_f32_f32_f32_bias_f32_relu_valpha_vbeta_a3ca556bd9a5d7b8@cask6_myelin@@YA?AW4Status@1@AEAVContext@1@@Z
    ?InitializeDynamicShaders_cutlass3x_common_cutlass3x_sm120_sptensorop_s16864gemm_e4m3_e4m3_f32_f32_f32_bias_f32_relu_valpha_vbeta_c7c456cf6a70ece0@cask6_myelin@@YA?AW4Status@1@AEAVContext@1@@Z
    ?InitializeDynamicShaders_cutlass3x_common_cutlass3x_strided_deconv_sm100_tensorop_128x128x16_bf16_bf16_f32_bf16_bf16_26a4e500f23f0d32@cask6_myelin@@YA?AW4Status@1@AEAVContext@1@@Z
    ?InitializeDynamicShaders_cutlass3x_common_cutlass3x_strided_deconv_sm100_tensorop_128x128x16_bf16_bf16_f32_bf16_bf16_83b1fbcc36dad81b@cask6_myelin@@YA?AW4Status@1@AEAVContext@1@@Z
    ?InitializeDynamicShaders_cutlass3x_common_cutlass3x_strided_deconv_sm100_tensorop_128x128x16_bf16_bf16_f32_bf16_bf16_a368fc3a82fc4101@cask6_myelin@@YA?AW4Status@1@AEAVContext@1@@Z
    ?InitializeDynamicShaders_cutlass3x_common_cutlass3x_strided_deconv_sm100_tensorop_128x128x16_bf16_bf16_f32_bf16_bf16_e05b0daf36afb4b3@cask6_myelin@@YA?AW4Status@1@AEAVContext@1@@Z
    ?InitializeDynamicShaders_cutlass3x_common_cutlass3x_strided_deconv_sm100_tensorop_128x128x16_bf16_bf16_f32_bf16_bf16_ed2394f7b82e1356@cask6_myelin@@YA?AW4Status@1@AEAVContext@1@@Z
    ?InitializeDynamicShaders_cutlass3x_common_cutlass3x_strided_deconv_sm100_tensorop_128x128x16_bf16_bf16_f32_bf16_bf16_f21b1b7dca6e5f47@cask6_myelin@@YA?AW4Status@1@AEAVContext@1@@Z
    ?InitializeDynamicShaders_cutlass3x_common_cutlass3x_strided_deconv_sm100_tensorop_128x128x16_f16_f16_f16_f16_f16_98d5dd9bccc0c2eb@cask6_myelin@@YA?AW4Status@1@AEAVContext@1@@Z
    ?InitializeDynamicShaders_cutlass3x_common_cutlass3x_strided_deconv_sm100_tensorop_128x128x16_f16_f16_f16_f16_f16_a8245f0ef3f88e7b@cask6_myelin@@YA?AW4Status@1@AEAVContext@1@@Z
    ?InitializeDynamicShaders_cutlass3x_common_cutlass3x_strided_deconv_sm100_tensorop_128x128x16_f16_f16_f16_f16_f16_acc746225bdbe4e6@cask6_myelin@@YA?AW4Status@1@AEAVContext@1@@Z
    ?InitializeDynamicShaders_cutlass3x_common_cutlass3x_strided_deconv_sm100_tensorop_128x128x16_f16_f16_f16_f16_f16_b21604bf6f444f21@cask6_myelin@@YA?AW4Status@1@AEAVContext@1@@Z
    ?InitializeDynamicShaders_cutlass3x_common_cutlass3x_strided_deconv_sm100_tensorop_128x128x16_f16_f16_f16_f16_f16_d9af28ae29660a9e@cask6_myelin@@YA?AW4Status@1@AEAVContext@1@@Z
    ?InitializeDynamicShaders_cutlass3x_common_cutlass3x_strided_deconv_sm100_tensorop_128x128x16_f16_f16_f16_f16_f16_f8ec19fae62df076@cask6_myelin@@YA?AW4Status@1@AEAVContext@1@@Z
    ?InitializeDynamicShaders_cutlass3x_common_cutlass3x_strided_deconv_sm100_tensorop_128x128x16_f16_f16_f32_f16_f16_27fa8770680fecec@cask6_myelin@@YA?AW4Status@1@AEAVContext@1@@Z
    ?InitializeDynamicShaders_cutlass3x_common_cutlass3x_strided_deconv_sm100_tensorop_128x128x16_f16_f16_f32_f16_f16_564e25c337b76e6a@cask6_myelin@@YA?AW4Status@1@AEAVContext@1@@Z
    ?InitializeDynamicShaders_cutlass3x_common_cutlass3x_strided_deconv_sm100_tensorop_128x128x16_f16_f16_f32_f16_f16_5d30ea7b1de20299@cask6_myelin@@YA?AW4Status@1@AEAVContext@1@@Z
    ?InitializeDynamicShaders_cutlass3x_common_cutlass3x_strided_deconv_sm100_tensorop_128x128x16_f16_f16_f32_f16_f16_78715cd97090e144@cask6_myelin@@YA?AW4Status@1@AEAVContext@1@@Z
    ?InitializeDynamicShaders_cutlass3x_common_cutlass3x_strided_deconv_sm100_tensorop_128x128x16_f16_f16_f32_f16_f16_bb4536f1a6c11829@cask6_myelin@@YA?AW4Status@1@AEAVContext@1@@Z
    ?InitializeDynamicShaders_cutlass3x_common_cutlass3x_strided_deconv_sm100_tensorop_128x128x16_f16_f16_f32_f16_f16_d4caee17a4f3c6f1@cask6_myelin@@YA?AW4Status@1@AEAVContext@1@@Z
    ?InitializeDynamicShaders_cutlass3x_common_cutlass3x_strided_deconv_sm100_tensorop_128x128x32_s8_s8_s32_f16_f16_1d05ea75f29db6dc@cask6_myelin@@YA?AW4Status@1@AEAVContext@1@@Z
    ?InitializeDynamicShaders_cutlass3x_common_cutlass3x_strided_deconv_sm100_tensorop_128x128x32_s8_s8_s32_f16_f16_2cc3a86d98e09067@cask6_myelin@@YA?AW4Status@1@AEAVContext@1@@Z
    ?InitializeDynamicShaders_cutlass3x_common_cutlass3x_strided_deconv_sm100_tensorop_128x128x32_s8_s8_s32_f16_f16_84a222e427523e96@cask6_myelin@@YA?AW4Status@1@AEAVContext@1@@Z
    ?InitializeDynamicShaders_cutlass3x_common_cutlass3x_strided_deconv_sm100_tensorop_128x128x32_s8_s8_s32_f16_f16_8dbca921f6069f8a@cask6_myelin@@YA?AW4Status@1@AEAVContext@1@@Z
    ?InitializeDynamicShaders_cutlass3x_common_cutlass3x_strided_deconv_sm100_tensorop_128x128x32_s8_s8_s32_f16_f16_d6a7fb6be5956640@cask6_myelin@@YA?AW4Status@1@AEAVContext@1@@Z
    ?InitializeDynamicShaders_cutlass3x_common_cutlass3x_strided_deconv_sm100_tensorop_128x128x32_s8_s8_s32_f16_f16_fc61aff667e18f81@cask6_myelin@@YA?AW4Status@1@AEAVContext@1@@Z
    ?InitializeDynamicShaders_cutlass3x_common_cutlass3x_strided_deconv_sm100_tensorop_128x128x32_s8_s8_s32_f32_f32_2f697616cb69fdab@cask6_myelin@@YA?AW4Status@1@AEAVContext@1@@Z
    ?InitializeDynamicShaders_cutlass3x_common_cutlass3x_strided_deconv_sm100_tensorop_128x128x32_s8_s8_s32_f32_f32_651ada711787f1eb@cask6_myelin@@YA?AW4Status@1@AEAVContext@1@@Z
    ?InitializeDynamicShaders_cutlass3x_common_cutlass3x_strided_deconv_sm100_tensorop_128x128x32_s8_s8_s32_f32_f32_84bbc6e3293ee1ff@cask6_myelin@@YA?AW4Status@1@AEAVContext@1@@Z
    ?InitializeDynamicShaders_cutlass3x_common_cutlass3x_strided_deconv_sm100_tensorop_128x128x32_s8_s8_s32_f32_f32_b67669850e0f0d00@cask6_myelin@@YA?AW4Status@1@AEAVContext@1@@Z
    ?InitializeDynamicShaders_cutlass3x_common_cutlass3x_strided_deconv_sm100_tensorop_128x128x32_s8_s8_s32_f32_f32_e938c834bdf20c65@cask6_myelin@@YA?AW4Status@1@AEAVContext@1@@Z
    ?InitializeDynamicShaders_cutlass3x_common_cutlass3x_strided_deconv_sm100_tensorop_128x128x32_s8_s8_s32_f32_f32_ea6e2d8443414dcd@cask6_myelin@@YA?AW4Status@1@AEAVContext@1@@Z
    ?InitializeDynamicShaders_cutlass3x_common_cutlass3x_strided_deconv_sm100_tensorop_128x128x32_s8_s8_s32_s8_s8_5421b65a87d2f231@cask6_myelin@@YA?AW4Status@1@AEAVContext@1@@Z
    ?InitializeDynamicShaders_cutlass3x_common_cutlass3x_strided_deconv_sm100_tensorop_128x128x32_s8_s8_s32_s8_s8_5b149668bf8ff51b@cask6_myelin@@YA?AW4Status@1@AEAVContext@1@@Z
    ?InitializeDynamicShaders_cutlass3x_common_cutlass3x_strided_deconv_sm100_tensorop_128x128x32_s8_s8_s32_s8_s8_61dd7bd2f1838ea6@cask6_myelin@@YA?AW4Status@1@AEAVContext@1@@Z
    ?InitializeDynamicShaders_cutlass3x_common_cutlass3x_strided_deconv_sm100_tensorop_128x128x32_s8_s8_s32_s8_s8_9820ab000dbbd84d@cask6_myelin@@YA?AW4Status@1@AEAVContext@1@@Z
    ?InitializeDynamicShaders_cutlass3x_common_cutlass3x_strided_deconv_sm100_tensorop_128x128x32_s8_s8_s32_s8_s8_d33424eb2ad9dfb2@cask6_myelin@@YA?AW4Status@1@AEAVContext@1@@Z
    ?InitializeDynamicShaders_cutlass3x_common_cutlass3x_strided_deconv_sm100_tensorop_128x128x32_s8_s8_s32_s8_s8_f918a7d195aeda14@cask6_myelin@@YA?AW4Status@1@AEAVContext@1@@Z
    ?InitializeDynamicShaders_cutlass3x_common_cutlass3x_strided_deconv_sm100_tensorop_128x128x8_f32_f32_f32_f32_f32_2c5fc60d0e44e98f@cask6_myelin@@YA?AW4Status@1@AEAVContext@1@@Z
    ?InitializeDynamicShaders_cutlass3x_common_cutlass3x_strided_deconv_sm100_tensorop_128x128x8_f32_f32_f32_f32_f32_70b7f97ffbea338e@cask6_myelin@@YA?AW4Status@1@AEAVContext@1@@Z
    ?InitializeDynamicShaders_cutlass3x_common_cutlass3x_strided_deconv_sm100_tensorop_128x128x8_f32_f32_f32_f32_f32_8bdea7970f2567d6@cask6_myelin@@YA?AW4Status@1@AEAVContext@1@@Z
    ?InitializeDynamicShaders_cutlass3x_common_cutlass3x_strided_deconv_sm100_tensorop_128x128x8_f32_f32_f32_f32_f32_ca7fe41de1a90113@cask6_myelin@@YA?AW4Status@1@AEAVContext@1@@Z
    ?InitializeDynamicShaders_cutlass3x_common_cutlass3x_strided_deconv_sm100_tensorop_128x128x8_f32_f32_f32_f32_f32_e176384b04c12fe7@cask6_myelin@@YA?AW4Status@1@AEAVContext@1@@Z
    ?InitializeDynamicShaders_cutlass3x_common_cutlass3x_strided_deconv_sm100_tensorop_128x128x8_f32_f32_f32_f32_f32_f22e2feb4d63b92a@cask6_myelin@@YA?AW4Status@1@AEAVContext@1@@Z
    ?InitializeDynamicShaders_cutlass3x_common_cutlass3x_strided_deconv_sm100_tensorop_128x256x16_bf16_bf16_f32_bf16_bf16_2c84e0d5756b7633@cask6_myelin@@YA?AW4Status@1@AEAVContext@1@@Z
    ?InitializeDynamicShaders_cutlass3x_common_cutlass3x_strided_deconv_sm100_tensorop_128x256x16_bf16_bf16_f32_bf16_bf16_5d4559ef5779152a@cask6_myelin@@YA?AW4Status@1@AEAVContext@1@@Z
    ?InitializeDynamicShaders_cutlass3x_common_cutlass3x_strided_deconv_sm100_tensorop_128x256x16_bf16_bf16_f32_bf16_bf16_74aed6cad17e18ad@cask6_myelin@@YA?AW4Status@1@AEAVContext@1@@Z
    ?InitializeDynamicShaders_cutlass3x_common_cutlass3x_strided_deconv_sm100_tensorop_128x256x16_bf16_bf16_f32_bf16_bf16_77a1721aa06526e8@cask6_myelin@@YA?AW4Status@1@AEAVContext@1@@Z
    ?InitializeDynamicShaders_cutlass3x_common_cutlass3x_strided_deconv_sm100_tensorop_128x256x16_bf16_bf16_f32_bf16_bf16_77bcd8f2d5b81b81@cask6_myelin@@YA?AW4Status@1@AEAVContext@1@@Z
    ?InitializeDynamicShaders_cutlass3x_common_cutlass3x_strided_deconv_sm100_tensorop_128x256x16_bf16_bf16_f32_bf16_bf16_e3277bc078434eff@cask6_myelin@@YA?AW4Status@1@AEAVContext@1@@Z
    ?InitializeDynamicShaders_cutlass3x_common_cutlass3x_strided_deconv_sm100_tensorop_128x256x16_f16_f16_f16_f16_f16_206ebb9147e17370@cask6_myelin@@YA?AW4Status@1@AEAVContext@1@@Z
    ?InitializeDynamicShaders_cutlass3x_common_cutlass3x_strided_deconv_sm100_tensorop_128x256x16_f16_f16_f16_f16_f16_5969b92e9defa45a@cask6_myelin@@YA?AW4Status@1@AEAVContext@1@@Z
    ?InitializeDynamicShaders_cutlass3x_common_cutlass3x_strided_deconv_sm100_tensorop_128x256x16_f16_f16_f16_f16_f16_8d081753abe5e4f5@cask6_myelin@@YA?AW4Status@1@AEAVContext@1@@Z
    ?InitializeDynamicShaders_cutlass3x_common_cutlass3x_strided_deconv_sm100_tensorop_128x256x16_f16_f16_f16_f16_f16_afa7f4cdba3be595@cask6_myelin@@YA?AW4Status@1@AEAVContext@1@@Z
    ?InitializeDynamicShaders_cutlass3x_common_cutlass3x_strided_deconv_sm100_tensorop_128x256x16_f16_f16_f16_f16_f16_c2cf63d03a74e28d@cask6_myelin@@YA?AW4Status@1@AEAVContext@1@@Z
    ?InitializeDynamicShaders_cutlass3x_common_cutlass3x_strided_deconv_sm100_tensorop_128x256x16_f16_f16_f16_f16_f16_f0cbccfb82a5c74e@cask6_myelin@@YA?AW4Status@1@AEAVContext@1@@Z
    ?InitializeDynamicShaders_cutlass3x_common_cutlass3x_strided_deconv_sm100_tensorop_128x256x16_f16_f16_f32_f16_f16_8e6811713ff4fd02@cask6_myelin@@YA?AW4Status@1@AEAVContext@1@@Z
    ?InitializeDynamicShaders_cutlass3x_common_cutlass3x_strided_deconv_sm100_tensorop_128x256x16_f16_f16_f32_f16_f16_a84d346bbfc44d32@cask6_myelin@@YA?AW4Status@1@AEAVContext@1@@Z
    ?InitializeDynamicShaders_cutlass3x_common_cutlass3x_strided_deconv_sm100_tensorop_128x256x16_f16_f16_f32_f16_f16_c38f485968a061f@cask6_myelin@@YA?AW4Status@1@AEAVContext@1@@Z
    ?InitializeDynamicShaders_cutlass3x_common_cutlass3x_strided_deconv_sm100_tensorop_128x256x16_f16_f16_f32_f16_f16_f4b5f6cc397e7f11@cask6_myelin@@YA?AW4Status@1@AEAVContext@1@@Z
    ?InitializeDynamicShaders_cutlass3x_common_cutlass3x_strided_deconv_sm100_tensorop_128x256x16_f16_f16_f32_f16_f16_f80f66eec5d4a953@cask6_myelin@@YA?AW4Status@1@AEAVContext@1@@Z
    ?InitializeDynamicShaders_cutlass3x_common_cutlass3x_strided_deconv_sm100_tensorop_128x256x16_f16_f16_f32_f16_f16_fd69d152c27fa727@cask6_myelin@@YA?AW4Status@1@AEAVContext@1@@Z
    ?InitializeDynamicShaders_cutlass3x_common_cutlass3x_strided_deconv_sm100_tensorop_128x256x32_s8_s8_s32_f16_f16_5d0f79851de070ea@cask6_myelin@@YA?AW4Status@1@AEAVContext@1@@Z
    ?InitializeDynamicShaders_cutlass3x_common_cutlass3x_strided_deconv_sm100_tensorop_128x256x32_s8_s8_s32_f16_f16_67b7ceb912f979e0@cask6_myelin@@YA?AW4Status@1@AEAVContext@1@@Z
    ?InitializeDynamicShaders_cutlass3x_common_cutlass3x_strided_deconv_sm100_tensorop_128x256x32_s8_s8_s32_f16_f16_67dabd77a278bce8@cask6_myelin@@YA?AW4Status@1@AEAVContext@1@@Z
    ?InitializeDynamicShaders_cutlass3x_common_cutlass3x_strided_deconv_sm100_tensorop_128x256x32_s8_s8_s32_f16_f16_c798b3f1d4f11bbd@cask6_myelin@@YA?AW4Status@1@AEAVContext@1@@Z
    ?InitializeDynamicShaders_cutlass3x_common_cutlass3x_strided_deconv_sm100_tensorop_128x256x32_s8_s8_s32_f16_f16_d6764d4a5303bb6@cask6_myelin@@YA?AW4Status@1@AEAVContext@1@@Z
    ?InitializeDynamicShaders_cutlass3x_common_cutlass3x_strided_deconv_sm100_tensorop_128x256x32_s8_s8_s32_f16_f16_ec415b7c4fb1841c@cask6_myelin@@YA?AW4Status@1@AEAVContext@1@@Z
    ?InitializeDynamicShaders_cutlass3x_common_cutlass3x_strided_deconv_sm100_tensorop_128x256x32_s8_s8_s32_f32_f32_193b17b5ff38cf02@cask6_myelin@@YA?AW4Status@1@AEAVContext@1@@Z
    ?InitializeDynamicShaders_cutlass3x_common_cutlass3x_strided_deconv_sm100_tensorop_128x256x32_s8_s8_s32_f32_f32_1fa0445495bda3e@cask6_myelin@@YA?AW4Status@1@AEAVContext@1@@Z
    ?InitializeDynamicShaders_cutlass3x_common_cutlass3x_strided_deconv_sm100_tensorop_128x256x32_s8_s8_s32_f32_f32_24731ce308871c6c@cask6_myelin@@YA?AW4Status@1@AEAVContext@1@@Z
    ?InitializeDynamicShaders_cutlass3x_common_cutlass3x_strided_deconv_sm100_tensorop_128x256x32_s8_s8_s32_f32_f32_25360b26ebd37523@cask6_myelin@@YA?AW4Status@1@AEAVContext@1@@Z
    ?InitializeDynamicShaders_cutlass3x_common_cutlass3x_strided_deconv_sm100_tensorop_128x256x32_s8_s8_s32_f32_f32_53d44035813169b8@cask6_myelin@@YA?AW4Status@1@AEAVContext@1@@Z
    ?InitializeDynamicShaders_cutlass3x_common_cutlass3x_strided_deconv_sm100_tensorop_128x256x32_s8_s8_s32_f32_f32_7761bad15d1a600b@cask6_myelin@@YA?AW4Status@1@AEAVContext@1@@Z
    ?InitializeDynamicShaders_cutlass3x_common_cutlass3x_strided_deconv_sm100_tensorop_128x256x32_s8_s8_s32_s8_s8_7af776b2b7570ecd@cask6_myelin@@YA?AW4Status@1@AEAVContext@1@@Z
    ?InitializeDynamicShaders_cutlass3x_common_cutlass3x_strided_deconv_sm100_tensorop_128x256x32_s8_s8_s32_s8_s8_ac9927c32e077a49@cask6_myelin@@YA?AW4Status@1@AEAVContext@1@@Z
    ?InitializeDynamicShaders_cutlass3x_common_cutlass3x_strided_deconv_sm100_tensorop_128x256x32_s8_s8_s32_s8_s8_d904feef32248821@cask6_myelin@@YA?AW4Status@1@AEAVContext@1@@Z
    ?InitializeDynamicShaders_cutlass3x_common_cutlass3x_strided_deconv_sm100_tensorop_128x256x32_s8_s8_s32_s8_s8_d9902578f6904395@cask6_myelin@@YA?AW4Status@1@AEAVContext@1@@Z
    ?InitializeDynamicShaders_cutlass3x_common_cutlass3x_strided_deconv_sm100_tensorop_128x256x32_s8_s8_s32_s8_s8_e3c94c3a29ca7f82@cask6_myelin@@YA?AW4Status@1@AEAVContext@1@@Z
    ?InitializeDynamicShaders_cutlass3x_common_cutlass3x_strided_deconv_sm100_tensorop_128x256x32_s8_s8_s32_s8_s8_eb278b905e7eb039@cask6_myelin@@YA?AW4Status@1@AEAVContext@1@@Z
    ?InitializeDynamicShaders_cutlass3x_common_cutlass3x_strided_deconv_sm100_tensorop_128x256x8_f32_f32_f32_f32_f32_34f626af5e2c41b4@cask6_myelin@@YA?AW4Status@1@AEAVContext@1@@Z
    ?InitializeDynamicShaders_cutlass3x_common_cutlass3x_strided_deconv_sm100_tensorop_128x256x8_f32_f32_f32_f32_f32_35bcbb3fbb6f37e7@cask6_myelin@@YA?AW4Status@1@AEAVContext@1@@Z
    ?InitializeDynamicShaders_cutlass3x_common_cutlass3x_strided_deconv_sm100_tensorop_128x256x8_f32_f32_f32_f32_f32_38ac6845110fd483@cask6_myelin@@YA?AW4Status@1@AEAVContext@1@@Z
    ?InitializeDynamicShaders_cutlass3x_common_cutlass3x_strided_deconv_sm100_tensorop_128x256x8_f32_f32_f32_f32_f32_52e01889933a39d8@cask6_myelin@@YA?AW4Status@1@AEAVContext@1@@Z
    ?InitializeDynamicShaders_cutlass3x_common_cutlass3x_strided_deconv_sm100_tensorop_128x256x8_f32_f32_f32_f32_f32_65ab9bce7b41f262@cask6_myelin@@YA?AW4Status@1@AEAVContext@1@@Z
    ?InitializeDynamicShaders_cutlass3x_common_cutlass3x_strided_deconv_sm100_tensorop_128x256x8_f32_f32_f32_f32_f32_6e08f0214ed995ae@cask6_myelin@@YA?AW4Status@1@AEAVContext@1@@Z
    ?InitializeDynamicShaders_cutlass3x_common_cutlass3x_strided_deconv_sm100_tensorop_128x64x16_bf16_bf16_f32_bf16_bf16_5d6bbc4066bc6fe3@cask6_myelin@@YA?AW4Status@1@AEAVContext@1@@Z
    ?InitializeDynamicShaders_cutlass3x_common_cutlass3x_strided_deconv_sm100_tensorop_128x64x16_bf16_bf16_f32_bf16_bf16_6b79916dcf773f96@cask6_myelin@@YA?AW4Status@1@AEAVContext@1@@Z
    ?InitializeDynamicShaders_cutlass3x_common_cutlass3x_strided_deconv_sm100_tensorop_128x64x16_bf16_bf16_f32_bf16_bf16_7fed9ae17d438981@cask6_myelin@@YA?AW4Status@1@AEAVContext@1@@Z
    ?InitializeDynamicShaders_cutlass3x_common_cutlass3x_strided_deconv_sm100_tensorop_128x64x16_bf16_bf16_f32_bf16_bf16_88652d942e6f3752@cask6_myelin@@YA?AW4Status@1@AEAVContext@1@@Z
    ?InitializeDynamicShaders_cutlass3x_common_cutlass3x_strided_deconv_sm100_tensorop_128x64x16_bf16_bf16_f32_bf16_bf16_995864afd6bab49a@cask6_myelin@@YA?AW4Status@1@AEAVContext@1@@Z
    ?InitializeDynamicShaders_cutlass3x_common_cutlass3x_strided_deconv_sm100_tensorop_128x64x16_bf16_bf16_f32_bf16_bf16_e53ea153ae98372b@cask6_myelin@@YA?AW4Status@1@AEAVContext@1@@Z
    ?InitializeDynamicShaders_cutlass3x_common_cutlass3x_strided_deconv_sm100_tensorop_128x64x16_f16_f16_f16_f16_f16_515845e0eb88165c@cask6_myelin@@YA?AW4Status@1@AEAVContext@1@@Z
    ?InitializeDynamicShaders_cutlass3x_common_cutlass3x_strided_deconv_sm100_tensorop_128x64x16_f16_f16_f16_f16_f16_565638ed69bb9835@cask6_myelin@@YA?AW4Status@1@AEAVContext@1@@Z
    ?InitializeDynamicShaders_cutlass3x_common_cutlass3x_strided_deconv_sm100_tensorop_128x64x16_f16_f16_f16_f16_f16_5a1796129adc6279@cask6_myelin@@YA?AW4Status@1@AEAVContext@1@@Z
    ?InitializeDynamicShaders_cutlass3x_common_cutlass3x_strided_deconv_sm100_tensorop_128x64x16_f16_f16_f16_f16_f16_6152476c7881d4ce@cask6_myelin@@YA?AW4Status@1@AEAVContext@1@@Z
    ?InitializeDynamicShaders_cutlass3x_common_cutlass3x_strided_deconv_sm100_tensorop_128x64x16_f16_f16_f16_f16_f16_7e80a032936a9fbb@cask6_myelin@@YA?AW4Status@1@AEAVContext@1@@Z
    ?InitializeDynamicShaders_cutlass3x_common_cutlass3x_strided_deconv_sm100_tensorop_128x64x16_f16_f16_f16_f16_f16_aa30bd5b730927ca@cask6_myelin@@YA?AW4Status@1@AEAVContext@1@@Z
    ?InitializeDynamicShaders_cutlass3x_common_cutlass3x_strided_deconv_sm100_tensorop_128x64x16_f16_f16_f32_f16_f16_8315eb09009d44f2@cask6_myelin@@YA?AW4Status@1@AEAVContext@1@@Z
    ?InitializeDynamicShaders_cutlass3x_common_cutlass3x_strided_deconv_sm100_tensorop_128x64x16_f16_f16_f32_f16_f16_928fa0414ce4c97f@cask6_myelin@@YA?AW4Status@1@AEAVContext@1@@Z
    ?InitializeDynamicShaders_cutlass3x_common_cutlass3x_strided_deconv_sm100_tensorop_128x64x16_f16_f16_f32_f16_f16_b095e61e9d48a08f@cask6_myelin@@YA?AW4Status@1@AEAVContext@1@@Z
    ?InitializeDynamicShaders_cutlass3x_common_cutlass3x_strided_deconv_sm100_tensorop_128x64x16_f16_f16_f32_f16_f16_e3ed29db47366861@cask6_myelin@@YA?AW4Status@1@AEAVContext@1@@Z
    ?InitializeDynamicShaders_cutlass3x_common_cutlass3x_strided_deconv_sm100_tensorop_128x64x16_f16_f16_f32_f16_f16_ee9823c172971477@cask6_myelin@@YA?AW4Status@1@AEAVContext@1@@Z
    ?InitializeDynamicShaders_cutlass3x_common_cutlass3x_strided_deconv_sm100_tensorop_128x64x16_f16_f16_f32_f16_f16_f16b94e4fee8cfd4@cask6_myelin@@YA?AW4Status@1@AEAVContext@1@@Z
    ?InitializeDynamicShaders_cutlass3x_common_cutlass3x_strided_deconv_sm100_tensorop_256x128x16_bf16_bf16_f32_bf16_bf16_3663799929d00ad@cask6_myelin@@YA?AW4Status@1@AEAVContext@1@@Z
    ?InitializeDynamicShaders_cutlass3x_common_cutlass3x_strided_deconv_sm100_tensorop_256x128x16_bf16_bf16_f32_bf16_bf16_3dc01648e514a645@cask6_myelin@@YA?AW4Status@1@AEAVContext@1@@Z
    ?InitializeDynamicShaders_cutlass3x_common_cutlass3x_strided_deconv_sm100_tensorop_256x128x16_bf16_bf16_f32_bf16_bf16_5d72f0dd7c6a7bed@cask6_myelin@@YA?AW4Status@1@AEAVContext@1@@Z
    ?InitializeDynamicShaders_cutlass3x_common_cutlass3x_strided_deconv_sm100_tensorop_256x128x16_bf16_bf16_f32_bf16_bf16_6216e1e915ded869@cask6_myelin@@YA?AW4Status@1@AEAVContext@1@@Z
    ?InitializeDynamicShaders_cutlass3x_common_cutlass3x_strided_deconv_sm100_tensorop_256x128x16_bf16_bf16_f32_bf16_bf16_920c89b810949636@cask6_myelin@@YA?AW4Status@1@AEAVContext@1@@Z
    ?InitializeDynamicShaders_cutlass3x_common_cutlass3x_strided_deconv_sm100_tensorop_256x128x16_bf16_bf16_f32_bf16_bf16_9c05d1b2c7c1a00b@cask6_myelin@@YA?AW4Status@1@AEAVContext@1@@Z
    ?InitializeDynamicShaders_cutlass3x_common_cutlass3x_strided_deconv_sm100_tensorop_256x128x16_bf16_bf16_f32_bf16_bf16_cbcc3f2cb82c3454@cask6_myelin@@YA?AW4Status@1@AEAVContext@1@@Z
    ?InitializeDynamicShaders_cutlass3x_common_cutlass3x_strided_deconv_sm100_tensorop_256x128x16_f16_f16_f16_f16_f16_1c6e9d5da3e874e7@cask6_myelin@@YA?AW4Status@1@AEAVContext@1@@Z
    ?InitializeDynamicShaders_cutlass3x_common_cutlass3x_strided_deconv_sm100_tensorop_256x128x16_f16_f16_f16_f16_f16_2d90b6d9e1967d23@cask6_myelin@@YA?AW4Status@1@AEAVContext@1@@Z
    ?InitializeDynamicShaders_cutlass3x_common_cutlass3x_strided_deconv_sm100_tensorop_256x128x16_f16_f16_f16_f16_f16_33f16688c2bda8e7@cask6_myelin@@YA?AW4Status@1@AEAVContext@1@@Z
    ?InitializeDynamicShaders_cutlass3x_common_cutlass3x_strided_deconv_sm100_tensorop_256x128x16_f16_f16_f16_f16_f16_48807967b039875f@cask6_myelin@@YA?AW4Status@1@AEAVContext@1@@Z
    ?InitializeDynamicShaders_cutlass3x_common_cutlass3x_strided_deconv_sm100_tensorop_256x128x16_f16_f16_f16_f16_f16_ad66b9d478a8a69f@cask6_myelin@@YA?AW4Status@1@AEAVContext@1@@Z
    ?InitializeDynamicShaders_cutlass3x_common_cutlass3x_strided_deconv_sm100_tensorop_256x128x16_f16_f16_f16_f16_f16_ad6d635230d165c5@cask6_myelin@@YA?AW4Status@1@AEAVContext@1@@Z
    ?InitializeDynamicShaders_cutlass3x_common_cutlass3x_strided_deconv_sm100_tensorop_256x128x16_f16_f16_f16_f16_f16_e70dabe353f1ee0e@cask6_myelin@@YA?AW4Status@1@AEAVContext@1@@Z
    ?InitializeDynamicShaders_cutlass3x_common_cutlass3x_strided_deconv_sm100_tensorop_256x128x16_f16_f16_f32_f16_f16_33fc23ef06042143@cask6_myelin@@YA?AW4Status@1@AEAVContext@1@@Z
    ?InitializeDynamicShaders_cutlass3x_common_cutlass3x_strided_deconv_sm100_tensorop_256x128x16_f16_f16_f32_f16_f16_448b7ea7b93c4070@cask6_myelin@@YA?AW4Status@1@AEAVContext@1@@Z
    ?InitializeDynamicShaders_cutlass3x_common_cutlass3x_strided_deconv_sm100_tensorop_256x128x16_f16_f16_f32_f16_f16_87618c4bfe9db4@cask6_myelin@@YA?AW4Status@1@AEAVContext@1@@Z
    ?InitializeDynamicShaders_cutlass3x_common_cutlass3x_strided_deconv_sm100_tensorop_256x128x16_f16_f16_f32_f16_f16_8ef1c2d770987522@cask6_myelin@@YA?AW4Status@1@AEAVContext@1@@Z
    ?InitializeDynamicShaders_cutlass3x_common_cutlass3x_strided_deconv_sm100_tensorop_256x128x16_f16_f16_f32_f16_f16_a2d7da17dcd8f6db@cask6_myelin@@YA?AW4Status@1@AEAVContext@1@@Z
    ?InitializeDynamicShaders_cutlass3x_common_cutlass3x_strided_deconv_sm100_tensorop_256x128x16_f16_f16_f32_f16_f16_b5e12bb2a8788c81@cask6_myelin@@YA?AW4Status@1@AEAVContext@1@@Z
    ?InitializeDynamicShaders_cutlass3x_common_cutlass3x_strided_deconv_sm100_tensorop_256x128x16_f16_f16_f32_f16_f16_b65fc4510bb42d84@cask6_myelin@@YA?AW4Status@1@AEAVContext@1@@Z
    ?InitializeDynamicShaders_cutlass3x_common_cutlass3x_strided_deconv_sm100_tensorop_256x128x32_s8_s8_s32_f16_f16_5528285c57995e48@cask6_myelin@@YA?AW4Status@1@AEAVContext@1@@Z
    ?InitializeDynamicShaders_cutlass3x_common_cutlass3x_strided_deconv_sm100_tensorop_256x128x32_s8_s8_s32_f16_f16_75ce064472deb60a@cask6_myelin@@YA?AW4Status@1@AEAVContext@1@@Z
    ?InitializeDynamicShaders_cutlass3x_common_cutlass3x_strided_deconv_sm100_tensorop_256x128x32_s8_s8_s32_f16_f16_75de80355a32ccab@cask6_myelin@@YA?AW4Status@1@AEAVContext@1@@Z
    ?InitializeDynamicShaders_cutlass3x_common_cutlass3x_strided_deconv_sm100_tensorop_256x128x32_s8_s8_s32_f16_f16_8401f9c87da9d8cd@cask6_myelin@@YA?AW4Status@1@AEAVContext@1@@Z
    ?InitializeDynamicShaders_cutlass3x_common_cutlass3x_strided_deconv_sm100_tensorop_256x128x32_s8_s8_s32_f16_f16_9d1b8f4b7bec607a@cask6_myelin@@YA?AW4Status@1@AEAVContext@1@@Z
    ?InitializeDynamicShaders_cutlass3x_common_cutlass3x_strided_deconv_sm100_tensorop_256x128x32_s8_s8_s32_f16_f16_f8759cf328879f9e@cask6_myelin@@YA?AW4Status@1@AEAVContext@1@@Z
    ?InitializeDynamicShaders_cutlass3x_common_cutlass3x_strided_deconv_sm100_tensorop_256x128x32_s8_s8_s32_f16_f16_ffac588087c37c72@cask6_myelin@@YA?AW4Status@1@AEAVContext@1@@Z
    ?InitializeDynamicShaders_cutlass3x_common_cutlass3x_strided_deconv_sm100_tensorop_256x128x32_s8_s8_s32_f32_f32_5f765b8d728fee99@cask6_myelin@@YA?AW4Status@1@AEAVContext@1@@Z
    ?InitializeDynamicShaders_cutlass3x_common_cutlass3x_strided_deconv_sm100_tensorop_256x128x32_s8_s8_s32_f32_f32_7f317370e56dc72f@cask6_myelin@@YA?AW4Status@1@AEAVContext@1@@Z
    ?InitializeDynamicShaders_cutlass3x_common_cutlass3x_strided_deconv_sm100_tensorop_256x128x32_s8_s8_s32_f32_f32_8e25987c0af461a5@cask6_myelin@@YA?AW4Status@1@AEAVContext@1@@Z
    ?InitializeDynamicShaders_cutlass3x_common_cutlass3x_strided_deconv_sm100_tensorop_256x128x32_s8_s8_s32_f32_f32_92ed839357c5236e@cask6_myelin@@YA?AW4Status@1@AEAVContext@1@@Z
    ?InitializeDynamicShaders_cutlass3x_common_cutlass3x_strided_deconv_sm100_tensorop_256x128x32_s8_s8_s32_f32_f32_9c2f430e7dccd08b@cask6_myelin@@YA?AW4Status@1@AEAVContext@1@@Z
    ?InitializeDynamicShaders_cutlass3x_common_cutlass3x_strided_deconv_sm100_tensorop_256x128x32_s8_s8_s32_f32_f32_e9c9296dcb0ce7de@cask6_myelin@@YA?AW4Status@1@AEAVContext@1@@Z
    ?InitializeDynamicShaders_cutlass3x_common_cutlass3x_strided_deconv_sm100_tensorop_256x128x32_s8_s8_s32_f32_f32_eb6af3ec315422a9@cask6_myelin@@YA?AW4Status@1@AEAVContext@1@@Z
    ?InitializeDynamicShaders_cutlass3x_common_cutlass3x_strided_deconv_sm100_tensorop_256x128x32_s8_s8_s32_s8_s8_1adc96e4b7e93d2c@cask6_myelin@@YA?AW4Status@1@AEAVContext@1@@Z
    ?InitializeDynamicShaders_cutlass3x_common_cutlass3x_strided_deconv_sm100_tensorop_256x128x32_s8_s8_s32_s8_s8_22d6a0f3dba859be@cask6_myelin@@YA?AW4Status@1@AEAVContext@1@@Z
    ?InitializeDynamicShaders_cutlass3x_common_cutlass3x_strided_deconv_sm100_tensorop_256x128x32_s8_s8_s32_s8_s8_5be58c5e3ebae220@cask6_myelin@@YA?AW4Status@1@AEAVContext@1@@Z
    ?InitializeDynamicShaders_cutlass3x_common_cutlass3x_strided_deconv_sm100_tensorop_256x128x32_s8_s8_s32_s8_s8_8631fd3b137496e0@cask6_myelin@@YA?AW4Status@1@AEAVContext@1@@Z
    ?InitializeDynamicShaders_cutlass3x_common_cutlass3x_strided_deconv_sm100_tensorop_256x128x32_s8_s8_s32_s8_s8_a0bad71aba36a985@cask6_myelin@@YA?AW4Status@1@AEAVContext@1@@Z
    ?InitializeDynamicShaders_cutlass3x_common_cutlass3x_strided_deconv_sm100_tensorop_256x128x32_s8_s8_s32_s8_s8_ccb8a3fbd7e7cdd2@cask6_myelin@@YA?AW4Status@1@AEAVContext@1@@Z
    ?InitializeDynamicShaders_cutlass3x_common_cutlass3x_strided_deconv_sm100_tensorop_256x128x32_s8_s8_s32_s8_s8_e23ea796bde43e28@cask6_myelin@@YA?AW4Status@1@AEAVContext@1@@Z
    ?InitializeDynamicShaders_cutlass3x_common_cutlass3x_strided_deconv_sm100_tensorop_256x128x8_f32_f32_f32_f32_f32_27cfa6329d02cfc@cask6_myelin@@YA?AW4Status@1@AEAVContext@1@@Z
    ?InitializeDynamicShaders_cutlass3x_common_cutlass3x_strided_deconv_sm100_tensorop_256x128x8_f32_f32_f32_f32_f32_51a2dbe387aebfeb@cask6_myelin@@YA?AW4Status@1@AEAVContext@1@@Z
    ?InitializeDynamicShaders_cutlass3x_common_cutlass3x_strided_deconv_sm100_tensorop_256x128x8_f32_f32_f32_f32_f32_7c6d7ed3b7ccc6c@cask6_myelin@@YA?AW4Status@1@AEAVContext@1@@Z
    ?InitializeDynamicShaders_cutlass3x_common_cutlass3x_strided_deconv_sm100_tensorop_256x128x8_f32_f32_f32_f32_f32_ab37f20ab0a5a5ac@cask6_myelin@@YA?AW4Status@1@AEAVContext@1@@Z
    ?InitializeDynamicShaders_cutlass3x_common_cutlass3x_strided_deconv_sm100_tensorop_256x128x8_f32_f32_f32_f32_f32_f31b9b6a585e6553@cask6_myelin@@YA?AW4Status@1@AEAVContext@1@@Z
    ?InitializeDynamicShaders_cutlass3x_common_cutlass3x_strided_deconv_sm100_tensorop_256x128x8_f32_f32_f32_f32_f32_fb41c67b5a4bff5a@cask6_myelin@@YA?AW4Status@1@AEAVContext@1@@Z
    ?InitializeDynamicShaders_cutlass3x_common_cutlass3x_strided_deconv_sm100_tensorop_256x128x8_f32_f32_f32_f32_f32_fc980435e35e6f2a@cask6_myelin@@YA?AW4Status@1@AEAVContext@1@@Z
    ?InitializeDynamicShaders_cutlass3x_common_cutlass3x_strided_deconv_sm100_tensorop_256x256x16_bf16_bf16_f32_bf16_bf16_6394f317e763c4d3@cask6_myelin@@YA?AW4Status@1@AEAVContext@1@@Z
    ?InitializeDynamicShaders_cutlass3x_common_cutlass3x_strided_deconv_sm100_tensorop_256x256x16_bf16_bf16_f32_bf16_bf16_7d24eac6567b84a3@cask6_myelin@@YA?AW4Status@1@AEAVContext@1@@Z
    ?InitializeDynamicShaders_cutlass3x_common_cutlass3x_strided_deconv_sm100_tensorop_256x256x16_bf16_bf16_f32_bf16_bf16_a0c1feebb7958451@cask6_myelin@@YA?AW4Status@1@AEAVContext@1@@Z
    ?InitializeDynamicShaders_cutlass3x_common_cutlass3x_strided_deconv_sm100_tensorop_256x256x16_bf16_bf16_f32_bf16_bf16_ac6d8086bb5e6c0f@cask6_myelin@@YA?AW4Status@1@AEAVContext@1@@Z
    ?InitializeDynamicShaders_cutlass3x_common_cutlass3x_strided_deconv_sm100_tensorop_256x256x16_bf16_bf16_f32_bf16_bf16_aff369452a97d28d@cask6_myelin@@YA?AW4Status@1@AEAVContext@1@@Z
    ?InitializeDynamicShaders_cutlass3x_common_cutlass3x_strided_deconv_sm100_tensorop_256x256x16_bf16_bf16_f32_bf16_bf16_be430305ea21b731@cask6_myelin@@YA?AW4Status@1@AEAVContext@1@@Z
    ?InitializeDynamicShaders_cutlass3x_common_cutlass3x_strided_deconv_sm100_tensorop_256x256x16_bf16_bf16_f32_bf16_bf16_e18c0d8ae930e5@cask6_myelin@@YA?AW4Status@1@AEAVContext@1@@Z
    ?InitializeDynamicShaders_cutlass3x_common_cutlass3x_strided_deconv_sm100_tensorop_256x256x16_f16_f16_f16_f16_f16_44722d29850adb75@cask6_myelin@@YA?AW4Status@1@AEAVContext@1@@Z
    ?InitializeDynamicShaders_cutlass3x_common_cutlass3x_strided_deconv_sm100_tensorop_256x256x16_f16_f16_f16_f16_f16_802feffc7e7afc12@cask6_myelin@@YA?AW4Status@1@AEAVContext@1@@Z
    ?InitializeDynamicShaders_cutlass3x_common_cutlass3x_strided_deconv_sm100_tensorop_256x256x16_f16_f16_f16_f16_f16_832296756d7be4c5@cask6_myelin@@YA?AW4Status@1@AEAVContext@1@@Z
    ?InitializeDynamicShaders_cutlass3x_common_cutlass3x_strided_deconv_sm100_tensorop_256x256x16_f16_f16_f16_f16_f16_854871b773139f6f@cask6_myelin@@YA?AW4Status@1@AEAVContext@1@@Z
    ?InitializeDynamicShaders_cutlass3x_common_cutlass3x_strided_deconv_sm100_tensorop_256x256x16_f16_f16_f16_f16_f16_a78f43e0a59a9925@cask6_myelin@@YA?AW4Status@1@AEAVContext@1@@Z
    ?InitializeDynamicShaders_cutlass3x_common_cutlass3x_strided_deconv_sm100_tensorop_256x256x16_f16_f16_f16_f16_f16_e469649fce9322c9@cask6_myelin@@YA?AW4Status@1@AEAVContext@1@@Z
    ?InitializeDynamicShaders_cutlass3x_common_cutlass3x_strided_deconv_sm100_tensorop_256x256x16_f16_f16_f16_f16_f16_ec1df78935a188cc@cask6_myelin@@YA?AW4Status@1@AEAVContext@1@@Z
    ?InitializeDynamicShaders_cutlass3x_common_cutlass3x_strided_deconv_sm100_tensorop_256x256x16_f16_f16_f32_f16_f16_1869e5acdf695614@cask6_myelin@@YA?AW4Status@1@AEAVContext@1@@Z
    ?InitializeDynamicShaders_cutlass3x_common_cutlass3x_strided_deconv_sm100_tensorop_256x256x16_f16_f16_f32_f16_f16_1e849d3fa7df1f0c@cask6_myelin@@YA?AW4Status@1@AEAVContext@1@@Z
    ?InitializeDynamicShaders_cutlass3x_common_cutlass3x_strided_deconv_sm100_tensorop_256x256x16_f16_f16_f32_f16_f16_42a32e1e63916dcb@cask6_myelin@@YA?AW4Status@1@AEAVContext@1@@Z
    ?InitializeDynamicShaders_cutlass3x_common_cutlass3x_strided_deconv_sm100_tensorop_256x256x16_f16_f16_f32_f16_f16_57f34a4d90897f6e@cask6_myelin@@YA?AW4Status@1@AEAVContext@1@@Z
    ?InitializeDynamicShaders_cutlass3x_common_cutlass3x_strided_deconv_sm100_tensorop_256x256x16_f16_f16_f32_f16_f16_6020b6bb43d15c58@cask6_myelin@@YA?AW4Status@1@AEAVContext@1@@Z
    ?InitializeDynamicShaders_cutlass3x_common_cutlass3x_strided_deconv_sm100_tensorop_256x256x16_f16_f16_f32_f16_f16_81bf199677580204@cask6_myelin@@YA?AW4Status@1@AEAVContext@1@@Z
    ?InitializeDynamicShaders_cutlass3x_common_cutlass3x_strided_deconv_sm100_tensorop_256x256x16_f16_f16_f32_f16_f16_ee5e5bfe8c4226d@cask6_myelin@@YA?AW4Status@1@AEAVContext@1@@Z
    ?InitializeDynamicShaders_cutlass3x_common_cutlass3x_strided_deconv_sm100_tensorop_256x256x32_s8_s8_s32_f16_f16_1ea9ec22a491496f@cask6_myelin@@YA?AW4Status@1@AEAVContext@1@@Z
    ?InitializeDynamicShaders_cutlass3x_common_cutlass3x_strided_deconv_sm100_tensorop_256x256x32_s8_s8_s32_f16_f16_1ff4e835ab6ccc55@cask6_myelin@@YA?AW4Status@1@AEAVContext@1@@Z
    ?InitializeDynamicShaders_cutlass3x_common_cutlass3x_strided_deconv_sm100_tensorop_256x256x32_s8_s8_s32_f16_f16_6636198081a6eb72@cask6_myelin@@YA?AW4Status@1@AEAVContext@1@@Z
    ?InitializeDynamicShaders_cutlass3x_common_cutlass3x_strided_deconv_sm100_tensorop_256x256x32_s8_s8_s32_f16_f16_765cbec3f2f7095a@cask6_myelin@@YA?AW4Status@1@AEAVContext@1@@Z
    ?InitializeDynamicShaders_cutlass3x_common_cutlass3x_strided_deconv_sm100_tensorop_256x256x32_s8_s8_s32_f16_f16_82f3622dd4b0b563@cask6_myelin@@YA?AW4Status@1@AEAVContext@1@@Z
    ?InitializeDynamicShaders_cutlass3x_common_cutlass3x_strided_deconv_sm100_tensorop_256x256x32_s8_s8_s32_f16_f16_d7fca7ba504c23be@cask6_myelin@@YA?AW4Status@1@AEAVContext@1@@Z
    ?InitializeDynamicShaders_cutlass3x_common_cutlass3x_strided_deconv_sm100_tensorop_256x256x32_s8_s8_s32_f16_f16_dfc1922f03a6bbfd@cask6_myelin@@YA?AW4Status@1@AEAVContext@1@@Z
    ?InitializeDynamicShaders_cutlass3x_common_cutlass3x_strided_deconv_sm100_tensorop_256x256x32_s8_s8_s32_f32_f32_2487b7312af270ba@cask6_myelin@@YA?AW4Status@1@AEAVContext@1@@Z
    ?InitializeDynamicShaders_cutlass3x_common_cutlass3x_strided_deconv_sm100_tensorop_256x256x32_s8_s8_s32_f32_f32_2641d16e2c1cd281@cask6_myelin@@YA?AW4Status@1@AEAVContext@1@@Z
    ?InitializeDynamicShaders_cutlass3x_common_cutlass3x_strided_deconv_sm100_tensorop_256x256x32_s8_s8_s32_f32_f32_4d0524392b00186c@cask6_myelin@@YA?AW4Status@1@AEAVContext@1@@Z
    ?InitializeDynamicShaders_cutlass3x_common_cutlass3x_strided_deconv_sm100_tensorop_256x256x32_s8_s8_s32_f32_f32_5906bde3b805deed@cask6_myelin@@YA?AW4Status@1@AEAVContext@1@@Z
    ?InitializeDynamicShaders_cutlass3x_common_cutlass3x_strided_deconv_sm100_tensorop_256x256x32_s8_s8_s32_f32_f32_b8bbaac9a33a66f0@cask6_myelin@@YA?AW4Status@1@AEAVContext@1@@Z
    ?InitializeDynamicShaders_cutlass3x_common_cutlass3x_strided_deconv_sm100_tensorop_256x256x32_s8_s8_s32_f32_f32_f6ce1fc56b842233@cask6_myelin@@YA?AW4Status@1@AEAVContext@1@@Z
    ?InitializeDynamicShaders_cutlass3x_common_cutlass3x_strided_deconv_sm100_tensorop_256x256x32_s8_s8_s32_f32_f32_f8cb341bf4f29b50@cask6_myelin@@YA?AW4Status@1@AEAVContext@1@@Z
    ?InitializeDynamicShaders_cutlass3x_common_cutlass3x_strided_deconv_sm100_tensorop_256x256x32_s8_s8_s32_s8_s8_33df736ac2e92671@cask6_myelin@@YA?AW4Status@1@AEAVContext@1@@Z
    ?InitializeDynamicShaders_cutlass3x_common_cutlass3x_strided_deconv_sm100_tensorop_256x256x32_s8_s8_s32_s8_s8_5242604c1d8440e1@cask6_myelin@@YA?AW4Status@1@AEAVContext@1@@Z
    ?InitializeDynamicShaders_cutlass3x_common_cutlass3x_strided_deconv_sm100_tensorop_256x256x32_s8_s8_s32_s8_s8_68bd929cb2608072@cask6_myelin@@YA?AW4Status@1@AEAVContext@1@@Z
    ?InitializeDynamicShaders_cutlass3x_common_cutlass3x_strided_deconv_sm100_tensorop_256x256x32_s8_s8_s32_s8_s8_7a612b37e839bfd4@cask6_myelin@@YA?AW4Status@1@AEAVContext@1@@Z
    ?InitializeDynamicShaders_cutlass3x_common_cutlass3x_strided_deconv_sm100_tensorop_256x256x32_s8_s8_s32_s8_s8_88b18114aff8783f@cask6_myelin@@YA?AW4Status@1@AEAVContext@1@@Z
    ?InitializeDynamicShaders_cutlass3x_common_cutlass3x_strided_deconv_sm100_tensorop_256x256x32_s8_s8_s32_s8_s8_b05b6290b90d71aa@cask6_myelin@@YA?AW4Status@1@AEAVContext@1@@Z
    ?InitializeDynamicShaders_cutlass3x_common_cutlass3x_strided_deconv_sm100_tensorop_256x256x32_s8_s8_s32_s8_s8_e8b8c142810d334@cask6_myelin@@YA?AW4Status@1@AEAVContext@1@@Z
    ?InitializeDynamicShaders_cutlass3x_common_cutlass3x_strided_deconv_sm100_tensorop_256x256x8_f32_f32_f32_f32_f32_12c5b6babb42f9b7@cask6_myelin@@YA?AW4Status@1@AEAVContext@1@@Z
    ?InitializeDynamicShaders_cutlass3x_common_cutlass3x_strided_deconv_sm100_tensorop_256x256x8_f32_f32_f32_f32_f32_2fba1cb2ac7f2c2a@cask6_myelin@@YA?AW4Status@1@AEAVContext@1@@Z
    ?InitializeDynamicShaders_cutlass3x_common_cutlass3x_strided_deconv_sm100_tensorop_256x256x8_f32_f32_f32_f32_f32_35ddb88c524addb1@cask6_myelin@@YA?AW4Status@1@AEAVContext@1@@Z
    ?InitializeDynamicShaders_cutlass3x_common_cutlass3x_strided_deconv_sm100_tensorop_256x256x8_f32_f32_f32_f32_f32_67a35ebda03091bf@cask6_myelin@@YA?AW4Status@1@AEAVContext@1@@Z
    ?InitializeDynamicShaders_cutlass3x_common_cutlass3x_strided_deconv_sm100_tensorop_256x256x8_f32_f32_f32_f32_f32_89024f2e31dba5d3@cask6_myelin@@YA?AW4Status@1@AEAVContext@1@@Z
    ?InitializeDynamicShaders_cutlass3x_common_cutlass3x_strided_deconv_sm100_tensorop_256x256x8_f32_f32_f32_f32_f32_da9ab708323d551@cask6_myelin@@YA?AW4Status@1@AEAVContext@1@@Z
    ?InitializeDynamicShaders_cutlass3x_common_cutlass3x_strided_deconv_sm100_tensorop_256x256x8_f32_f32_f32_f32_f32_f0a1d4dcb122ab54@cask6_myelin@@YA?AW4Status@1@AEAVContext@1@@Z
    ?InitializeDynamicShaders_cutlass3x_common_cutlass3x_strided_deconv_sm100_tensorop_256x64x16_bf16_bf16_f32_bf16_bf16_15ce415be22c4892@cask6_myelin@@YA?AW4Status@1@AEAVContext@1@@Z
    ?InitializeDynamicShaders_cutlass3x_common_cutlass3x_strided_deconv_sm100_tensorop_256x64x16_bf16_bf16_f32_bf16_bf16_54808fe184e7d834@cask6_myelin@@YA?AW4Status@1@AEAVContext@1@@Z
    ?InitializeDynamicShaders_cutlass3x_common_cutlass3x_strided_deconv_sm100_tensorop_256x64x16_bf16_bf16_f32_bf16_bf16_7eac704ce7f04a7@cask6_myelin@@YA?AW4Status@1@AEAVContext@1@@Z
    ?InitializeDynamicShaders_cutlass3x_common_cutlass3x_strided_deconv_sm100_tensorop_256x64x16_bf16_bf16_f32_bf16_bf16_8cc271eb5e44c57@cask6_myelin@@YA?AW4Status@1@AEAVContext@1@@Z
    ?InitializeDynamicShaders_cutlass3x_common_cutlass3x_strided_deconv_sm100_tensorop_256x64x16_bf16_bf16_f32_bf16_bf16_bd23582ee3a7f04a@cask6_myelin@@YA?AW4Status@1@AEAVContext@1@@Z
    ?InitializeDynamicShaders_cutlass3x_common_cutlass3x_strided_deconv_sm100_tensorop_256x64x16_bf16_bf16_f32_bf16_bf16_e2283199fe9ea05f@cask6_myelin@@YA?AW4Status@1@AEAVContext@1@@Z
    ?InitializeDynamicShaders_cutlass3x_common_cutlass3x_strided_deconv_sm100_tensorop_256x64x16_bf16_bf16_f32_bf16_bf16_efbca4af96da4c02@cask6_myelin@@YA?AW4Status@1@AEAVContext@1@@Z
    ?InitializeDynamicShaders_cutlass3x_common_cutlass3x_strided_deconv_sm100_tensorop_256x64x16_f16_f16_f16_f16_f16_2c7dab3fe7f9c82a@cask6_myelin@@YA?AW4Status@1@AEAVContext@1@@Z
    ?InitializeDynamicShaders_cutlass3x_common_cutlass3x_strided_deconv_sm100_tensorop_256x64x16_f16_f16_f16_f16_f16_2dc1cdf0ff12cc1@cask6_myelin@@YA?AW4Status@1@AEAVContext@1@@Z
    ?InitializeDynamicShaders_cutlass3x_common_cutlass3x_strided_deconv_sm100_tensorop_256x64x16_f16_f16_f16_f16_f16_72b2babdff428957@cask6_myelin@@YA?AW4Status@1@AEAVContext@1@@Z
    ?InitializeDynamicShaders_cutlass3x_common_cutlass3x_strided_deconv_sm100_tensorop_256x64x16_f16_f16_f16_f16_f16_987dfb1e0a8f9201@cask6_myelin@@YA?AW4Status@1@AEAVContext@1@@Z
    ?InitializeDynamicShaders_cutlass3x_common_cutlass3x_strided_deconv_sm100_tensorop_256x64x16_f16_f16_f16_f16_f16_e377d629881c0baf@cask6_myelin@@YA?AW4Status@1@AEAVContext@1@@Z
    ?InitializeDynamicShaders_cutlass3x_common_cutlass3x_strided_deconv_sm100_tensorop_256x64x16_f16_f16_f16_f16_f16_f2ad6d561eaa34f5@cask6_myelin@@YA?AW4Status@1@AEAVContext@1@@Z
    ?InitializeDynamicShaders_cutlass3x_common_cutlass3x_strided_deconv_sm100_tensorop_256x64x16_f16_f16_f16_f16_f16_fe26a18ae4ebd844@cask6_myelin@@YA?AW4Status@1@AEAVContext@1@@Z
    ?InitializeDynamicShaders_cutlass3x_common_cutlass3x_strided_deconv_sm100_tensorop_256x64x16_f16_f16_f32_f16_f16_18b0f8a1c3795776@cask6_myelin@@YA?AW4Status@1@AEAVContext@1@@Z
    ?InitializeDynamicShaders_cutlass3x_common_cutlass3x_strided_deconv_sm100_tensorop_256x64x16_f16_f16_f32_f16_f16_726a4cc184d22e08@cask6_myelin@@YA?AW4Status@1@AEAVContext@1@@Z
    ?InitializeDynamicShaders_cutlass3x_common_cutlass3x_strided_deconv_sm100_tensorop_256x64x16_f16_f16_f32_f16_f16_8d54e1e3d8aaaff3@cask6_myelin@@YA?AW4Status@1@AEAVContext@1@@Z
    ?InitializeDynamicShaders_cutlass3x_common_cutlass3x_strided_deconv_sm100_tensorop_256x64x16_f16_f16_f32_f16_f16_bcbbaa78e3d9af83@cask6_myelin@@YA?AW4Status@1@AEAVContext@1@@Z
    ?InitializeDynamicShaders_cutlass3x_common_cutlass3x_strided_deconv_sm100_tensorop_256x64x16_f16_f16_f32_f16_f16_c73f8ea4d0529646@cask6_myelin@@YA?AW4Status@1@AEAVContext@1@@Z
    ?InitializeDynamicShaders_cutlass3x_common_cutlass3x_strided_deconv_sm100_tensorop_256x64x16_f16_f16_f32_f16_f16_e6fc0559ee09c821@cask6_myelin@@YA?AW4Status@1@AEAVContext@1@@Z
    ?InitializeDynamicShaders_cutlass3x_common_cutlass3x_strided_deconv_sm100_tensorop_256x64x16_f16_f16_f32_f16_f16_e818f7bdf364867@cask6_myelin@@YA?AW4Status@1@AEAVContext@1@@Z
    ?InitializeDynamicShaders_cutlass3x_common_cutlass3x_strided_deconv_sm100_tensorop_64x128x16_bf16_bf16_f32_bf16_bf16_291e0f3a066c4720@cask6_myelin@@YA?AW4Status@1@AEAVContext@1@@Z
    ?InitializeDynamicShaders_cutlass3x_common_cutlass3x_strided_deconv_sm100_tensorop_64x128x16_bf16_bf16_f32_bf16_bf16_bb27a74f6005af8d@cask6_myelin@@YA?AW4Status@1@AEAVContext@1@@Z
    ?InitializeDynamicShaders_cutlass3x_common_cutlass3x_strided_deconv_sm100_tensorop_64x128x16_bf16_bf16_f32_bf16_bf16_d7abc210cdc41ccd@cask6_myelin@@YA?AW4Status@1@AEAVContext@1@@Z
    ?InitializeDynamicShaders_cutlass3x_common_cutlass3x_strided_deconv_sm100_tensorop_64x128x16_bf16_bf16_f32_bf16_bf16_faba444c632d436b@cask6_myelin@@YA?AW4Status@1@AEAVContext@1@@Z
    ?InitializeDynamicShaders_cutlass3x_common_cutlass3x_strided_deconv_sm100_tensorop_64x128x16_f16_f16_f16_f16_f16_536659973a822d7d@cask6_myelin@@YA?AW4Status@1@AEAVContext@1@@Z
    ?InitializeDynamicShaders_cutlass3x_common_cutlass3x_strided_deconv_sm100_tensorop_64x128x16_f16_f16_f16_f16_f16_672aa6bfa7907ad5@cask6_myelin@@YA?AW4Status@1@AEAVContext@1@@Z
    ?InitializeDynamicShaders_cutlass3x_common_cutlass3x_strided_deconv_sm100_tensorop_64x128x16_f16_f16_f16_f16_f16_af3c2a195e93ddbf@cask6_myelin@@YA?AW4Status@1@AEAVContext@1@@Z
    ?InitializeDynamicShaders_cutlass3x_common_cutlass3x_strided_deconv_sm100_tensorop_64x128x16_f16_f16_f16_f16_f16_f143138a3df53ca@cask6_myelin@@YA?AW4Status@1@AEAVContext@1@@Z
    ?InitializeDynamicShaders_cutlass3x_common_cutlass3x_strided_deconv_sm100_tensorop_64x128x16_f16_f16_f32_f16_f16_452efb1dd555da01@cask6_myelin@@YA?AW4Status@1@AEAVContext@1@@Z
    ?InitializeDynamicShaders_cutlass3x_common_cutlass3x_strided_deconv_sm100_tensorop_64x128x16_f16_f16_f32_f16_f16_78a29c385e88e5af@cask6_myelin@@YA?AW4Status@1@AEAVContext@1@@Z
    ?InitializeDynamicShaders_cutlass3x_common_cutlass3x_strided_deconv_sm100_tensorop_64x128x16_f16_f16_f32_f16_f16_7af74b7414d40593@cask6_myelin@@YA?AW4Status@1@AEAVContext@1@@Z
    ?InitializeDynamicShaders_cutlass3x_common_cutlass3x_strided_deconv_sm100_tensorop_64x128x16_f16_f16_f32_f16_f16_db4792c5486e4f9@cask6_myelin@@YA?AW4Status@1@AEAVContext@1@@Z
    ?InitializeDynamicShaders_cutlass3x_common_cutlass3x_strided_deconv_sm100_tensorop_64x128x32_s8_s8_s32_f16_f16_8c61982b6c38cf2c@cask6_myelin@@YA?AW4Status@1@AEAVContext@1@@Z
    ?InitializeDynamicShaders_cutlass3x_common_cutlass3x_strided_deconv_sm100_tensorop_64x128x32_s8_s8_s32_f16_f16_b84508cce3c76792@cask6_myelin@@YA?AW4Status@1@AEAVContext@1@@Z
    ?InitializeDynamicShaders_cutlass3x_common_cutlass3x_strided_deconv_sm100_tensorop_64x128x32_s8_s8_s32_f16_f16_be5863d40f1814ba@cask6_myelin@@YA?AW4Status@1@AEAVContext@1@@Z
    ?InitializeDynamicShaders_cutlass3x_common_cutlass3x_strided_deconv_sm100_tensorop_64x128x32_s8_s8_s32_f16_f16_e5a5a7a27fd55a6b@cask6_myelin@@YA?AW4Status@1@AEAVContext@1@@Z
    ?InitializeDynamicShaders_cutlass3x_common_cutlass3x_strided_deconv_sm100_tensorop_64x128x32_s8_s8_s32_f32_f32_1071bc7ac0058b90@cask6_myelin@@YA?AW4Status@1@AEAVContext@1@@Z
    ?InitializeDynamicShaders_cutlass3x_common_cutlass3x_strided_deconv_sm100_tensorop_64x128x32_s8_s8_s32_f32_f32_a64d7e2b7ded5433@cask6_myelin@@YA?AW4Status@1@AEAVContext@1@@Z
    ?InitializeDynamicShaders_cutlass3x_common_cutlass3x_strided_deconv_sm100_tensorop_64x128x32_s8_s8_s32_f32_f32_e25a13b64e45943e@cask6_myelin@@YA?AW4Status@1@AEAVContext@1@@Z
    ?InitializeDynamicShaders_cutlass3x_common_cutlass3x_strided_deconv_sm100_tensorop_64x128x32_s8_s8_s32_f32_f32_f0001ae92d5502fd@cask6_myelin@@YA?AW4Status@1@AEAVContext@1@@Z
    ?InitializeDynamicShaders_cutlass3x_common_cutlass3x_strided_deconv_sm100_tensorop_64x128x32_s8_s8_s32_s8_s8_23aec95b74a3ba0f@cask6_myelin@@YA?AW4Status@1@AEAVContext@1@@Z
    ?InitializeDynamicShaders_cutlass3x_common_cutlass3x_strided_deconv_sm100_tensorop_64x128x32_s8_s8_s32_s8_s8_407bf6ecfed91084@cask6_myelin@@YA?AW4Status@1@AEAVContext@1@@Z
    ?InitializeDynamicShaders_cutlass3x_common_cutlass3x_strided_deconv_sm100_tensorop_64x128x32_s8_s8_s32_s8_s8_8a0f952325842a02@cask6_myelin@@YA?AW4Status@1@AEAVContext@1@@Z
    ?InitializeDynamicShaders_cutlass3x_common_cutlass3x_strided_deconv_sm100_tensorop_64x128x32_s8_s8_s32_s8_s8_b5557ab750cb27d@cask6_myelin@@YA?AW4Status@1@AEAVContext@1@@Z
    ?InitializeDynamicShaders_cutlass3x_common_cutlass3x_strided_deconv_sm100_tensorop_64x128x8_f32_f32_f32_f32_f32_2538bd4b3a019578@cask6_myelin@@YA?AW4Status@1@AEAVContext@1@@Z
    ?InitializeDynamicShaders_cutlass3x_common_cutlass3x_strided_deconv_sm100_tensorop_64x128x8_f32_f32_f32_f32_f32_78dcfcc27fc0f8aa@cask6_myelin@@YA?AW4Status@1@AEAVContext@1@@Z
    ?InitializeDynamicShaders_cutlass3x_common_cutlass3x_strided_deconv_sm100_tensorop_64x128x8_f32_f32_f32_f32_f32_b5f444650f968028@cask6_myelin@@YA?AW4Status@1@AEAVContext@1@@Z
    ?InitializeDynamicShaders_cutlass3x_common_cutlass3x_strided_deconv_sm100_tensorop_64x128x8_f32_f32_f32_f32_f32_c58d80856a284dcf@cask6_myelin@@YA?AW4Status@1@AEAVContext@1@@Z
    ?InitializeDynamicShaders_cutlass3x_common_cutlass3x_strided_deconv_sm100_tensorop_64x64x16_bf16_bf16_f32_bf16_bf16_3b1641745d1f3955@cask6_myelin@@YA?AW4Status@1@AEAVContext@1@@Z
    ?InitializeDynamicShaders_cutlass3x_common_cutlass3x_strided_deconv_sm100_tensorop_64x64x16_bf16_bf16_f32_bf16_bf16_7117c5d98ae2f163@cask6_myelin@@YA?AW4Status@1@AEAVContext@1@@Z
    ?InitializeDynamicShaders_cutlass3x_common_cutlass3x_strided_deconv_sm100_tensorop_64x64x16_bf16_bf16_f32_bf16_bf16_95ff582a6680909f@cask6_myelin@@YA?AW4Status@1@AEAVContext@1@@Z
    ?InitializeDynamicShaders_cutlass3x_common_cutlass3x_strided_deconv_sm100_tensorop_64x64x16_bf16_bf16_f32_bf16_bf16_d5d6e89ab2242150@cask6_myelin@@YA?AW4Status@1@AEAVContext@1@@Z
    ?InitializeDynamicShaders_cutlass3x_common_cutlass3x_strided_deconv_sm100_tensorop_64x64x16_f16_f16_f16_f16_f16_150da59cdcf5815@cask6_myelin@@YA?AW4Status@1@AEAVContext@1@@Z
    ?InitializeDynamicShaders_cutlass3x_common_cutlass3x_strided_deconv_sm100_tensorop_64x64x16_f16_f16_f16_f16_f16_1df456a7500768ee@cask6_myelin@@YA?AW4Status@1@AEAVContext@1@@Z
    ?InitializeDynamicShaders_cutlass3x_common_cutlass3x_strided_deconv_sm100_tensorop_64x64x16_f16_f16_f16_f16_f16_523729d8bbcf65cc@cask6_myelin@@YA?AW4Status@1@AEAVContext@1@@Z
    ?InitializeDynamicShaders_cutlass3x_common_cutlass3x_strided_deconv_sm100_tensorop_64x64x16_f16_f16_f16_f16_f16_f2c3a441b47c53a3@cask6_myelin@@YA?AW4Status@1@AEAVContext@1@@Z
    ?InitializeDynamicShaders_cutlass3x_common_cutlass3x_strided_deconv_sm100_tensorop_64x64x16_f16_f16_f32_f16_f16_6e3a9e9ffbaa6990@cask6_myelin@@YA?AW4Status@1@AEAVContext@1@@Z
    ?InitializeDynamicShaders_cutlass3x_common_cutlass3x_strided_deconv_sm100_tensorop_64x64x16_f16_f16_f32_f16_f16_9575f4f5ee03502b@cask6_myelin@@YA?AW4Status@1@AEAVContext@1@@Z
    ?InitializeDynamicShaders_cutlass3x_common_cutlass3x_strided_deconv_sm100_tensorop_64x64x16_f16_f16_f32_f16_f16_c9f1496e92a5e654@cask6_myelin@@YA?AW4Status@1@AEAVContext@1@@Z
    ?InitializeDynamicShaders_cutlass3x_common_cutlass3x_strided_deconv_sm100_tensorop_64x64x16_f16_f16_f32_f16_f16_d60a616a11cc766@cask6_myelin@@YA?AW4Status@1@AEAVContext@1@@Z
    ?InitializeDynamicShaders_cutlass3x_common_cutlass_conv_fprop_bias_activation_first_layer_tensorop__179d08cdb61cff38@cask6_myelin@@YA?AW4Status@1@AEAVContext@1@@Z
    ?InitializeDynamicShaders_cutlass3x_common_cutlass_conv_fprop_bias_activation_first_layer_tensorop__58edae33d7632eff@cask6_myelin@@YA?AW4Status@1@AEAVContext@1@@Z
    ?InitializeDynamicShaders_cutlass3x_common_cutlass_conv_fprop_bias_activation_first_layer_tensorop__5b3d7e729114584c@cask6_myelin@@YA?AW4Status@1@AEAVContext@1@@Z
    ?InitializeDynamicShaders_cutlass3x_common_cutlass_conv_fprop_bias_activation_first_layer_tensorop__5c7751d83d2954d0@cask6_myelin@@YA?AW4Status@1@AEAVContext@1@@Z
    ?InitializeDynamicShaders_cutlass3x_common_cutlass_conv_fprop_bias_activation_first_layer_tensorop__5ec01d6485cbbe39@cask6_myelin@@YA?AW4Status@1@AEAVContext@1@@Z
    ?InitializeDynamicShaders_cutlass3x_common_cutlass_conv_fprop_bias_activation_first_layer_tensorop__74db67534f4e2588@cask6_myelin@@YA?AW4Status@1@AEAVContext@1@@Z
    ?InitializeDynamicShaders_cutlass3x_common_cutlass_conv_fprop_bias_activation_first_layer_tensorop__794f83e02ff11e68@cask6_myelin@@YA?AW4Status@1@AEAVContext@1@@Z
    ?InitializeDynamicShaders_cutlass3x_common_cutlass_conv_fprop_bias_activation_first_layer_tensorop__7a9467ac691e41ff@cask6_myelin@@YA?AW4Status@1@AEAVContext@1@@Z
    ?InitializeDynamicShaders_cutlass3x_common_cutlass_conv_fprop_bias_activation_first_layer_tensorop__7d66a9a8acd27b40@cask6_myelin@@YA?AW4Status@1@AEAVContext@1@@Z
    ?InitializeDynamicShaders_cutlass3x_common_cutlass_conv_fprop_bias_activation_first_layer_tensorop__8020a67c623d9d01@cask6_myelin@@YA?AW4Status@1@AEAVContext@1@@Z
    ?InitializeDynamicShaders_cutlass3x_common_cutlass_conv_fprop_bias_activation_first_layer_tensorop__84b33c414182354c@cask6_myelin@@YA?AW4Status@1@AEAVContext@1@@Z
    ?InitializeDynamicShaders_cutlass3x_common_cutlass_conv_fprop_bias_activation_first_layer_tensorop__88d1ef98f9a3fad9@cask6_myelin@@YA?AW4Status@1@AEAVContext@1@@Z
    ?InitializeDynamicShaders_cutlass3x_common_cutlass_conv_fprop_bias_activation_first_layer_tensorop__9ef728cfaf512440@cask6_myelin@@YA?AW4Status@1@AEAVContext@1@@Z
    ?InitializeDynamicShaders_cutlass3x_common_cutlass_conv_fprop_bias_activation_first_layer_tensorop__c30c0de808606833@cask6_myelin@@YA?AW4Status@1@AEAVContext@1@@Z
    ?InitializeDynamicShaders_cutlass3x_common_cutlass_conv_fprop_bias_activation_first_layer_tensorop__c3c25936f987b6eb@cask6_myelin@@YA?AW4Status@1@AEAVContext@1@@Z
    ?InitializeDynamicShaders_cutlass3x_common_cutlass_conv_fprop_bias_activation_first_layer_tensorop__c3cc5852bbc938ac@cask6_myelin@@YA?AW4Status@1@AEAVContext@1@@Z
    ?InitializeDynamicShaders_cutlass3x_common_cutlass_conv_fprop_bias_activation_first_layer_tensorop__c6743866985a1460@cask6_myelin@@YA?AW4Status@1@AEAVContext@1@@Z
    ?InitializeDynamicShaders_cutlass3x_common_cutlass_conv_fprop_bias_activation_first_layer_tensorop__c6c3018655a2870f@cask6_myelin@@YA?AW4Status@1@AEAVContext@1@@Z
    ?InitializeDynamicShaders_cutlass3x_common_cutlass_conv_fprop_bias_activation_first_layer_tensorop__cb8761244b2f8b5@cask6_myelin@@YA?AW4Status@1@AEAVContext@1@@Z
    ?InitializeDynamicShaders_cutlass3x_common_cutlass_conv_fprop_bias_activation_first_layer_tensorop__cc6b407562ca39ff@cask6_myelin@@YA?AW4Status@1@AEAVContext@1@@Z
    ?InitializeDynamicShaders_cutlass3x_common_cutlass_conv_fprop_bias_activation_first_layer_tensorop__d40d7ef90fee324a@cask6_myelin@@YA?AW4Status@1@AEAVContext@1@@Z
    ?InitializeDynamicShaders_cutlass3x_common_cutlass_conv_fprop_bias_activation_first_layer_tensorop__dc7d5cb289508c58@cask6_myelin@@YA?AW4Status@1@AEAVContext@1@@Z
    ?InitializeDynamicShaders_cutlass3x_common_cutlass_conv_fprop_bias_activation_first_layer_tensorop__f4b90208a5c3baf3@cask6_myelin@@YA?AW4Status@1@AEAVContext@1@@Z
    ?InitializeDynamicShaders_cutlass3x_common_cutlass_conv_fprop_bias_activation_first_layer_tensorop__fe884f2216db6d75@cask6_myelin@@YA?AW4Status@1@AEAVContext@1@@Z
    ?InitializeDynamicShaders_standalone_common_conv2d_grouped_302d4fe21a8bfe72@cask6_myelin@@YA?AW4Status@1@AEAVContext@1@@Z
    ?InitializeDynamicShaders_standalone_common_conv2d_grouped_32b910e9ff6a2b3f@cask6_myelin@@YA?AW4Status@1@AEAVContext@1@@Z
    ?InitializeDynamicShaders_standalone_common_conv2d_grouped_35b45a05b80aff87@cask6_myelin@@YA?AW4Status@1@AEAVContext@1@@Z
    ?InitializeDynamicShaders_standalone_common_conv2d_grouped_3c52505b51ce16cf@cask6_myelin@@YA?AW4Status@1@AEAVContext@1@@Z
    ?InitializeDynamicShaders_standalone_common_conv2d_grouped_404594dddd842c5b@cask6_myelin@@YA?AW4Status@1@AEAVContext@1@@Z
    ?InitializeDynamicShaders_standalone_common_conv2d_grouped_42f7c161a07008e2@cask6_myelin@@YA?AW4Status@1@AEAVContext@1@@Z
    ?InitializeDynamicShaders_standalone_common_conv2d_grouped_4b8957a66c66b383@cask6_myelin@@YA?AW4Status@1@AEAVContext@1@@Z
    ?InitializeDynamicShaders_standalone_common_conv2d_grouped_4bc8d356c0e75cb7@cask6_myelin@@YA?AW4Status@1@AEAVContext@1@@Z
    ?InitializeDynamicShaders_standalone_common_conv2d_grouped_5ba6594c48d0118c@cask6_myelin@@YA?AW4Status@1@AEAVContext@1@@Z
    ?InitializeDynamicShaders_standalone_common_conv2d_grouped_5c91b14a653f729d@cask6_myelin@@YA?AW4Status@1@AEAVContext@1@@Z
    ?InitializeDynamicShaders_standalone_common_conv2d_grouped_62ab4276bda1e9c5@cask6_myelin@@YA?AW4Status@1@AEAVContext@1@@Z
    ?InitializeDynamicShaders_standalone_common_conv2d_grouped_6472963f2cd16d7d@cask6_myelin@@YA?AW4Status@1@AEAVContext@1@@Z
    ?InitializeDynamicShaders_standalone_common_conv2d_grouped_6fc63ab5f1f78fc5@cask6_myelin@@YA?AW4Status@1@AEAVContext@1@@Z
    ?InitializeDynamicShaders_standalone_common_conv2d_grouped_82b2185ffc9724f6@cask6_myelin@@YA?AW4Status@1@AEAVContext@1@@Z
    ?InitializeDynamicShaders_standalone_common_conv2d_grouped_8e4511094f30cdbc@cask6_myelin@@YA?AW4Status@1@AEAVContext@1@@Z
    ?InitializeDynamicShaders_standalone_common_conv2d_grouped_8e83cbc683babaf7@cask6_myelin@@YA?AW4Status@1@AEAVContext@1@@Z
    ?InitializeDynamicShaders_standalone_common_conv2d_grouped_9d195255e146f593@cask6_myelin@@YA?AW4Status@1@AEAVContext@1@@Z
    ?InitializeDynamicShaders_standalone_common_conv2d_grouped_ab62720263594922@cask6_myelin@@YA?AW4Status@1@AEAVContext@1@@Z
    ?InitializeDynamicShaders_standalone_common_conv2d_grouped_afb7c2cd8bc1efea@cask6_myelin@@YA?AW4Status@1@AEAVContext@1@@Z
    ?InitializeDynamicShaders_standalone_common_conv2d_grouped_b12efd9d71f74ad4@cask6_myelin@@YA?AW4Status@1@AEAVContext@1@@Z
    ?InitializeDynamicShaders_standalone_common_conv2d_grouped_bb73e1cf4412f0fd@cask6_myelin@@YA?AW4Status@1@AEAVContext@1@@Z
    ?InitializeDynamicShaders_standalone_common_conv2d_grouped_bf00428cbc3f4ac0@cask6_myelin@@YA?AW4Status@1@AEAVContext@1@@Z
    ?InitializeDynamicShaders_standalone_common_conv2d_grouped_c8e1533e2c5d031b@cask6_myelin@@YA?AW4Status@1@AEAVContext@1@@Z
    ?InitializeDynamicShaders_standalone_common_conv2d_grouped_c968461a2bae78ed@cask6_myelin@@YA?AW4Status@1@AEAVContext@1@@Z
    ?InitializeDynamicShaders_standalone_common_conv2d_grouped_d07ca1fda213f6b3@cask6_myelin@@YA?AW4Status@1@AEAVContext@1@@Z
    ?InitializeDynamicShaders_standalone_common_conv2d_grouped_d6b5e4d41b7bef85@cask6_myelin@@YA?AW4Status@1@AEAVContext@1@@Z
    ?InitializeDynamicShaders_standalone_common_conv2d_grouped_e6336edab30e296a@cask6_myelin@@YA?AW4Status@1@AEAVContext@1@@Z
    ?InitializeDynamicShaders_standalone_common_conv2d_grouped_e6f94cd817db929f@cask6_myelin@@YA?AW4Status@1@AEAVContext@1@@Z
    ?InitializeDynamicShaders_standalone_common_conv2d_grouped_ecfbabebb6057763@cask6_myelin@@YA?AW4Status@1@AEAVContext@1@@Z
    ?InitializeDynamicShaders_standalone_common_conv2d_grouped_fb56119a4454a487@cask6_myelin@@YA?AW4Status@1@AEAVContext@1@@Z
    ?InitializeDynamicShaders_standalone_common_conv_act_pool_v3_3e69eea4c5c6191c@cask6_myelin@@YA?AW4Status@1@AEAVContext@1@@Z
    ?InitializeDynamicShaders_standalone_common_conv_act_pool_v3_53a001bde3e8f71@cask6_myelin@@YA?AW4Status@1@AEAVContext@1@@Z
    ?InitializeDynamicShaders_standalone_common_conv_act_pool_v3_7e5a2925aab772c1@cask6_myelin@@YA?AW4Status@1@AEAVContext@1@@Z
    ?InitializeDynamicShaders_standalone_common_conv_act_pool_v3_85a55ec489ae6e6c@cask6_myelin@@YA?AW4Status@1@AEAVContext@1@@Z
    ?InitializeDynamicShaders_standalone_common_conv_act_pool_v3_a96570014e33c69@cask6_myelin@@YA?AW4Status@1@AEAVContext@1@@Z
    ?InitializeDynamicShaders_standalone_common_conv_act_pool_v3_da18d4d386c25fa2@cask6_myelin@@YA?AW4Status@1@AEAVContext@1@@Z
    ?InitializeDynamicShaders_standalone_common_conv_act_pool_v3_e18f3271039d3a69@cask6_myelin@@YA?AW4Status@1@AEAVContext@1@@Z
    ?InitializeDynamicShaders_standalone_common_conv_act_pool_v3_fb0715decbb8d21a@cask6_myelin@@YA?AW4Status@1@AEAVContext@1@@Z
    ?InitializeDynamicShaders_standalone_common_conv_act_pool_v3_filter_reorder_886e10c46767839f@cask6_myelin@@YA?AW4Status@1@AEAVContext@1@@Z
    ?InitializeDynamicShaders_standalone_common_conv_act_pool_v5_36cc3ba52abaa365@cask6_myelin@@YA?AW4Status@1@AEAVContext@1@@Z
    ?InitializeDynamicShaders_standalone_common_conv_act_pool_v5_3eb831f24d3b79a@cask6_myelin@@YA?AW4Status@1@AEAVContext@1@@Z
    ?InitializeDynamicShaders_standalone_common_conv_act_pool_v5_56395c295ae8b3e6@cask6_myelin@@YA?AW4Status@1@AEAVContext@1@@Z
    ?InitializeDynamicShaders_standalone_common_conv_act_pool_v5_5ee60a8f86206686@cask6_myelin@@YA?AW4Status@1@AEAVContext@1@@Z
    ?InitializeDynamicShaders_standalone_common_conv_act_pool_v5_6210c570f443e5e1@cask6_myelin@@YA?AW4Status@1@AEAVContext@1@@Z
    ?InitializeDynamicShaders_standalone_common_conv_act_pool_v5_6331c2d8c5430d13@cask6_myelin@@YA?AW4Status@1@AEAVContext@1@@Z
    ?InitializeDynamicShaders_standalone_common_conv_act_pool_v5_68426c9bbf8f4d21@cask6_myelin@@YA?AW4Status@1@AEAVContext@1@@Z
    ?InitializeDynamicShaders_standalone_common_conv_act_pool_v5_68d391f168ba78c9@cask6_myelin@@YA?AW4Status@1@AEAVContext@1@@Z
    ?InitializeDynamicShaders_standalone_common_conv_act_pool_v5_6c91687366b7d259@cask6_myelin@@YA?AW4Status@1@AEAVContext@1@@Z
    ?InitializeDynamicShaders_standalone_common_conv_act_pool_v5_94396a501930b565@cask6_myelin@@YA?AW4Status@1@AEAVContext@1@@Z
    ?InitializeDynamicShaders_standalone_common_conv_act_pool_v5_9c2fa698006ffc85@cask6_myelin@@YA?AW4Status@1@AEAVContext@1@@Z
    ?InitializeDynamicShaders_standalone_common_conv_act_pool_v5_a3419f2ea3778261@cask6_myelin@@YA?AW4Status@1@AEAVContext@1@@Z
    ?InitializeDynamicShaders_standalone_common_conv_act_pool_v5_b5806d17ed7813b1@cask6_myelin@@YA?AW4Status@1@AEAVContext@1@@Z
    ?InitializeDynamicShaders_standalone_common_conv_act_pool_v5_b79c43961dc1ee5b@cask6_myelin@@YA?AW4Status@1@AEAVContext@1@@Z
    ?InitializeDynamicShaders_standalone_common_conv_act_pool_v5_d1a2fe4db381f8c5@cask6_myelin@@YA?AW4Status@1@AEAVContext@1@@Z
    ?InitializeDynamicShaders_standalone_common_conv_act_pool_v5_d3cf1234c4c1f67f@cask6_myelin@@YA?AW4Status@1@AEAVContext@1@@Z
    ?InitializeDynamicShaders_standalone_common_conv_act_pool_v5_dec24f5b241c7518@cask6_myelin@@YA?AW4Status@1@AEAVContext@1@@Z
    ?InitializeDynamicShaders_standalone_common_conv_act_pool_v5_f698054b17965232@cask6_myelin@@YA?AW4Status@1@AEAVContext@1@@Z
    ?InitializeDynamicShaders_standalone_common_depthwiseHMMA_8379b6b999110cbc@cask6_myelin@@YA?AW4Status@1@AEAVContext@1@@Z
    ?InitializeDynamicShaders_standalone_common_depthwiseHMMA_9c83cc1ea59ebaa5@cask6_myelin@@YA?AW4Status@1@AEAVContext@1@@Z
    ?InitializeDynamicShaders_standalone_common_depthwiseHMMA_a3260c8613ad614b@cask6_myelin@@YA?AW4Status@1@AEAVContext@1@@Z
    ?InitializeDynamicShaders_standalone_common_depthwiseHMMA_c6142e623a84fe3@cask6_myelin@@YA?AW4Status@1@AEAVContext@1@@Z
    ?InitializeDynamicShaders_standalone_common_gap_int8x32_1ff8341147fa6608@cask6_myelin@@YA?AW4Status@1@AEAVContext@1@@Z
    ?InitializeDynamicShaders_standalone_common_gap_int8x32_f770fb21703b5dc9@cask6_myelin@@YA?AW4Status@1@AEAVContext@1@@Z
    ?InitializeDynamicShaders_standalone_common_pooling_fp16x8_1b6de8870b5d0b07@cask6_myelin@@YA?AW4Status@1@AEAVContext@1@@Z
    ?InitializeDynamicShaders_standalone_common_pooling_fp16x8_92b16d9116dde9c7@cask6_myelin@@YA?AW4Status@1@AEAVContext@1@@Z
    ?InitializeDynamicShaders_standalone_common_pooling_fp16x8_b8b07f9ea30c2b41@cask6_myelin@@YA?AW4Status@1@AEAVContext@1@@Z
    ?InitializeDynamicShaders_standalone_common_pooling_fp16x8_ebc1db472f3a358c@cask6_myelin@@YA?AW4Status@1@AEAVContext@1@@Z
    ?InitializeDynamicShaders_standalone_common_pooling_int8x32_9884c41ea0e7b1ab@cask6_myelin@@YA?AW4Status@1@AEAVContext@1@@Z
    ?InitializeDynamicShaders_standalone_common_pooling_int8x32_c52c3bdfde78c2b0@cask6_myelin@@YA?AW4Status@1@AEAVContext@1@@Z
    ?InitializeDynamicShaders_standalone_common_zigzag_reorder_2c8a61c6d46d4d69@cask6_myelin@@YA?AW4Status@1@AEAVContext@1@@Z
    ?InitializeDynamicShaders_standalone_common_zigzag_reorder_7316ef03aa51dab9@cask6_myelin@@YA?AW4Status@1@AEAVContext@1@@Z
    ?InitializeDynamicShaders_standalone_common_zigzag_reorder_d9097a73dc6ef1e1@cask6_myelin@@YA?AW4Status@1@AEAVContext@1@@Z
    ?InitializeProvider_group_0@cask6_myelin@@YA?AW4Status@1@AEAVContext@1@@Z
    ?InitializeProvider_group_1@cask6_myelin@@YA?AW4Status@1@AEAVContext@1@@Z
    ?InitializeProvider_group_2@cask6_myelin@@YA?AW4Status@1@AEAVContext@1@@Z
    ?InitializeProvider_group_3@cask6_myelin@@YA?AW4Status@1@AEAVContext@1@@Z
    ?InitializeProvider_group_4@cask6_myelin@@YA?AW4Status@1@AEAVContext@1@@Z
    ?InitializeProvider_group_5@cask6_myelin@@YA?AW4Status@1@AEAVContext@1@@Z
    ?InitializeResources_group_0@cask6_myelin@@YA?AW4Status@1@AEAVContext@1@@Z
    ?InitializeResources_group_1@cask6_myelin@@YA?AW4Status@1@AEAVContext@1@@Z
    ?InitializeResources_group_2@cask6_myelin@@YA?AW4Status@1@AEAVContext@1@@Z
    ?InitializeResources_group_3@cask6_myelin@@YA?AW4Status@1@AEAVContext@1@@Z
    ?InitializeResources_group_4@cask6_myelin@@YA?AW4Status@1@AEAVContext@1@@Z
    ?InitializeResources_group_5@cask6_myelin@@YA?AW4Status@1@AEAVContext@1@@Z
    NvOptimusEnablementCuda
    createInferBuilder_INTERNAL
    createInferRefitter_INTERNAL
    createInferRuntime_INTERNAL
    createLeanRuntime
    getBuilderPluginRegistry
    getBuilderSafePluginRegistry
    getForwardCompatibilityHelper
    getInferLibBuildVersion
    getInferLibMajorVersion
    getInferLibMinorVersion
    getInferLibPatchVersion
    getInferLibVersion
    getLogger
    getPluginRegistry
    setInternalLibraryPath
    tensorrt_build_user_manager_containeradministrator_20260612_4386a28e57cc88cc
    tensorrt_version_11_1_0_106
